
prog.elf:     ファイル形式 elf32-littleriscv


セクション .text の逆アセンブル:

00008000 <_start>:
    8000:	0080006f          	j	8008 <_init_reg>

00008004 <_end>:
    8004:	0000006f          	j	8004 <_end>

00008008 <_init_reg>:
    8008:	00000093          	li	ra,0
    800c:	00000113          	li	sp,0
    8010:	00000193          	li	gp,0
    8014:	00000213          	li	tp,0
    8018:	00000293          	li	t0,0
    801c:	00000313          	li	t1,0
    8020:	00000393          	li	t2,0
    8024:	00000413          	li	s0,0
    8028:	00000493          	li	s1,0
    802c:	00000513          	li	a0,0
    8030:	00000593          	li	a1,0
    8034:	00000613          	li	a2,0
    8038:	00000693          	li	a3,0
    803c:	00000713          	li	a4,0
    8040:	00000793          	li	a5,0
    8044:	00000813          	li	a6,0
    8048:	00000893          	li	a7,0
    804c:	00000913          	li	s2,0
    8050:	00000993          	li	s3,0
    8054:	00000a13          	li	s4,0
    8058:	00000a93          	li	s5,0
    805c:	00000b13          	li	s6,0
    8060:	00000b93          	li	s7,0
    8064:	00000c13          	li	s8,0
    8068:	00000c93          	li	s9,0
    806c:	00000d13          	li	s10,0
    8070:	00000d93          	li	s11,0
    8074:	00000e13          	li	t3,0
    8078:	00000e93          	li	t4,0
    807c:	00000f13          	li	t5,0
    8080:	00000f93          	li	t6,0
    8084:	00020137          	lui	sp,0x20

00008088 <_call_main>:
    8088:	520040ef          	jal	c5a8 <main>
    808c:	f79ff06f          	j	8004 <_end>

00008090 <calc_func>:
    8090:	fe010113          	add	sp,sp,-32 # 1ffe0 <start_time_val+0xf858>
    8094:	00812c23          	sw	s0,24(sp)
    8098:	00051403          	lh	s0,0(a0)
    809c:	00112e23          	sw	ra,28(sp)
    80a0:	40745793          	sra	a5,s0,0x7
    80a4:	0017f793          	and	a5,a5,1
    80a8:	00078c63          	beqz	a5,80c0 <calc_func+0x30>
    80ac:	01c12083          	lw	ra,28(sp)
    80b0:	07f47513          	and	a0,s0,127
    80b4:	01812403          	lw	s0,24(sp)
    80b8:	02010113          	add	sp,sp,32
    80bc:	00008067          	ret
    80c0:	40345713          	sra	a4,s0,0x3
    80c4:	00f77713          	and	a4,a4,15
    80c8:	00471693          	sll	a3,a4,0x4
    80cc:	0385d783          	lhu	a5,56(a1)
    80d0:	00912a23          	sw	s1,20(sp)
    80d4:	01312623          	sw	s3,12(sp)
    80d8:	00058493          	mv	s1,a1
    80dc:	01212823          	sw	s2,16(sp)
    80e0:	00d705b3          	add	a1,a4,a3
    80e4:	00747613          	and	a2,s0,7
    80e8:	00050993          	mv	s3,a0
    80ec:	00058713          	mv	a4,a1
    80f0:	08060063          	beqz	a2,8170 <calc_func+0xe0>
    80f4:	00100693          	li	a3,1
    80f8:	06d61463          	bne	a2,a3,8160 <calc_func+0xd0>
    80fc:	00078613          	mv	a2,a5
    8100:	02848513          	add	a0,s1,40
    8104:	270010ef          	jal	9374 <core_bench_matrix>
    8108:	03c4d783          	lhu	a5,60(s1)
    810c:	01051913          	sll	s2,a0,0x10
    8110:	41095913          	sra	s2,s2,0x10
    8114:	08079c63          	bnez	a5,81ac <calc_func+0x11c>
    8118:	0384d783          	lhu	a5,56(s1)
    811c:	02a49e23          	sh	a0,60(s1)
    8120:	00078593          	mv	a1,a5
    8124:	008020ef          	jal	a12c <crcu16>
    8128:	00050793          	mv	a5,a0
    812c:	f0047413          	and	s0,s0,-256
    8130:	07f97513          	and	a0,s2,127
    8134:	00856433          	or	s0,a0,s0
    8138:	02f49c23          	sh	a5,56(s1)
    813c:	08046413          	or	s0,s0,128
    8140:	00899023          	sh	s0,0(s3)
    8144:	01c12083          	lw	ra,28(sp)
    8148:	01812403          	lw	s0,24(sp)
    814c:	01412483          	lw	s1,20(sp)
    8150:	01012903          	lw	s2,16(sp)
    8154:	00c12983          	lw	s3,12(sp)
    8158:	02010113          	add	sp,sp,32
    815c:	00008067          	ret
    8160:	01041513          	sll	a0,s0,0x10
    8164:	01055513          	srl	a0,a0,0x10
    8168:	00040913          	mv	s2,s0
    816c:	fb5ff06f          	j	8120 <calc_func+0x90>
    8170:	02100693          	li	a3,33
    8174:	00b6e463          	bltu	a3,a1,817c <calc_func+0xec>
    8178:	02200713          	li	a4,34
    817c:	00249683          	lh	a3,2(s1)
    8180:	00049603          	lh	a2,0(s1)
    8184:	0144a583          	lw	a1,20(s1)
    8188:	0184a503          	lw	a0,24(s1)
    818c:	3ed010ef          	jal	9d78 <core_bench_state>
    8190:	03e4d783          	lhu	a5,62(s1)
    8194:	01051913          	sll	s2,a0,0x10
    8198:	41095913          	sra	s2,s2,0x10
    819c:	00079863          	bnez	a5,81ac <calc_func+0x11c>
    81a0:	0384d783          	lhu	a5,56(s1)
    81a4:	02a49f23          	sh	a0,62(s1)
    81a8:	f79ff06f          	j	8120 <calc_func+0x90>
    81ac:	0384d783          	lhu	a5,56(s1)
    81b0:	f71ff06f          	j	8120 <calc_func+0x90>

000081b4 <cmp_complex>:
    81b4:	fe010113          	add	sp,sp,-32
    81b8:	00912a23          	sw	s1,20(sp)
    81bc:	00051483          	lh	s1,0(a0)
    81c0:	00812c23          	sw	s0,24(sp)
    81c4:	01212823          	sw	s2,16(sp)
    81c8:	4074d793          	sra	a5,s1,0x7
    81cc:	01412423          	sw	s4,8(sp)
    81d0:	00112e23          	sw	ra,28(sp)
    81d4:	01312623          	sw	s3,12(sp)
    81d8:	0017f793          	and	a5,a5,1
    81dc:	00058913          	mv	s2,a1
    81e0:	00060413          	mv	s0,a2
    81e4:	07f4fa13          	and	s4,s1,127
    81e8:	06079a63          	bnez	a5,825c <cmp_complex+0xa8>
    81ec:	4034d713          	sra	a4,s1,0x3
    81f0:	00f77713          	and	a4,a4,15
    81f4:	00471693          	sll	a3,a4,0x4
    81f8:	00d705b3          	add	a1,a4,a3
    81fc:	0074f613          	and	a2,s1,7
    8200:	03845783          	lhu	a5,56(s0)
    8204:	00050993          	mv	s3,a0
    8208:	00058713          	mv	a4,a1
    820c:	14060863          	beqz	a2,835c <cmp_complex+0x1a8>
    8210:	00100693          	li	a3,1
    8214:	0ed61663          	bne	a2,a3,8300 <cmp_complex+0x14c>
    8218:	00078613          	mv	a2,a5
    821c:	02840513          	add	a0,s0,40
    8220:	154010ef          	jal	9374 <core_bench_matrix>
    8224:	03c45783          	lhu	a5,60(s0)
    8228:	01051a13          	sll	s4,a0,0x10
    822c:	410a5a13          	sra	s4,s4,0x10
    8230:	16079463          	bnez	a5,8398 <cmp_complex+0x1e4>
    8234:	03845783          	lhu	a5,56(s0)
    8238:	02a41e23          	sh	a0,60(s0)
    823c:	00078593          	mv	a1,a5
    8240:	07fa7a13          	and	s4,s4,127
    8244:	f004f493          	and	s1,s1,-256
    8248:	6e5010ef          	jal	a12c <crcu16>
    824c:	009a64b3          	or	s1,s4,s1
    8250:	02a41c23          	sh	a0,56(s0)
    8254:	0804e493          	or	s1,s1,128
    8258:	00999023          	sh	s1,0(s3)
    825c:	00091483          	lh	s1,0(s2)
    8260:	4074d793          	sra	a5,s1,0x7
    8264:	0017f793          	and	a5,a5,1
    8268:	07f4f993          	and	s3,s1,127
    826c:	06079863          	bnez	a5,82dc <cmp_complex+0x128>
    8270:	4034d713          	sra	a4,s1,0x3
    8274:	00f77713          	and	a4,a4,15
    8278:	00471693          	sll	a3,a4,0x4
    827c:	00d705b3          	add	a1,a4,a3
    8280:	0074f613          	and	a2,s1,7
    8284:	03845783          	lhu	a5,56(s0)
    8288:	00058713          	mv	a4,a1
    828c:	08060a63          	beqz	a2,8320 <cmp_complex+0x16c>
    8290:	00100693          	li	a3,1
    8294:	06d61e63          	bne	a2,a3,8310 <cmp_complex+0x15c>
    8298:	00078613          	mv	a2,a5
    829c:	02840513          	add	a0,s0,40
    82a0:	0d4010ef          	jal	9374 <core_bench_matrix>
    82a4:	03c45783          	lhu	a5,60(s0)
    82a8:	01051993          	sll	s3,a0,0x10
    82ac:	4109d993          	sra	s3,s3,0x10
    82b0:	0e079863          	bnez	a5,83a0 <cmp_complex+0x1ec>
    82b4:	03845783          	lhu	a5,56(s0)
    82b8:	02a41e23          	sh	a0,60(s0)
    82bc:	00078593          	mv	a1,a5
    82c0:	07f9f993          	and	s3,s3,127
    82c4:	f004f493          	and	s1,s1,-256
    82c8:	665010ef          	jal	a12c <crcu16>
    82cc:	0099e4b3          	or	s1,s3,s1
    82d0:	02a41c23          	sh	a0,56(s0)
    82d4:	0804e493          	or	s1,s1,128
    82d8:	00991023          	sh	s1,0(s2)
    82dc:	01c12083          	lw	ra,28(sp)
    82e0:	01812403          	lw	s0,24(sp)
    82e4:	413a0533          	sub	a0,s4,s3
    82e8:	01412483          	lw	s1,20(sp)
    82ec:	01012903          	lw	s2,16(sp)
    82f0:	00c12983          	lw	s3,12(sp)
    82f4:	00812a03          	lw	s4,8(sp)
    82f8:	02010113          	add	sp,sp,32
    82fc:	00008067          	ret
    8300:	01049513          	sll	a0,s1,0x10
    8304:	01055513          	srl	a0,a0,0x10
    8308:	00048a13          	mv	s4,s1
    830c:	f31ff06f          	j	823c <cmp_complex+0x88>
    8310:	01049513          	sll	a0,s1,0x10
    8314:	01055513          	srl	a0,a0,0x10
    8318:	00048993          	mv	s3,s1
    831c:	fa1ff06f          	j	82bc <cmp_complex+0x108>
    8320:	02100693          	li	a3,33
    8324:	00b6e463          	bltu	a3,a1,832c <cmp_complex+0x178>
    8328:	02200713          	li	a4,34
    832c:	00241683          	lh	a3,2(s0)
    8330:	00041603          	lh	a2,0(s0)
    8334:	01442583          	lw	a1,20(s0)
    8338:	01842503          	lw	a0,24(s0)
    833c:	23d010ef          	jal	9d78 <core_bench_state>
    8340:	03e45783          	lhu	a5,62(s0)
    8344:	01051993          	sll	s3,a0,0x10
    8348:	4109d993          	sra	s3,s3,0x10
    834c:	04079a63          	bnez	a5,83a0 <cmp_complex+0x1ec>
    8350:	03845783          	lhu	a5,56(s0)
    8354:	02a41f23          	sh	a0,62(s0)
    8358:	f65ff06f          	j	82bc <cmp_complex+0x108>
    835c:	02100693          	li	a3,33
    8360:	00b6e463          	bltu	a3,a1,8368 <cmp_complex+0x1b4>
    8364:	02200713          	li	a4,34
    8368:	00241683          	lh	a3,2(s0)
    836c:	00041603          	lh	a2,0(s0)
    8370:	01442583          	lw	a1,20(s0)
    8374:	01842503          	lw	a0,24(s0)
    8378:	201010ef          	jal	9d78 <core_bench_state>
    837c:	03e45783          	lhu	a5,62(s0)
    8380:	01051a13          	sll	s4,a0,0x10
    8384:	410a5a13          	sra	s4,s4,0x10
    8388:	00079863          	bnez	a5,8398 <cmp_complex+0x1e4>
    838c:	03845783          	lhu	a5,56(s0)
    8390:	02a41f23          	sh	a0,62(s0)
    8394:	ea9ff06f          	j	823c <cmp_complex+0x88>
    8398:	03845783          	lhu	a5,56(s0)
    839c:	ea1ff06f          	j	823c <cmp_complex+0x88>
    83a0:	03845783          	lhu	a5,56(s0)
    83a4:	f19ff06f          	j	82bc <cmp_complex+0x108>

000083a8 <cmp_idx>:
    83a8:	00060a63          	beqz	a2,83bc <cmp_idx+0x14>
    83ac:	00251503          	lh	a0,2(a0)
    83b0:	00259783          	lh	a5,2(a1)
    83b4:	40f50533          	sub	a0,a0,a5
    83b8:	00008067          	ret
    83bc:	00051783          	lh	a5,0(a0)
    83c0:	01079713          	sll	a4,a5,0x10
    83c4:	01075713          	srl	a4,a4,0x10
    83c8:	00875713          	srl	a4,a4,0x8
    83cc:	f007f793          	and	a5,a5,-256
    83d0:	00e7e7b3          	or	a5,a5,a4
    83d4:	00f51023          	sh	a5,0(a0)
    83d8:	00059783          	lh	a5,0(a1)
    83dc:	00251503          	lh	a0,2(a0)
    83e0:	01079713          	sll	a4,a5,0x10
    83e4:	01075713          	srl	a4,a4,0x10
    83e8:	00875713          	srl	a4,a4,0x8
    83ec:	f007f793          	and	a5,a5,-256
    83f0:	00e7e7b3          	or	a5,a5,a4
    83f4:	00f59023          	sh	a5,0(a1)
    83f8:	00259783          	lh	a5,2(a1)
    83fc:	40f50533          	sub	a0,a0,a5
    8400:	00008067          	ret

00008404 <copy_info>:
    8404:	00059703          	lh	a4,0(a1)
    8408:	00259783          	lh	a5,2(a1)
    840c:	00e51023          	sh	a4,0(a0)
    8410:	00f51123          	sh	a5,2(a0)
    8414:	00008067          	ret

00008418 <core_bench_list>:
    8418:	00451883          	lh	a7,4(a0)
    841c:	fc010113          	add	sp,sp,-64
    8420:	02812c23          	sw	s0,56(sp)
    8424:	03612023          	sw	s6,32(sp)
    8428:	02112e23          	sw	ra,60(sp)
    842c:	02912a23          	sw	s1,52(sp)
    8430:	03212823          	sw	s2,48(sp)
    8434:	03312623          	sw	s3,44(sp)
    8438:	03412423          	sw	s4,40(sp)
    843c:	03512223          	sw	s5,36(sp)
    8440:	01712e23          	sw	s7,28(sp)
    8444:	01812c23          	sw	s8,24(sp)
    8448:	01912a23          	sw	s9,20(sp)
    844c:	01a12823          	sw	s10,16(sp)
    8450:	01b12623          	sw	s11,12(sp)
    8454:	02452403          	lw	s0,36(a0)
    8458:	00050b13          	mv	s6,a0
    845c:	00058513          	mv	a0,a1
    8460:	45105063          	blez	a7,88a0 <core_bench_list+0x488>
    8464:	00058b93          	mv	s7,a1
    8468:	00000613          	li	a2,0
    846c:	00000813          	li	a6,0
    8470:	00000593          	li	a1,0
    8474:	00000493          	li	s1,0
    8478:	0ff67c93          	zext.b	s9,a2
    847c:	260bca63          	bltz	s7,86f0 <core_bench_list+0x2d8>
    8480:	42040863          	beqz	s0,88b0 <core_bench_list+0x498>
    8484:	00040793          	mv	a5,s0
    8488:	00c0006f          	j	8494 <core_bench_list+0x7c>
    848c:	0007a783          	lw	a5,0(a5)
    8490:	00078863          	beqz	a5,84a0 <core_bench_list+0x88>
    8494:	0047a703          	lw	a4,4(a5)
    8498:	00271703          	lh	a4,2(a4)
    849c:	ff7718e3          	bne	a4,s7,848c <core_bench_list+0x74>
    84a0:	00000693          	li	a3,0
    84a4:	0080006f          	j	84ac <core_bench_list+0x94>
    84a8:	00070413          	mv	s0,a4
    84ac:	00042703          	lw	a4,0(s0)
    84b0:	00d42023          	sw	a3,0(s0)
    84b4:	00040693          	mv	a3,s0
    84b8:	fe0718e3          	bnez	a4,84a8 <core_bench_list+0x90>
    84bc:	24078c63          	beqz	a5,8714 <core_bench_list+0x2fc>
    84c0:	0047a703          	lw	a4,4(a5)
    84c4:	00071703          	lh	a4,0(a4)
    84c8:	00177693          	and	a3,a4,1
    84cc:	00068c63          	beqz	a3,84e4 <core_bench_list+0xcc>
    84d0:	40975713          	sra	a4,a4,0x9
    84d4:	00177713          	and	a4,a4,1
    84d8:	00e48733          	add	a4,s1,a4
    84dc:	01071493          	sll	s1,a4,0x10
    84e0:	0104d493          	srl	s1,s1,0x10
    84e4:	0007a703          	lw	a4,0(a5)
    84e8:	00070c63          	beqz	a4,8500 <core_bench_list+0xe8>
    84ec:	00072683          	lw	a3,0(a4)
    84f0:	00d7a023          	sw	a3,0(a5)
    84f4:	00042783          	lw	a5,0(s0)
    84f8:	00f72023          	sw	a5,0(a4)
    84fc:	00e42023          	sw	a4,0(s0)
    8500:	00158793          	add	a5,a1,1
    8504:	01079593          	sll	a1,a5,0x10
    8508:	0105d593          	srl	a1,a1,0x10
    850c:	000bc863          	bltz	s7,851c <core_bench_list+0x104>
    8510:	001b8b93          	add	s7,s7,1
    8514:	010b9b93          	sll	s7,s7,0x10
    8518:	410bdb93          	sra	s7,s7,0x10
    851c:	00160613          	add	a2,a2,1
    8520:	01061613          	sll	a2,a2,0x10
    8524:	41065613          	sra	a2,a2,0x10
    8528:	f4c898e3          	bne	a7,a2,8478 <core_bench_list+0x60>
    852c:	00259793          	sll	a5,a1,0x2
    8530:	410787b3          	sub	a5,a5,a6
    8534:	00f484b3          	add	s1,s1,a5
    8538:	01049493          	sll	s1,s1,0x10
    853c:	0104d493          	srl	s1,s1,0x10
    8540:	26a04263          	bgtz	a0,87a4 <core_bench_list+0x38c>
    8544:	00042783          	lw	a5,0(s0)
    8548:	00040913          	mv	s2,s0
    854c:	0007a983          	lw	s3,0(a5)
    8550:	0047a703          	lw	a4,4(a5)
    8554:	0049a603          	lw	a2,4(s3)
    8558:	0009a683          	lw	a3,0(s3)
    855c:	00c7a223          	sw	a2,4(a5)
    8560:	00e9a223          	sw	a4,4(s3)
    8564:	00d7a023          	sw	a3,0(a5)
    8568:	0009a023          	sw	zero,0(s3)
    856c:	0e0bca63          	bltz	s7,8660 <core_bench_list+0x248>
    8570:	00492783          	lw	a5,4(s2)
    8574:	00279783          	lh	a5,2(a5)
    8578:	01778c63          	beq	a5,s7,8590 <core_bench_list+0x178>
    857c:	00092903          	lw	s2,0(s2)
    8580:	2e090863          	beqz	s2,8870 <core_bench_list+0x458>
    8584:	00492783          	lw	a5,4(s2)
    8588:	00279783          	lh	a5,2(a5)
    858c:	ff7798e3          	bne	a5,s7,857c <core_bench_list+0x164>
    8590:	00442783          	lw	a5,4(s0)
    8594:	00048593          	mv	a1,s1
    8598:	00079503          	lh	a0,0(a5)
    859c:	274020ef          	jal	a810 <crc16>
    85a0:	00092903          	lw	s2,0(s2)
    85a4:	00050493          	mv	s1,a0
    85a8:	fe0914e3          	bnez	s2,8590 <core_bench_list+0x178>
    85ac:	00042903          	lw	s2,0(s0)
    85b0:	0049a703          	lw	a4,4(s3)
    85b4:	00492683          	lw	a3,4(s2)
    85b8:	00092783          	lw	a5,0(s2)
    85bc:	00100e93          	li	t4,1
    85c0:	00d9a223          	sw	a3,4(s3)
    85c4:	00e92223          	sw	a4,4(s2)
    85c8:	00f9a023          	sw	a5,0(s3)
    85cc:	01392023          	sw	s3,0(s2)
    85d0:	00100f93          	li	t6,1
    85d4:	10040a63          	beqz	s0,86e8 <core_bench_list+0x2d0>
    85d8:	00000693          	li	a3,0
    85dc:	00000913          	li	s2,0
    85e0:	00000f13          	li	t5,0
    85e4:	001f0f13          	add	t5,t5,1
    85e8:	00040713          	mv	a4,s0
    85ec:	00000793          	li	a5,0
    85f0:	01d7d863          	bge	a5,t4,8600 <core_bench_list+0x1e8>
    85f4:	00072703          	lw	a4,0(a4)
    85f8:	00178793          	add	a5,a5,1
    85fc:	fe071ae3          	bnez	a4,85f0 <core_bench_list+0x1d8>
    8600:	00040613          	mv	a2,s0
    8604:	000e8593          	mv	a1,t4
    8608:	00070413          	mv	s0,a4
    860c:	02f05263          	blez	a5,8630 <core_bench_list+0x218>
    8610:	06059063          	bnez	a1,8670 <core_bench_list+0x258>
    8614:	00060713          	mv	a4,a2
    8618:	00062603          	lw	a2,0(a2)
    861c:	fff78793          	add	a5,a5,-1
    8620:	02068663          	beqz	a3,864c <core_bench_list+0x234>
    8624:	00e6a023          	sw	a4,0(a3)
    8628:	00070693          	mv	a3,a4
    862c:	fef042e3          	bgtz	a5,8610 <core_bench_list+0x1f8>
    8630:	0ab05063          	blez	a1,86d0 <core_bench_list+0x2b8>
    8634:	0a040063          	beqz	s0,86d4 <core_bench_list+0x2bc>
    8638:	02079e63          	bnez	a5,8674 <core_bench_list+0x25c>
    863c:	00040713          	mv	a4,s0
    8640:	fff58593          	add	a1,a1,-1
    8644:	00042403          	lw	s0,0(s0)
    8648:	fc069ee3          	bnez	a3,8624 <core_bench_list+0x20c>
    864c:	00070913          	mv	s2,a4
    8650:	00070693          	mv	a3,a4
    8654:	fd9ff06f          	j	862c <core_bench_list+0x214>
    8658:	00092903          	lw	s2,0(s2)
    865c:	20090a63          	beqz	s2,8870 <core_bench_list+0x458>
    8660:	00492783          	lw	a5,4(s2)
    8664:	0007c783          	lbu	a5,0(a5)
    8668:	fefc98e3          	bne	s9,a5,8658 <core_bench_list+0x240>
    866c:	f25ff06f          	j	8590 <core_bench_list+0x178>
    8670:	fa0402e3          	beqz	s0,8614 <core_bench_list+0x1fc>
    8674:	00462803          	lw	a6,4(a2)
    8678:	00442503          	lw	a0,4(s0)
    867c:	00081703          	lh	a4,0(a6)
    8680:	00251303          	lh	t1,2(a0)
    8684:	00281e03          	lh	t3,2(a6)
    8688:	01071893          	sll	a7,a4,0x10
    868c:	0108d893          	srl	a7,a7,0x10
    8690:	f0077713          	and	a4,a4,-256
    8694:	0088d893          	srl	a7,a7,0x8
    8698:	01176733          	or	a4,a4,a7
    869c:	00e81023          	sh	a4,0(a6)
    86a0:	00051703          	lh	a4,0(a0)
    86a4:	01071813          	sll	a6,a4,0x10
    86a8:	01085813          	srl	a6,a6,0x10
    86ac:	f0077713          	and	a4,a4,-256
    86b0:	00885813          	srl	a6,a6,0x8
    86b4:	01076733          	or	a4,a4,a6
    86b8:	00e51023          	sh	a4,0(a0)
    86bc:	f5c35ce3          	bge	t1,t3,8614 <core_bench_list+0x1fc>
    86c0:	00040713          	mv	a4,s0
    86c4:	fff58593          	add	a1,a1,-1
    86c8:	00042403          	lw	s0,0(s0)
    86cc:	f55ff06f          	j	8620 <core_bench_list+0x208>
    86d0:	f0041ae3          	bnez	s0,85e4 <core_bench_list+0x1cc>
    86d4:	0006a023          	sw	zero,0(a3)
    86d8:	07ff0463          	beq	t5,t6,8740 <core_bench_list+0x328>
    86dc:	00090413          	mv	s0,s2
    86e0:	001e9e93          	sll	t4,t4,0x1
    86e4:	ee041ae3          	bnez	s0,85d8 <core_bench_list+0x1c0>
    86e8:	00002023          	sw	zero,0(zero) # 0 <_start-0x8000>
    86ec:	00100073          	ebreak
    86f0:	1c040063          	beqz	s0,88b0 <core_bench_list+0x498>
    86f4:	00040793          	mv	a5,s0
    86f8:	00c0006f          	j	8704 <core_bench_list+0x2ec>
    86fc:	0007a783          	lw	a5,0(a5)
    8700:	da0780e3          	beqz	a5,84a0 <core_bench_list+0x88>
    8704:	0047a703          	lw	a4,4(a5)
    8708:	00074703          	lbu	a4,0(a4)
    870c:	feec98e3          	bne	s9,a4,86fc <core_bench_list+0x2e4>
    8710:	d91ff06f          	j	84a0 <core_bench_list+0x88>
    8714:	00042783          	lw	a5,0(s0)
    8718:	00180813          	add	a6,a6,1
    871c:	01081813          	sll	a6,a6,0x10
    8720:	0047a783          	lw	a5,4(a5)
    8724:	01085813          	srl	a6,a6,0x10
    8728:	00178783          	lb	a5,1(a5)
    872c:	0017f793          	and	a5,a5,1
    8730:	00f487b3          	add	a5,s1,a5
    8734:	01079493          	sll	s1,a5,0x10
    8738:	0104d493          	srl	s1,s1,0x10
    873c:	dd1ff06f          	j	850c <core_bench_list+0xf4>
    8740:	00092403          	lw	s0,0(s2)
    8744:	02040063          	beqz	s0,8764 <core_bench_list+0x34c>
    8748:	00492783          	lw	a5,4(s2)
    874c:	00048593          	mv	a1,s1
    8750:	00079503          	lh	a0,0(a5)
    8754:	0bc020ef          	jal	a810 <crc16>
    8758:	00042403          	lw	s0,0(s0)
    875c:	00050493          	mv	s1,a0
    8760:	fe0414e3          	bnez	s0,8748 <core_bench_list+0x330>
    8764:	03c12083          	lw	ra,60(sp)
    8768:	03812403          	lw	s0,56(sp)
    876c:	03012903          	lw	s2,48(sp)
    8770:	02c12983          	lw	s3,44(sp)
    8774:	02812a03          	lw	s4,40(sp)
    8778:	02412a83          	lw	s5,36(sp)
    877c:	02012b03          	lw	s6,32(sp)
    8780:	01c12b83          	lw	s7,28(sp)
    8784:	01812c03          	lw	s8,24(sp)
    8788:	01412c83          	lw	s9,20(sp)
    878c:	01012d03          	lw	s10,16(sp)
    8790:	00c12d83          	lw	s11,12(sp)
    8794:	00048513          	mv	a0,s1
    8798:	03412483          	lw	s1,52(sp)
    879c:	04010113          	add	sp,sp,64
    87a0:	00008067          	ret
    87a4:	00100a13          	li	s4,1
    87a8:	f40400e3          	beqz	s0,86e8 <core_bench_list+0x2d0>
    87ac:	00000993          	li	s3,0
    87b0:	00000a93          	li	s5,0
    87b4:	00000c13          	li	s8,0
    87b8:	001c0c13          	add	s8,s8,1
    87bc:	00040793          	mv	a5,s0
    87c0:	00000913          	li	s2,0
    87c4:	01495863          	bge	s2,s4,87d4 <core_bench_list+0x3bc>
    87c8:	0007a783          	lw	a5,0(a5)
    87cc:	00190913          	add	s2,s2,1
    87d0:	fe079ae3          	bnez	a5,87c4 <core_bench_list+0x3ac>
    87d4:	00040d93          	mv	s11,s0
    87d8:	000a0d13          	mv	s10,s4
    87dc:	00078413          	mv	s0,a5
    87e0:	03205263          	blez	s2,8804 <core_bench_list+0x3ec>
    87e4:	040d1463          	bnez	s10,882c <core_bench_list+0x414>
    87e8:	000d8793          	mv	a5,s11
    87ec:	000dad83          	lw	s11,0(s11)
    87f0:	fff90913          	add	s2,s2,-1
    87f4:	02098663          	beqz	s3,8820 <core_bench_list+0x408>
    87f8:	00f9a023          	sw	a5,0(s3)
    87fc:	00078993          	mv	s3,a5
    8800:	ff2042e3          	bgtz	s2,87e4 <core_bench_list+0x3cc>
    8804:	05a05863          	blez	s10,8854 <core_bench_list+0x43c>
    8808:	04040863          	beqz	s0,8858 <core_bench_list+0x440>
    880c:	02091263          	bnez	s2,8830 <core_bench_list+0x418>
    8810:	00040793          	mv	a5,s0
    8814:	fffd0d13          	add	s10,s10,-1
    8818:	00042403          	lw	s0,0(s0)
    881c:	fc099ee3          	bnez	s3,87f8 <core_bench_list+0x3e0>
    8820:	00078a93          	mv	s5,a5
    8824:	00078993          	mv	s3,a5
    8828:	fd9ff06f          	j	8800 <core_bench_list+0x3e8>
    882c:	fa040ee3          	beqz	s0,87e8 <core_bench_list+0x3d0>
    8830:	00442583          	lw	a1,4(s0)
    8834:	004da503          	lw	a0,4(s11)
    8838:	000b0613          	mv	a2,s6
    883c:	979ff0ef          	jal	81b4 <cmp_complex>
    8840:	faa054e3          	blez	a0,87e8 <core_bench_list+0x3d0>
    8844:	00040793          	mv	a5,s0
    8848:	fffd0d13          	add	s10,s10,-1
    884c:	00042403          	lw	s0,0(s0)
    8850:	fa5ff06f          	j	87f4 <core_bench_list+0x3dc>
    8854:	f60412e3          	bnez	s0,87b8 <core_bench_list+0x3a0>
    8858:	0009a023          	sw	zero,0(s3)
    885c:	00100793          	li	a5,1
    8860:	02fc0c63          	beq	s8,a5,8898 <core_bench_list+0x480>
    8864:	001a1a13          	sll	s4,s4,0x1
    8868:	000a8413          	mv	s0,s5
    886c:	f3dff06f          	j	87a8 <core_bench_list+0x390>
    8870:	00042903          	lw	s2,0(s0)
    8874:	d40900e3          	beqz	s2,85b4 <core_bench_list+0x19c>
    8878:	00442783          	lw	a5,4(s0)
    887c:	00048593          	mv	a1,s1
    8880:	00079503          	lh	a0,0(a5)
    8884:	78d010ef          	jal	a810 <crc16>
    8888:	00092903          	lw	s2,0(s2)
    888c:	00050493          	mv	s1,a0
    8890:	d00910e3          	bnez	s2,8590 <core_bench_list+0x178>
    8894:	d19ff06f          	j	85ac <core_bench_list+0x194>
    8898:	000a8413          	mv	s0,s5
    889c:	ca9ff06f          	j	8544 <core_bench_list+0x12c>
    88a0:	00000c93          	li	s9,0
    88a4:	00058b93          	mv	s7,a1
    88a8:	00000493          	li	s1,0
    88ac:	c95ff06f          	j	8540 <core_bench_list+0x128>
    88b0:	00002783          	lw	a5,0(zero) # 0 <_start-0x8000>
    88b4:	00100073          	ebreak

000088b8 <core_list_init>:
    88b8:	01400793          	li	a5,20
    88bc:	02f55533          	divu	a0,a0,a5
    88c0:	ffff87b7          	lui	a5,0xffff8
    88c4:	0005a023          	sw	zero,0(a1)
    88c8:	08078793          	add	a5,a5,128 # ffff8080 <stack_top+0xfffd8080>
    88cc:	01058813          	add	a6,a1,16
    88d0:	00058713          	mv	a4,a1
    88d4:	00858693          	add	a3,a1,8
    88d8:	00060f13          	mv	t5,a2
    88dc:	ffe50513          	add	a0,a0,-2
    88e0:	00351893          	sll	a7,a0,0x3
    88e4:	011588b3          	add	a7,a1,a7
    88e8:	0115a223          	sw	a7,4(a1)
    88ec:	00251f93          	sll	t6,a0,0x2
    88f0:	00089123          	sh	zero,2(a7)
    88f4:	00f89023          	sh	a5,0(a7)
    88f8:	01f88fb3          	add	t6,a7,t6
    88fc:	00488593          	add	a1,a7,4
    8900:	25187e63          	bgeu	a6,a7,8b5c <core_list_init+0x2a4>
    8904:	00888313          	add	t1,a7,8
    8908:	25f37a63          	bgeu	t1,t6,8b5c <core_list_init+0x2a4>
    890c:	ffff87b7          	lui	a5,0xffff8
    8910:	00d72023          	sw	a3,0(a4)
    8914:	00b72623          	sw	a1,12(a4)
    8918:	00072423          	sw	zero,8(a4)
    891c:	00068613          	mv	a2,a3
    8920:	fff7c793          	not	a5,a5
    8924:	fff00693          	li	a3,-1
    8928:	00d89223          	sh	a3,4(a7)
    892c:	00f89323          	sh	a5,6(a7)
    8930:	00030593          	mv	a1,t1
    8934:	00080693          	mv	a3,a6
    8938:	06050e63          	beqz	a0,89b4 <core_list_init+0xfc>
    893c:	010f1393          	sll	t2,t5,0x10
    8940:	ffff82b7          	lui	t0,0xffff8
    8944:	00868e13          	add	t3,a3,8
    8948:	0103d393          	srl	t2,t2,0x10
    894c:	00000813          	li	a6,0
    8950:	fff2c293          	not	t0,t0
    8954:	071e7063          	bgeu	t3,a7,89b4 <core_list_init+0xfc>
    8958:	00458e93          	add	t4,a1,4
    895c:	21fef463          	bgeu	t4,t6,8b64 <core_list_init+0x2ac>
    8960:	01081313          	sll	t1,a6,0x10
    8964:	01035313          	srl	t1,t1,0x10
    8968:	007347b3          	xor	a5,t1,t2
    896c:	00379793          	sll	a5,a5,0x3
    8970:	0787f793          	and	a5,a5,120
    8974:	00737313          	and	t1,t1,7
    8978:	00c6a023          	sw	a2,0(a3)
    897c:	0067e7b3          	or	a5,a5,t1
    8980:	00d72023          	sw	a3,0(a4)
    8984:	00879613          	sll	a2,a5,0x8
    8988:	00b6a223          	sw	a1,4(a3)
    898c:	00c787b3          	add	a5,a5,a2
    8990:	00f59023          	sh	a5,0(a1)
    8994:	00559123          	sh	t0,2(a1)
    8998:	00180813          	add	a6,a6,1
    899c:	1b050c63          	beq	a0,a6,8b54 <core_list_init+0x29c>
    89a0:	00068613          	mv	a2,a3
    89a4:	000e0693          	mv	a3,t3
    89a8:	00868e13          	add	t3,a3,8
    89ac:	000e8593          	mv	a1,t4
    89b0:	fb1e64e3          	bltu	t3,a7,8958 <core_list_init+0xa0>
    89b4:	00062583          	lw	a1,0(a2)
    89b8:	06058c63          	beqz	a1,8a30 <core_list_init+0x178>
    89bc:	00500793          	li	a5,5
    89c0:	00004337          	lui	t1,0x4
    89c4:	02f55533          	divu	a0,a0,a5
    89c8:	00100693          	li	a3,1
    89cc:	20000793          	li	a5,512
    89d0:	fff30313          	add	t1,t1,-1 # 3fff <_start-0x4001>
    89d4:	0280006f          	j	89fc <core_list_init+0x144>
    89d8:	0005a803          	lw	a6,0(a1)
    89dc:	10078793          	add	a5,a5,256 # ffff8100 <stack_top+0xfffd8100>
    89e0:	00d89123          	sh	a3,2(a7)
    89e4:	01079793          	sll	a5,a5,0x10
    89e8:	00168693          	add	a3,a3,1
    89ec:	0107d793          	srl	a5,a5,0x10
    89f0:	04080063          	beqz	a6,8a30 <core_list_init+0x178>
    89f4:	00058613          	mv	a2,a1
    89f8:	00080593          	mv	a1,a6
    89fc:	00462883          	lw	a7,4(a2)
    8a00:	fca6ece3          	bltu	a3,a0,89d8 <core_list_init+0x120>
    8a04:	00df4833          	xor	a6,t5,a3
    8a08:	7007f613          	and	a2,a5,1792
    8a0c:	01066633          	or	a2,a2,a6
    8a10:	0005a803          	lw	a6,0(a1)
    8a14:	00667633          	and	a2,a2,t1
    8a18:	10078793          	add	a5,a5,256
    8a1c:	01079793          	sll	a5,a5,0x10
    8a20:	00c89123          	sh	a2,2(a7)
    8a24:	00168693          	add	a3,a3,1
    8a28:	0107d793          	srl	a5,a5,0x10
    8a2c:	fc0814e3          	bnez	a6,89f4 <core_list_init+0x13c>
    8a30:	00100f93          	li	t6,1
    8a34:	00000813          	li	a6,0
    8a38:	00000513          	li	a0,0
    8a3c:	00000293          	li	t0,0
    8a40:	00100393          	li	t2,1
    8a44:	00128293          	add	t0,t0,1 # ffff8001 <stack_top+0xfffd8001>
    8a48:	00070793          	mv	a5,a4
    8a4c:	00000693          	li	a3,0
    8a50:	01f6d863          	bge	a3,t6,8a60 <core_list_init+0x1a8>
    8a54:	0007a783          	lw	a5,0(a5)
    8a58:	00168693          	add	a3,a3,1
    8a5c:	fe079ae3          	bnez	a5,8a50 <core_list_init+0x198>
    8a60:	000f8593          	mv	a1,t6
    8a64:	02d05263          	blez	a3,8a88 <core_list_init+0x1d0>
    8a68:	04059463          	bnez	a1,8ab0 <core_list_init+0x1f8>
    8a6c:	00072603          	lw	a2,0(a4)
    8a70:	fff68693          	add	a3,a3,-1
    8a74:	02080a63          	beqz	a6,8aa8 <core_list_init+0x1f0>
    8a78:	00e82023          	sw	a4,0(a6)
    8a7c:	00070813          	mv	a6,a4
    8a80:	00060713          	mv	a4,a2
    8a84:	fed042e3          	bgtz	a3,8a68 <core_list_init+0x1b0>
    8a88:	08b05663          	blez	a1,8b14 <core_list_init+0x25c>
    8a8c:	08078a63          	beqz	a5,8b20 <core_list_init+0x268>
    8a90:	02069263          	bnez	a3,8ab4 <core_list_init+0x1fc>
    8a94:	00070613          	mv	a2,a4
    8a98:	fff58593          	add	a1,a1,-1
    8a9c:	00078713          	mv	a4,a5
    8aa0:	0007a783          	lw	a5,0(a5)
    8aa4:	fc081ae3          	bnez	a6,8a78 <core_list_init+0x1c0>
    8aa8:	00070513          	mv	a0,a4
    8aac:	fd1ff06f          	j	8a7c <core_list_init+0x1c4>
    8ab0:	fa078ee3          	beqz	a5,8a6c <core_list_init+0x1b4>
    8ab4:	00472303          	lw	t1,4(a4)
    8ab8:	0047a883          	lw	a7,4(a5)
    8abc:	00031603          	lh	a2,0(t1)
    8ac0:	00289e83          	lh	t4,2(a7)
    8ac4:	00231f03          	lh	t5,2(t1)
    8ac8:	01061e13          	sll	t3,a2,0x10
    8acc:	010e5e13          	srl	t3,t3,0x10
    8ad0:	f0067613          	and	a2,a2,-256
    8ad4:	008e5e13          	srl	t3,t3,0x8
    8ad8:	01c66633          	or	a2,a2,t3
    8adc:	00c31023          	sh	a2,0(t1)
    8ae0:	00089603          	lh	a2,0(a7)
    8ae4:	01061313          	sll	t1,a2,0x10
    8ae8:	01035313          	srl	t1,t1,0x10
    8aec:	f0067613          	and	a2,a2,-256
    8af0:	00835313          	srl	t1,t1,0x8
    8af4:	00666633          	or	a2,a2,t1
    8af8:	00c89023          	sh	a2,0(a7)
    8afc:	f7eed8e3          	bge	t4,t5,8a6c <core_list_init+0x1b4>
    8b00:	00070613          	mv	a2,a4
    8b04:	fff58593          	add	a1,a1,-1
    8b08:	00078713          	mv	a4,a5
    8b0c:	0007a783          	lw	a5,0(a5)
    8b10:	f65ff06f          	j	8a74 <core_list_init+0x1bc>
    8b14:	00078663          	beqz	a5,8b20 <core_list_init+0x268>
    8b18:	00078713          	mv	a4,a5
    8b1c:	f29ff06f          	j	8a44 <core_list_init+0x18c>
    8b20:	00082023          	sw	zero,0(a6)
    8b24:	02728263          	beq	t0,t2,8b48 <core_list_init+0x290>
    8b28:	001f9f93          	sll	t6,t6,0x1
    8b2c:	02050063          	beqz	a0,8b4c <core_list_init+0x294>
    8b30:	00050793          	mv	a5,a0
    8b34:	00000813          	li	a6,0
    8b38:	00000513          	li	a0,0
    8b3c:	00000293          	li	t0,0
    8b40:	00078713          	mv	a4,a5
    8b44:	f01ff06f          	j	8a44 <core_list_init+0x18c>
    8b48:	00008067          	ret
    8b4c:	00002023          	sw	zero,0(zero) # 0 <_start-0x8000>
    8b50:	00100073          	ebreak
    8b54:	00068613          	mv	a2,a3
    8b58:	e5dff06f          	j	89b4 <core_list_init+0xfc>
    8b5c:	00000613          	li	a2,0
    8b60:	dd9ff06f          	j	8938 <core_list_init+0x80>
    8b64:	00180813          	add	a6,a6,1
    8b68:	e50506e3          	beq	a0,a6,89b4 <core_list_init+0xfc>
    8b6c:	00068e13          	mv	t3,a3
    8b70:	00058e93          	mv	t4,a1
    8b74:	00060693          	mv	a3,a2
    8b78:	e29ff06f          	j	89a0 <core_list_init+0xe8>

00008b7c <core_list_insert_new>:
    8b7c:	00062803          	lw	a6,0(a2)
    8b80:	00880893          	add	a7,a6,8
    8b84:	04e8f663          	bgeu	a7,a4,8bd0 <core_list_insert_new+0x54>
    8b88:	0006a703          	lw	a4,0(a3)
    8b8c:	00470313          	add	t1,a4,4
    8b90:	04f37063          	bgeu	t1,a5,8bd0 <core_list_insert_new+0x54>
    8b94:	01162023          	sw	a7,0(a2)
    8b98:	00052783          	lw	a5,0(a0)
    8b9c:	00059883          	lh	a7,0(a1)
    8ba0:	00259603          	lh	a2,2(a1)
    8ba4:	00f82023          	sw	a5,0(a6)
    8ba8:	01052023          	sw	a6,0(a0)
    8bac:	00e82223          	sw	a4,4(a6)
    8bb0:	0006a783          	lw	a5,0(a3)
    8bb4:	00080513          	mv	a0,a6
    8bb8:	00478793          	add	a5,a5,4
    8bbc:	00f6a023          	sw	a5,0(a3)
    8bc0:	00482783          	lw	a5,4(a6)
    8bc4:	01179023          	sh	a7,0(a5)
    8bc8:	00c79123          	sh	a2,2(a5)
    8bcc:	00008067          	ret
    8bd0:	00000813          	li	a6,0
    8bd4:	00080513          	mv	a0,a6
    8bd8:	00008067          	ret

00008bdc <core_list_remove>:
    8bdc:	00050793          	mv	a5,a0
    8be0:	00052503          	lw	a0,0(a0)
    8be4:	0047a683          	lw	a3,4(a5)
    8be8:	00452603          	lw	a2,4(a0)
    8bec:	00052703          	lw	a4,0(a0)
    8bf0:	00c7a223          	sw	a2,4(a5)
    8bf4:	00d52223          	sw	a3,4(a0)
    8bf8:	00e7a023          	sw	a4,0(a5)
    8bfc:	00052023          	sw	zero,0(a0)
    8c00:	00008067          	ret

00008c04 <core_list_undo_remove>:
    8c04:	0045a603          	lw	a2,4(a1)
    8c08:	00452683          	lw	a3,4(a0)
    8c0c:	0005a703          	lw	a4,0(a1)
    8c10:	00c52223          	sw	a2,4(a0)
    8c14:	00d5a223          	sw	a3,4(a1)
    8c18:	00e52023          	sw	a4,0(a0)
    8c1c:	00a5a023          	sw	a0,0(a1)
    8c20:	00008067          	ret

00008c24 <core_list_find>:
    8c24:	00259703          	lh	a4,2(a1)
    8c28:	02074263          	bltz	a4,8c4c <core_list_find+0x28>
    8c2c:	00051863          	bnez	a0,8c3c <core_list_find+0x18>
    8c30:	00008067          	ret
    8c34:	00052503          	lw	a0,0(a0)
    8c38:	02050c63          	beqz	a0,8c70 <core_list_find+0x4c>
    8c3c:	00452783          	lw	a5,4(a0)
    8c40:	00279783          	lh	a5,2(a5)
    8c44:	fee798e3          	bne	a5,a4,8c34 <core_list_find+0x10>
    8c48:	00008067          	ret
    8c4c:	02050263          	beqz	a0,8c70 <core_list_find+0x4c>
    8c50:	00059703          	lh	a4,0(a1)
    8c54:	00c0006f          	j	8c60 <core_list_find+0x3c>
    8c58:	00052503          	lw	a0,0(a0)
    8c5c:	00050c63          	beqz	a0,8c74 <core_list_find+0x50>
    8c60:	00452783          	lw	a5,4(a0)
    8c64:	0007c783          	lbu	a5,0(a5)
    8c68:	fee798e3          	bne	a5,a4,8c58 <core_list_find+0x34>
    8c6c:	00008067          	ret
    8c70:	00000513          	li	a0,0
    8c74:	00008067          	ret

00008c78 <core_list_reverse>:
    8c78:	02050063          	beqz	a0,8c98 <core_list_reverse+0x20>
    8c7c:	00000713          	li	a4,0
    8c80:	0080006f          	j	8c88 <core_list_reverse+0x10>
    8c84:	00078513          	mv	a0,a5
    8c88:	00052783          	lw	a5,0(a0)
    8c8c:	00e52023          	sw	a4,0(a0)
    8c90:	00050713          	mv	a4,a0
    8c94:	fe0798e3          	bnez	a5,8c84 <core_list_reverse+0xc>
    8c98:	00008067          	ret

00008c9c <core_list_mergesort>:
    8c9c:	fd010113          	add	sp,sp,-48
    8ca0:	01312e23          	sw	s3,28(sp)
    8ca4:	01512a23          	sw	s5,20(sp)
    8ca8:	01712623          	sw	s7,12(sp)
    8cac:	01812423          	sw	s8,8(sp)
    8cb0:	01a12023          	sw	s10,0(sp)
    8cb4:	02112623          	sw	ra,44(sp)
    8cb8:	02812423          	sw	s0,40(sp)
    8cbc:	02912223          	sw	s1,36(sp)
    8cc0:	03212023          	sw	s2,32(sp)
    8cc4:	01412c23          	sw	s4,24(sp)
    8cc8:	01612823          	sw	s6,16(sp)
    8ccc:	01912223          	sw	s9,4(sp)
    8cd0:	00050993          	mv	s3,a0
    8cd4:	00058c13          	mv	s8,a1
    8cd8:	00060b93          	mv	s7,a2
    8cdc:	00100a93          	li	s5,1
    8ce0:	00100d13          	li	s10,1
    8ce4:	0c098263          	beqz	s3,8da8 <core_list_mergesort+0x10c>
    8ce8:	00000c93          	li	s9,0
    8cec:	00000493          	li	s1,0
    8cf0:	00000b13          	li	s6,0
    8cf4:	001c8c93          	add	s9,s9,1
    8cf8:	00098793          	mv	a5,s3
    8cfc:	00000413          	li	s0,0
    8d00:	01545863          	bge	s0,s5,8d10 <core_list_mergesort+0x74>
    8d04:	0007a783          	lw	a5,0(a5)
    8d08:	00140413          	add	s0,s0,1
    8d0c:	fe079ae3          	bnez	a5,8d00 <core_list_mergesort+0x64>
    8d10:	00098913          	mv	s2,s3
    8d14:	000a8a13          	mv	s4,s5
    8d18:	00078993          	mv	s3,a5
    8d1c:	02805263          	blez	s0,8d40 <core_list_mergesort+0xa4>
    8d20:	040a1463          	bnez	s4,8d68 <core_list_mergesort+0xcc>
    8d24:	00090793          	mv	a5,s2
    8d28:	00092903          	lw	s2,0(s2)
    8d2c:	fff40413          	add	s0,s0,-1
    8d30:	02048663          	beqz	s1,8d5c <core_list_mergesort+0xc0>
    8d34:	00f4a023          	sw	a5,0(s1)
    8d38:	00078493          	mv	s1,a5
    8d3c:	fe8042e3          	bgtz	s0,8d20 <core_list_mergesort+0x84>
    8d40:	05405863          	blez	s4,8d90 <core_list_mergesort+0xf4>
    8d44:	04098863          	beqz	s3,8d94 <core_list_mergesort+0xf8>
    8d48:	02041263          	bnez	s0,8d6c <core_list_mergesort+0xd0>
    8d4c:	00098793          	mv	a5,s3
    8d50:	fffa0a13          	add	s4,s4,-1
    8d54:	0009a983          	lw	s3,0(s3)
    8d58:	fc049ee3          	bnez	s1,8d34 <core_list_mergesort+0x98>
    8d5c:	00078b13          	mv	s6,a5
    8d60:	00078493          	mv	s1,a5
    8d64:	fd9ff06f          	j	8d3c <core_list_mergesort+0xa0>
    8d68:	fa098ee3          	beqz	s3,8d24 <core_list_mergesort+0x88>
    8d6c:	0049a583          	lw	a1,4(s3)
    8d70:	00492503          	lw	a0,4(s2)
    8d74:	000b8613          	mv	a2,s7
    8d78:	000c00e7          	jalr	s8
    8d7c:	faa054e3          	blez	a0,8d24 <core_list_mergesort+0x88>
    8d80:	00098793          	mv	a5,s3
    8d84:	fffa0a13          	add	s4,s4,-1
    8d88:	0009a983          	lw	s3,0(s3)
    8d8c:	fa5ff06f          	j	8d30 <core_list_mergesort+0x94>
    8d90:	f60992e3          	bnez	s3,8cf4 <core_list_mergesort+0x58>
    8d94:	0004a023          	sw	zero,0(s1)
    8d98:	01ac8c63          	beq	s9,s10,8db0 <core_list_mergesort+0x114>
    8d9c:	000b0993          	mv	s3,s6
    8da0:	001a9a93          	sll	s5,s5,0x1
    8da4:	f40992e3          	bnez	s3,8ce8 <core_list_mergesort+0x4c>
    8da8:	00002023          	sw	zero,0(zero) # 0 <_start-0x8000>
    8dac:	00100073          	ebreak
    8db0:	02c12083          	lw	ra,44(sp)
    8db4:	02812403          	lw	s0,40(sp)
    8db8:	02412483          	lw	s1,36(sp)
    8dbc:	02012903          	lw	s2,32(sp)
    8dc0:	01c12983          	lw	s3,28(sp)
    8dc4:	01812a03          	lw	s4,24(sp)
    8dc8:	01412a83          	lw	s5,20(sp)
    8dcc:	00c12b83          	lw	s7,12(sp)
    8dd0:	00812c03          	lw	s8,8(sp)
    8dd4:	00412c83          	lw	s9,4(sp)
    8dd8:	00012d03          	lw	s10,0(sp)
    8ddc:	000b0513          	mv	a0,s6
    8de0:	01012b03          	lw	s6,16(sp)
    8de4:	03010113          	add	sp,sp,48
    8de8:	00008067          	ret

00008dec <iterate>:
    8dec:	ff010113          	add	sp,sp,-16
    8df0:	01212023          	sw	s2,0(sp)
    8df4:	01c52903          	lw	s2,28(a0)
    8df8:	00112623          	sw	ra,12(sp)
    8dfc:	02052c23          	sw	zero,56(a0)
    8e00:	02052e23          	sw	zero,60(a0)
    8e04:	04090c63          	beqz	s2,8e5c <iterate+0x70>
    8e08:	00812423          	sw	s0,8(sp)
    8e0c:	00912223          	sw	s1,4(sp)
    8e10:	00050413          	mv	s0,a0
    8e14:	00000493          	li	s1,0
    8e18:	00100593          	li	a1,1
    8e1c:	00040513          	mv	a0,s0
    8e20:	df8ff0ef          	jal	8418 <core_bench_list>
    8e24:	03845583          	lhu	a1,56(s0)
    8e28:	304010ef          	jal	a12c <crcu16>
    8e2c:	02a41c23          	sh	a0,56(s0)
    8e30:	fff00593          	li	a1,-1
    8e34:	00040513          	mv	a0,s0
    8e38:	de0ff0ef          	jal	8418 <core_bench_list>
    8e3c:	03845583          	lhu	a1,56(s0)
    8e40:	2ec010ef          	jal	a12c <crcu16>
    8e44:	02a41c23          	sh	a0,56(s0)
    8e48:	02048463          	beqz	s1,8e70 <iterate+0x84>
    8e4c:	00148493          	add	s1,s1,1
    8e50:	fc9914e3          	bne	s2,s1,8e18 <iterate+0x2c>
    8e54:	00812403          	lw	s0,8(sp)
    8e58:	00412483          	lw	s1,4(sp)
    8e5c:	00c12083          	lw	ra,12(sp)
    8e60:	00012903          	lw	s2,0(sp)
    8e64:	00000513          	li	a0,0
    8e68:	01010113          	add	sp,sp,16
    8e6c:	00008067          	ret
    8e70:	02a41d23          	sh	a0,58(s0)
    8e74:	00100793          	li	a5,1
    8e78:	fcf90ee3          	beq	s2,a5,8e54 <iterate+0x68>
    8e7c:	00100493          	li	s1,1
    8e80:	f99ff06f          	j	8e18 <iterate+0x2c>

00008e84 <matrix_test>:
    8e84:	fd010113          	add	sp,sp,-48
    8e88:	02112623          	sw	ra,44(sp)
    8e8c:	4a050463          	beqz	a0,9334 <matrix_test+0x4b0>
    8e90:	02912223          	sw	s1,36(sp)
    8e94:	00151493          	sll	s1,a0,0x1
    8e98:	01312e23          	sw	s3,28(sp)
    8e9c:	01412c23          	sw	s4,24(sp)
    8ea0:	01712623          	sw	s7,12(sp)
    8ea4:	40a00a33          	neg	s4,a0
    8ea8:	00060b93          	mv	s7,a2
    8eac:	01071993          	sll	s3,a4,0x10
    8eb0:	00960633          	add	a2,a2,s1
    8eb4:	03212023          	sw	s2,32(sp)
    8eb8:	01512a23          	sw	s5,20(sp)
    8ebc:	01612823          	sw	s6,16(sp)
    8ec0:	02812423          	sw	s0,40(sp)
    8ec4:	00068b13          	mv	s6,a3
    8ec8:	01812423          	sw	s8,8(sp)
    8ecc:	00050893          	mv	a7,a0
    8ed0:	00058a93          	mv	s5,a1
    8ed4:	00070913          	mv	s2,a4
    8ed8:	0109d993          	srl	s3,s3,0x10
    8edc:	00060693          	mv	a3,a2
    8ee0:	00000813          	li	a6,0
    8ee4:	002a1a13          	sll	s4,s4,0x2
    8ee8:	409685b3          	sub	a1,a3,s1
    8eec:	00058793          	mv	a5,a1
    8ef0:	0007d703          	lhu	a4,0(a5)
    8ef4:	00278793          	add	a5,a5,2
    8ef8:	00e98733          	add	a4,s3,a4
    8efc:	fee79f23          	sh	a4,-2(a5)
    8f00:	fed798e3          	bne	a5,a3,8ef0 <matrix_test+0x6c>
    8f04:	00180413          	add	s0,a6,1
    8f08:	414586b3          	sub	a3,a1,s4
    8f0c:	00888663          	beq	a7,s0,8f18 <matrix_test+0x94>
    8f10:	00040813          	mv	a6,s0
    8f14:	fd5ff06f          	j	8ee8 <matrix_test+0x64>
    8f18:	00000593          	li	a1,0
    8f1c:	00000893          	li	a7,0
    8f20:	40960533          	sub	a0,a2,s1
    8f24:	00259693          	sll	a3,a1,0x2
    8f28:	015686b3          	add	a3,a3,s5
    8f2c:	00050793          	mv	a5,a0
    8f30:	00079703          	lh	a4,0(a5)
    8f34:	00468693          	add	a3,a3,4
    8f38:	00278793          	add	a5,a5,2
    8f3c:	03270733          	mul	a4,a4,s2
    8f40:	fee6ae23          	sw	a4,-4(a3)
    8f44:	fef616e3          	bne	a2,a5,8f30 <matrix_test+0xac>
    8f48:	00188793          	add	a5,a7,1
    8f4c:	008585b3          	add	a1,a1,s0
    8f50:	41450633          	sub	a2,a0,s4
    8f54:	01088663          	beq	a7,a6,8f60 <matrix_test+0xdc>
    8f58:	00078893          	mv	a7,a5
    8f5c:	fc5ff06f          	j	8f20 <matrix_test+0x9c>
    8f60:	414a8c33          	sub	s8,s5,s4
    8f64:	40800eb3          	neg	t4,s0
    8f68:	fffff7b7          	lui	a5,0xfffff
    8f6c:	00f96933          	or	s2,s2,a5
    8f70:	000c0893          	mv	a7,s8
    8f74:	00000513          	li	a0,0
    8f78:	00000713          	li	a4,0
    8f7c:	00000613          	li	a2,0
    8f80:	00000e13          	li	t3,0
    8f84:	003e9e93          	sll	t4,t4,0x3
    8f88:	01488333          	add	t1,a7,s4
    8f8c:	00030793          	mv	a5,t1
    8f90:	0140006f          	j	8fa4 <matrix_test+0x120>
    8f94:	01051513          	sll	a0,a0,0x10
    8f98:	00478793          	add	a5,a5,4 # fffff004 <stack_top+0xfffdf004>
    8f9c:	41055513          	sra	a0,a0,0x10
    8fa0:	02f88e63          	beq	a7,a5,8fdc <matrix_test+0x158>
    8fa4:	00070693          	mv	a3,a4
    8fa8:	0007a703          	lw	a4,0(a5)
    8fac:	01051513          	sll	a0,a0,0x10
    8fb0:	01055513          	srl	a0,a0,0x10
    8fb4:	00e6a6b3          	slt	a3,a3,a4
    8fb8:	00e60633          	add	a2,a2,a4
    8fbc:	00a50593          	add	a1,a0,10
    8fc0:	00d50533          	add	a0,a0,a3
    8fc4:	fcc958e3          	bge	s2,a2,8f94 <matrix_test+0x110>
    8fc8:	01059513          	sll	a0,a1,0x10
    8fcc:	00478793          	add	a5,a5,4
    8fd0:	41055513          	sra	a0,a0,0x10
    8fd4:	00000613          	li	a2,0
    8fd8:	fcf896e3          	bne	a7,a5,8fa4 <matrix_test+0x120>
    8fdc:	001e0793          	add	a5,t3,1
    8fe0:	41d308b3          	sub	a7,t1,t4
    8fe4:	01c80663          	beq	a6,t3,8ff0 <matrix_test+0x16c>
    8fe8:	00078e13          	mv	t3,a5
    8fec:	f9dff06f          	j	8f88 <matrix_test+0x104>
    8ff0:	00000593          	li	a1,0
    8ff4:	01d010ef          	jal	a810 <crc16>
    8ff8:	00050593          	mv	a1,a0
    8ffc:	009b0833          	add	a6,s6,s1
    9000:	000a8893          	mv	a7,s5
    9004:	00000313          	li	t1,0
    9008:	00131693          	sll	a3,t1,0x1
    900c:	00db86b3          	add	a3,s7,a3
    9010:	000b0793          	mv	a5,s6
    9014:	00000613          	li	a2,0
    9018:	00069703          	lh	a4,0(a3)
    901c:	00079503          	lh	a0,0(a5)
    9020:	00278793          	add	a5,a5,2
    9024:	00268693          	add	a3,a3,2
    9028:	02a70733          	mul	a4,a4,a0
    902c:	00e60633          	add	a2,a2,a4
    9030:	ff0794e3          	bne	a5,a6,9018 <matrix_test+0x194>
    9034:	00c8a023          	sw	a2,0(a7)
    9038:	00488893          	add	a7,a7,4
    903c:	00830333          	add	t1,t1,s0
    9040:	fd8894e3          	bne	a7,s8,9008 <matrix_test+0x184>
    9044:	00000313          	li	t1,0
    9048:	00000513          	li	a0,0
    904c:	00000793          	li	a5,0
    9050:	00000693          	li	a3,0
    9054:	00000e13          	li	t3,0
    9058:	00231613          	sll	a2,t1,0x2
    905c:	00ca8633          	add	a2,s5,a2
    9060:	00000813          	li	a6,0
    9064:	0180006f          	j	907c <matrix_test+0x1f8>
    9068:	01051513          	sll	a0,a0,0x10
    906c:	00180813          	add	a6,a6,1
    9070:	41055513          	sra	a0,a0,0x10
    9074:	00460613          	add	a2,a2,4
    9078:	04887063          	bgeu	a6,s0,90b8 <matrix_test+0x234>
    907c:	00078713          	mv	a4,a5
    9080:	00062783          	lw	a5,0(a2)
    9084:	01051513          	sll	a0,a0,0x10
    9088:	01055513          	srl	a0,a0,0x10
    908c:	00f72733          	slt	a4,a4,a5
    9090:	00f686b3          	add	a3,a3,a5
    9094:	00a50893          	add	a7,a0,10
    9098:	00e50533          	add	a0,a0,a4
    909c:	fcd956e3          	bge	s2,a3,9068 <matrix_test+0x1e4>
    90a0:	01089513          	sll	a0,a7,0x10
    90a4:	00180813          	add	a6,a6,1
    90a8:	41055513          	sra	a0,a0,0x10
    90ac:	00000693          	li	a3,0
    90b0:	00460613          	add	a2,a2,4
    90b4:	fc8864e3          	bltu	a6,s0,907c <matrix_test+0x1f8>
    90b8:	001e0e13          	add	t3,t3,1
    90bc:	00830333          	add	t1,t1,s0
    90c0:	f88e6ce3          	bltu	t3,s0,9058 <matrix_test+0x1d4>
    90c4:	74c010ef          	jal	a810 <crc16>
    90c8:	00050593          	mv	a1,a0
    90cc:	000a8f13          	mv	t5,s5
    90d0:	000b8e93          	mv	t4,s7
    90d4:	00000f93          	li	t6,0
    90d8:	000b0893          	mv	a7,s6
    90dc:	000f0e13          	mv	t3,t5
    90e0:	00000313          	li	t1,0
    90e4:	00088613          	mv	a2,a7
    90e8:	000e8693          	mv	a3,t4
    90ec:	00000513          	li	a0,0
    90f0:	00000713          	li	a4,0
    90f4:	00069783          	lh	a5,0(a3)
    90f8:	00061803          	lh	a6,0(a2)
    90fc:	00170713          	add	a4,a4,1
    9100:	00268693          	add	a3,a3,2
    9104:	030787b3          	mul	a5,a5,a6
    9108:	00960633          	add	a2,a2,s1
    910c:	00f50533          	add	a0,a0,a5
    9110:	fe8762e3          	bltu	a4,s0,90f4 <matrix_test+0x270>
    9114:	00ae2023          	sw	a0,0(t3)
    9118:	00130313          	add	t1,t1,1
    911c:	004e0e13          	add	t3,t3,4
    9120:	00288893          	add	a7,a7,2
    9124:	fc8360e3          	bltu	t1,s0,90e4 <matrix_test+0x260>
    9128:	001f8f93          	add	t6,t6,1
    912c:	009e8eb3          	add	t4,t4,s1
    9130:	414f0f33          	sub	t5,t5,s4
    9134:	fa8fe2e3          	bltu	t6,s0,90d8 <matrix_test+0x254>
    9138:	00000313          	li	t1,0
    913c:	00000513          	li	a0,0
    9140:	00000793          	li	a5,0
    9144:	00000693          	li	a3,0
    9148:	00000e13          	li	t3,0
    914c:	00231613          	sll	a2,t1,0x2
    9150:	00ca8633          	add	a2,s5,a2
    9154:	00000813          	li	a6,0
    9158:	0180006f          	j	9170 <matrix_test+0x2ec>
    915c:	01051513          	sll	a0,a0,0x10
    9160:	00180813          	add	a6,a6,1
    9164:	41055513          	sra	a0,a0,0x10
    9168:	00460613          	add	a2,a2,4
    916c:	04887063          	bgeu	a6,s0,91ac <matrix_test+0x328>
    9170:	00078713          	mv	a4,a5
    9174:	00062783          	lw	a5,0(a2)
    9178:	01051513          	sll	a0,a0,0x10
    917c:	01055513          	srl	a0,a0,0x10
    9180:	00f72733          	slt	a4,a4,a5
    9184:	00f686b3          	add	a3,a3,a5
    9188:	00a50893          	add	a7,a0,10
    918c:	00e50533          	add	a0,a0,a4
    9190:	fcd956e3          	bge	s2,a3,915c <matrix_test+0x2d8>
    9194:	01089513          	sll	a0,a7,0x10
    9198:	00180813          	add	a6,a6,1
    919c:	41055513          	sra	a0,a0,0x10
    91a0:	00000693          	li	a3,0
    91a4:	00460613          	add	a2,a2,4
    91a8:	fc8864e3          	bltu	a6,s0,9170 <matrix_test+0x2ec>
    91ac:	001e0e13          	add	t3,t3,1
    91b0:	00830333          	add	t1,t1,s0
    91b4:	f88e6ce3          	bltu	t3,s0,914c <matrix_test+0x2c8>
    91b8:	658010ef          	jal	a810 <crc16>
    91bc:	00050593          	mv	a1,a0
    91c0:	000a8f13          	mv	t5,s5
    91c4:	000b8e93          	mv	t4,s7
    91c8:	00000f93          	li	t6,0
    91cc:	000b0893          	mv	a7,s6
    91d0:	000f0e13          	mv	t3,t5
    91d4:	00000313          	li	t1,0
    91d8:	00088513          	mv	a0,a7
    91dc:	000e8613          	mv	a2,t4
    91e0:	00000813          	li	a6,0
    91e4:	00000693          	li	a3,0
    91e8:	00051703          	lh	a4,0(a0)
    91ec:	00061783          	lh	a5,0(a2)
    91f0:	00168693          	add	a3,a3,1
    91f4:	00260613          	add	a2,a2,2
    91f8:	02e787b3          	mul	a5,a5,a4
    91fc:	00950533          	add	a0,a0,s1
    9200:	4027d713          	sra	a4,a5,0x2
    9204:	4057d793          	sra	a5,a5,0x5
    9208:	00f77713          	and	a4,a4,15
    920c:	07f7f793          	and	a5,a5,127
    9210:	02f707b3          	mul	a5,a4,a5
    9214:	00f80833          	add	a6,a6,a5
    9218:	fc86e8e3          	bltu	a3,s0,91e8 <matrix_test+0x364>
    921c:	010e2023          	sw	a6,0(t3)
    9220:	00130313          	add	t1,t1,1
    9224:	004e0e13          	add	t3,t3,4
    9228:	00288893          	add	a7,a7,2
    922c:	fa8366e3          	bltu	t1,s0,91d8 <matrix_test+0x354>
    9230:	001f8f93          	add	t6,t6,1
    9234:	009e8eb3          	add	t4,t4,s1
    9238:	414f0f33          	sub	t5,t5,s4
    923c:	f88fe8e3          	bltu	t6,s0,91cc <matrix_test+0x348>
    9240:	00000313          	li	t1,0
    9244:	00000513          	li	a0,0
    9248:	00000793          	li	a5,0
    924c:	00000693          	li	a3,0
    9250:	00000e13          	li	t3,0
    9254:	00231613          	sll	a2,t1,0x2
    9258:	00ca8633          	add	a2,s5,a2
    925c:	00000813          	li	a6,0
    9260:	0180006f          	j	9278 <matrix_test+0x3f4>
    9264:	01051513          	sll	a0,a0,0x10
    9268:	00180813          	add	a6,a6,1
    926c:	41055513          	sra	a0,a0,0x10
    9270:	00460613          	add	a2,a2,4
    9274:	04887063          	bgeu	a6,s0,92b4 <matrix_test+0x430>
    9278:	00078713          	mv	a4,a5
    927c:	00062783          	lw	a5,0(a2)
    9280:	01051513          	sll	a0,a0,0x10
    9284:	01055513          	srl	a0,a0,0x10
    9288:	00f72733          	slt	a4,a4,a5
    928c:	00f686b3          	add	a3,a3,a5
    9290:	00a50893          	add	a7,a0,10
    9294:	00e50533          	add	a0,a0,a4
    9298:	fcd956e3          	bge	s2,a3,9264 <matrix_test+0x3e0>
    929c:	01089513          	sll	a0,a7,0x10
    92a0:	00180813          	add	a6,a6,1
    92a4:	41055513          	sra	a0,a0,0x10
    92a8:	00000693          	li	a3,0
    92ac:	00460613          	add	a2,a2,4
    92b0:	fc8864e3          	bltu	a6,s0,9278 <matrix_test+0x3f4>
    92b4:	001e0e13          	add	t3,t3,1
    92b8:	00830333          	add	t1,t1,s0
    92bc:	f88e6ce3          	bltu	t3,s0,9254 <matrix_test+0x3d0>
    92c0:	550010ef          	jal	a810 <crc16>
    92c4:	00000613          	li	a2,0
    92c8:	00000593          	li	a1,0
    92cc:	00161793          	sll	a5,a2,0x1
    92d0:	00fb87b3          	add	a5,s7,a5
    92d4:	00000693          	li	a3,0
    92d8:	0007d703          	lhu	a4,0(a5)
    92dc:	00278793          	add	a5,a5,2
    92e0:	00168693          	add	a3,a3,1
    92e4:	41370733          	sub	a4,a4,s3
    92e8:	fee79f23          	sh	a4,-2(a5)
    92ec:	fe86e6e3          	bltu	a3,s0,92d8 <matrix_test+0x454>
    92f0:	00158593          	add	a1,a1,1
    92f4:	00860633          	add	a2,a2,s0
    92f8:	fc85eae3          	bltu	a1,s0,92cc <matrix_test+0x448>
    92fc:	02812403          	lw	s0,40(sp)
    9300:	02c12083          	lw	ra,44(sp)
    9304:	01051513          	sll	a0,a0,0x10
    9308:	02412483          	lw	s1,36(sp)
    930c:	02012903          	lw	s2,32(sp)
    9310:	01c12983          	lw	s3,28(sp)
    9314:	01812a03          	lw	s4,24(sp)
    9318:	01412a83          	lw	s5,20(sp)
    931c:	01012b03          	lw	s6,16(sp)
    9320:	00c12b83          	lw	s7,12(sp)
    9324:	00812c03          	lw	s8,8(sp)
    9328:	41055513          	sra	a0,a0,0x10
    932c:	03010113          	add	sp,sp,48
    9330:	00008067          	ret
    9334:	00000593          	li	a1,0
    9338:	4d8010ef          	jal	a810 <crc16>
    933c:	00050593          	mv	a1,a0
    9340:	00000513          	li	a0,0
    9344:	4cc010ef          	jal	a810 <crc16>
    9348:	00050593          	mv	a1,a0
    934c:	00000513          	li	a0,0
    9350:	4c0010ef          	jal	a810 <crc16>
    9354:	00050593          	mv	a1,a0
    9358:	00000513          	li	a0,0
    935c:	4b4010ef          	jal	a810 <crc16>
    9360:	02c12083          	lw	ra,44(sp)
    9364:	01051513          	sll	a0,a0,0x10
    9368:	41055513          	sra	a0,a0,0x10
    936c:	03010113          	add	sp,sp,48
    9370:	00008067          	ret

00009374 <core_bench_matrix>:
    9374:	ff010113          	add	sp,sp,-16
    9378:	00812423          	sw	s0,8(sp)
    937c:	00852683          	lw	a3,8(a0)
    9380:	00060413          	mv	s0,a2
    9384:	00058713          	mv	a4,a1
    9388:	00452603          	lw	a2,4(a0)
    938c:	00c52583          	lw	a1,12(a0)
    9390:	00052503          	lw	a0,0(a0)
    9394:	00112623          	sw	ra,12(sp)
    9398:	aedff0ef          	jal	8e84 <matrix_test>
    939c:	00040593          	mv	a1,s0
    93a0:	00812403          	lw	s0,8(sp)
    93a4:	00c12083          	lw	ra,12(sp)
    93a8:	01010113          	add	sp,sp,16
    93ac:	4640106f          	j	a810 <crc16>

000093b0 <core_init_matrix>:
    93b0:	ff010113          	add	sp,sp,-16
    93b4:	00912423          	sw	s1,8(sp)
    93b8:	01212223          	sw	s2,4(sp)
    93bc:	00050813          	mv	a6,a0
    93c0:	00061463          	bnez	a2,93c8 <core_init_matrix+0x18>
    93c4:	00100613          	li	a2,1
    93c8:	00000793          	li	a5,0
    93cc:	10080663          	beqz	a6,94d8 <core_init_matrix+0x128>
    93d0:	00078513          	mv	a0,a5
    93d4:	00178793          	add	a5,a5,1
    93d8:	02f78733          	mul	a4,a5,a5
    93dc:	00371713          	sll	a4,a4,0x3
    93e0:	ff0768e3          	bltu	a4,a6,93d0 <core_init_matrix+0x20>
    93e4:	02a502b3          	mul	t0,a0,a0
    93e8:	fff58593          	add	a1,a1,-1
    93ec:	ffc5f793          	and	a5,a1,-4
    93f0:	00478493          	add	s1,a5,4
    93f4:	00050913          	mv	s2,a0
    93f8:	00048e13          	mv	t3,s1
    93fc:	00129293          	sll	t0,t0,0x1
    9400:	005483b3          	add	t2,s1,t0
    9404:	0c050663          	beqz	a0,94d0 <core_init_matrix+0x120>
    9408:	00812623          	sw	s0,12(sp)
    940c:	01312023          	sw	s3,0(sp)
    9410:	00010eb7          	lui	t4,0x10
    9414:	00150313          	add	t1,a0,1
    9418:	00151413          	sll	s0,a0,0x1
    941c:	00038f13          	mv	t5,t2
    9420:	00000f93          	li	t6,0
    9424:	00100713          	li	a4,1
    9428:	407e0e33          	sub	t3,t3,t2
    942c:	fffe8e93          	add	t4,t4,-1 # ffff <main+0x3a57>
    9430:	00070993          	mv	s3,a4
    9434:	000f0813          	mv	a6,t5
    9438:	02e60633          	mul	a2,a2,a4
    943c:	01071793          	sll	a5,a4,0x10
    9440:	0107d793          	srl	a5,a5,0x10
    9444:	010e08b3          	add	a7,t3,a6
    9448:	00280813          	add	a6,a6,2
    944c:	00170713          	add	a4,a4,1
    9450:	41f65593          	sra	a1,a2,0x1f
    9454:	0105d593          	srl	a1,a1,0x10
    9458:	00b60633          	add	a2,a2,a1
    945c:	01d67633          	and	a2,a2,t4
    9460:	40b60633          	sub	a2,a2,a1
    9464:	00c785b3          	add	a1,a5,a2
    9468:	01059593          	sll	a1,a1,0x10
    946c:	0105d593          	srl	a1,a1,0x10
    9470:	00f587b3          	add	a5,a1,a5
    9474:	feb81f23          	sh	a1,-2(a6)
    9478:	0ff7f793          	zext.b	a5,a5
    947c:	00f89023          	sh	a5,0(a7)
    9480:	fa671ce3          	bne	a4,t1,9438 <core_init_matrix+0x88>
    9484:	001f8f93          	add	t6,t6,1
    9488:	01350733          	add	a4,a0,s3
    948c:	00a30333          	add	t1,t1,a0
    9490:	008f0f33          	add	t5,t5,s0
    9494:	f9f51ee3          	bne	a0,t6,9430 <core_init_matrix+0x80>
    9498:	00c12403          	lw	s0,12(sp)
    949c:	00012983          	lw	s3,0(sp)
    94a0:	005387b3          	add	a5,t2,t0
    94a4:	fff78793          	add	a5,a5,-1
    94a8:	ffc7f793          	and	a5,a5,-4
    94ac:	00478793          	add	a5,a5,4
    94b0:	0096a223          	sw	s1,4(a3)
    94b4:	0126a023          	sw	s2,0(a3)
    94b8:	0076a423          	sw	t2,8(a3)
    94bc:	00f6a623          	sw	a5,12(a3)
    94c0:	00812483          	lw	s1,8(sp)
    94c4:	00412903          	lw	s2,4(sp)
    94c8:	01010113          	add	sp,sp,16
    94cc:	00008067          	ret
    94d0:	00000293          	li	t0,0
    94d4:	fcdff06f          	j	94a0 <core_init_matrix+0xf0>
    94d8:	fff58593          	add	a1,a1,-1
    94dc:	ffc5f393          	and	t2,a1,-4
    94e0:	00438e13          	add	t3,t2,4
    94e4:	00812623          	sw	s0,12(sp)
    94e8:	01312023          	sw	s3,0(sp)
    94ec:	000e0493          	mv	s1,t3
    94f0:	00638393          	add	t2,t2,6
    94f4:	fff00913          	li	s2,-1
    94f8:	00200293          	li	t0,2
    94fc:	fff00513          	li	a0,-1
    9500:	f11ff06f          	j	9410 <core_init_matrix+0x60>

00009504 <matrix_sum>:
    9504:	00050e93          	mv	t4,a0
    9508:	08050463          	beqz	a0,9590 <matrix_sum+0x8c>
    950c:	00251f93          	sll	t6,a0,0x2
    9510:	40a00f33          	neg	t5,a0
    9514:	01f588b3          	add	a7,a1,t6
    9518:	00000e13          	li	t3,0
    951c:	00000513          	li	a0,0
    9520:	00000713          	li	a4,0
    9524:	00000593          	li	a1,0
    9528:	003f1f13          	sll	t5,t5,0x3
    952c:	41f88333          	sub	t1,a7,t6
    9530:	00030793          	mv	a5,t1
    9534:	0140006f          	j	9548 <matrix_sum+0x44>
    9538:	01051513          	sll	a0,a0,0x10
    953c:	00478793          	add	a5,a5,4
    9540:	41055513          	sra	a0,a0,0x10
    9544:	02f88e63          	beq	a7,a5,9580 <matrix_sum+0x7c>
    9548:	00070693          	mv	a3,a4
    954c:	0007a703          	lw	a4,0(a5)
    9550:	01051513          	sll	a0,a0,0x10
    9554:	01055513          	srl	a0,a0,0x10
    9558:	00e6a6b3          	slt	a3,a3,a4
    955c:	00e585b3          	add	a1,a1,a4
    9560:	00a50813          	add	a6,a0,10
    9564:	00d50533          	add	a0,a0,a3
    9568:	fcb658e3          	bge	a2,a1,9538 <matrix_sum+0x34>
    956c:	01081513          	sll	a0,a6,0x10
    9570:	00478793          	add	a5,a5,4
    9574:	41055513          	sra	a0,a0,0x10
    9578:	00000593          	li	a1,0
    957c:	fcf896e3          	bne	a7,a5,9548 <matrix_sum+0x44>
    9580:	001e0e13          	add	t3,t3,1
    9584:	41e308b3          	sub	a7,t1,t5
    9588:	fbce92e3          	bne	t4,t3,952c <matrix_sum+0x28>
    958c:	00008067          	ret
    9590:	00000513          	li	a0,0
    9594:	00008067          	ret

00009598 <matrix_mul_const>:
    9598:	04050a63          	beqz	a0,95ec <matrix_mul_const+0x54>
    959c:	00151f13          	sll	t5,a0,0x1
    95a0:	40a00eb3          	neg	t4,a0
    95a4:	01e60833          	add	a6,a2,t5
    95a8:	00000313          	li	t1,0
    95ac:	00000e13          	li	t3,0
    95b0:	002e9e93          	sll	t4,t4,0x2
    95b4:	41e808b3          	sub	a7,a6,t5
    95b8:	00231613          	sll	a2,t1,0x2
    95bc:	00c58633          	add	a2,a1,a2
    95c0:	00088793          	mv	a5,a7
    95c4:	00079703          	lh	a4,0(a5)
    95c8:	00460613          	add	a2,a2,4
    95cc:	00278793          	add	a5,a5,2
    95d0:	02d70733          	mul	a4,a4,a3
    95d4:	fee62e23          	sw	a4,-4(a2)
    95d8:	fef816e3          	bne	a6,a5,95c4 <matrix_mul_const+0x2c>
    95dc:	001e0e13          	add	t3,t3,1
    95e0:	00a30333          	add	t1,t1,a0
    95e4:	41d88833          	sub	a6,a7,t4
    95e8:	fdc516e3          	bne	a0,t3,95b4 <matrix_mul_const+0x1c>
    95ec:	00008067          	ret

000095f0 <matrix_add_const>:
    95f0:	04050463          	beqz	a0,9638 <matrix_add_const+0x48>
    95f4:	00151313          	sll	t1,a0,0x1
    95f8:	40a008b3          	neg	a7,a0
    95fc:	01061613          	sll	a2,a2,0x10
    9600:	01065613          	srl	a2,a2,0x10
    9604:	006586b3          	add	a3,a1,t1
    9608:	00000813          	li	a6,0
    960c:	00289893          	sll	a7,a7,0x2
    9610:	406685b3          	sub	a1,a3,t1
    9614:	00058793          	mv	a5,a1
    9618:	0007d703          	lhu	a4,0(a5)
    961c:	00278793          	add	a5,a5,2
    9620:	00e60733          	add	a4,a2,a4
    9624:	fee79f23          	sh	a4,-2(a5)
    9628:	fef698e3          	bne	a3,a5,9618 <matrix_add_const+0x28>
    962c:	00180813          	add	a6,a6,1
    9630:	411586b3          	sub	a3,a1,a7
    9634:	fd051ee3          	bne	a0,a6,9610 <matrix_add_const+0x20>
    9638:	00008067          	ret

0000963c <matrix_mul_vect>:
    963c:	04050a63          	beqz	a0,9690 <matrix_mul_vect+0x54>
    9640:	00251f13          	sll	t5,a0,0x2
    9644:	00151e13          	sll	t3,a0,0x1
    9648:	01e58f33          	add	t5,a1,t5
    964c:	01c68e33          	add	t3,a3,t3
    9650:	00000e93          	li	t4,0
    9654:	001e9813          	sll	a6,t4,0x1
    9658:	01060833          	add	a6,a2,a6
    965c:	00068793          	mv	a5,a3
    9660:	00000893          	li	a7,0
    9664:	00081703          	lh	a4,0(a6)
    9668:	00079303          	lh	t1,0(a5)
    966c:	00278793          	add	a5,a5,2
    9670:	00280813          	add	a6,a6,2
    9674:	02670733          	mul	a4,a4,t1
    9678:	00e888b3          	add	a7,a7,a4
    967c:	fefe14e3          	bne	t3,a5,9664 <matrix_mul_vect+0x28>
    9680:	0115a023          	sw	a7,0(a1)
    9684:	00458593          	add	a1,a1,4
    9688:	00ae8eb3          	add	t4,t4,a0
    968c:	fcbf14e3          	bne	t5,a1,9654 <matrix_mul_vect+0x18>
    9690:	00008067          	ret

00009694 <matrix_mul_matrix>:
    9694:	0a050463          	beqz	a0,973c <matrix_mul_matrix+0xa8>
    9698:	ff010113          	add	sp,sp,-16
    969c:	00050f13          	mv	t5,a0
    96a0:	00151513          	sll	a0,a0,0x1
    96a4:	00812623          	sw	s0,12(sp)
    96a8:	00058393          	mv	t2,a1
    96ac:	00068413          	mv	s0,a3
    96b0:	00060e93          	mv	t4,a2
    96b4:	00a60833          	add	a6,a2,a0
    96b8:	00000f93          	li	t6,0
    96bc:	00000293          	li	t0,0
    96c0:	002f9893          	sll	a7,t6,0x2
    96c4:	011388b3          	add	a7,t2,a7
    96c8:	00040313          	mv	t1,s0
    96cc:	00000e13          	li	t3,0
    96d0:	00030693          	mv	a3,t1
    96d4:	000e8793          	mv	a5,t4
    96d8:	00000613          	li	a2,0
    96dc:	00079703          	lh	a4,0(a5)
    96e0:	00069583          	lh	a1,0(a3)
    96e4:	00278793          	add	a5,a5,2
    96e8:	00a686b3          	add	a3,a3,a0
    96ec:	02b70733          	mul	a4,a4,a1
    96f0:	00e60633          	add	a2,a2,a4
    96f4:	fef814e3          	bne	a6,a5,96dc <matrix_mul_matrix+0x48>
    96f8:	00c8a023          	sw	a2,0(a7)
    96fc:	001e0793          	add	a5,t3,1
    9700:	00488893          	add	a7,a7,4
    9704:	00230313          	add	t1,t1,2
    9708:	00ff0663          	beq	t5,a5,9714 <matrix_mul_matrix+0x80>
    970c:	00078e13          	mv	t3,a5
    9710:	fc1ff06f          	j	96d0 <matrix_mul_matrix+0x3c>
    9714:	00128793          	add	a5,t0,1
    9718:	00ae8eb3          	add	t4,t4,a0
    971c:	01ef8fb3          	add	t6,t6,t5
    9720:	00a80833          	add	a6,a6,a0
    9724:	01c28663          	beq	t0,t3,9730 <matrix_mul_matrix+0x9c>
    9728:	00078293          	mv	t0,a5
    972c:	f95ff06f          	j	96c0 <matrix_mul_matrix+0x2c>
    9730:	00c12403          	lw	s0,12(sp)
    9734:	01010113          	add	sp,sp,16
    9738:	00008067          	ret
    973c:	00008067          	ret

00009740 <matrix_mul_matrix_bitextract>:
    9740:	0a050e63          	beqz	a0,97fc <matrix_mul_matrix_bitextract+0xbc>
    9744:	ff010113          	add	sp,sp,-16
    9748:	00050f13          	mv	t5,a0
    974c:	00151513          	sll	a0,a0,0x1
    9750:	00812623          	sw	s0,12(sp)
    9754:	00058393          	mv	t2,a1
    9758:	00068413          	mv	s0,a3
    975c:	00060e93          	mv	t4,a2
    9760:	00a60833          	add	a6,a2,a0
    9764:	00000f93          	li	t6,0
    9768:	00000293          	li	t0,0
    976c:	002f9893          	sll	a7,t6,0x2
    9770:	011388b3          	add	a7,t2,a7
    9774:	00040313          	mv	t1,s0
    9778:	00000e13          	li	t3,0
    977c:	00030613          	mv	a2,t1
    9780:	000e8693          	mv	a3,t4
    9784:	00000593          	li	a1,0
    9788:	00061703          	lh	a4,0(a2)
    978c:	00069783          	lh	a5,0(a3)
    9790:	00268693          	add	a3,a3,2
    9794:	00a60633          	add	a2,a2,a0
    9798:	02e787b3          	mul	a5,a5,a4
    979c:	4027d713          	sra	a4,a5,0x2
    97a0:	4057d793          	sra	a5,a5,0x5
    97a4:	00f77713          	and	a4,a4,15
    97a8:	07f7f793          	and	a5,a5,127
    97ac:	02f707b3          	mul	a5,a4,a5
    97b0:	00f585b3          	add	a1,a1,a5
    97b4:	fcd81ae3          	bne	a6,a3,9788 <matrix_mul_matrix_bitextract+0x48>
    97b8:	00b8a023          	sw	a1,0(a7)
    97bc:	001e0793          	add	a5,t3,1
    97c0:	00488893          	add	a7,a7,4
    97c4:	00230313          	add	t1,t1,2
    97c8:	00ff0663          	beq	t5,a5,97d4 <matrix_mul_matrix_bitextract+0x94>
    97cc:	00078e13          	mv	t3,a5
    97d0:	fadff06f          	j	977c <matrix_mul_matrix_bitextract+0x3c>
    97d4:	00128793          	add	a5,t0,1
    97d8:	00ae8eb3          	add	t4,t4,a0
    97dc:	01ef8fb3          	add	t6,t6,t5
    97e0:	00a80833          	add	a6,a6,a0
    97e4:	01c28663          	beq	t0,t3,97f0 <matrix_mul_matrix_bitextract+0xb0>
    97e8:	00078293          	mv	t0,a5
    97ec:	f81ff06f          	j	976c <matrix_mul_matrix_bitextract+0x2c>
    97f0:	00c12403          	lw	s0,12(sp)
    97f4:	01010113          	add	sp,sp,16
    97f8:	00008067          	ret
    97fc:	00008067          	ret

00009800 <core_init_state>:
    9800:	fff50313          	add	t1,a0,-1
    9804:	00100793          	li	a5,1
    9808:	2667fc63          	bgeu	a5,t1,9a80 <core_init_state+0x280>
    980c:	00158593          	add	a1,a1,1
    9810:	01059713          	sll	a4,a1,0x10
    9814:	01075713          	srl	a4,a4,0x10
    9818:	000108b7          	lui	a7,0x10
    981c:	00375793          	srl	a5,a4,0x3
    9820:	00700e13          	li	t3,7
    9824:	00777693          	and	a3,a4,7
    9828:	00000593          	li	a1,0
    982c:	00088893          	mv	a7,a7
    9830:	00400e93          	li	t4,4
    9834:	00100f13          	li	t5,1
    9838:	02c00f93          	li	t6,44
    983c:	0037f793          	and	a5,a5,3
    9840:	09c68463          	beq	a3,t3,98c8 <core_init_state+0xc8>
    9844:	20dee263          	bltu	t4,a3,9a48 <core_init_state+0x248>
    9848:	ffd68693          	add	a3,a3,-3
    984c:	01069693          	sll	a3,a3,0x10
    9850:	00279793          	sll	a5,a5,0x2
    9854:	0106d693          	srl	a3,a3,0x10
    9858:	00f887b3          	add	a5,a7,a5
    985c:	16df6c63          	bltu	t5,a3,99d4 <core_init_state+0x1d4>
    9860:	0107a683          	lw	a3,16(a5)
    9864:	00170713          	add	a4,a4,1
    9868:	01071713          	sll	a4,a4,0x10
    986c:	00958293          	add	t0,a1,9
    9870:	01075713          	srl	a4,a4,0x10
    9874:	0662fa63          	bgeu	t0,t1,98e8 <core_init_state+0xe8>
    9878:	00b607b3          	add	a5,a2,a1
    987c:	00d7e833          	or	a6,a5,a3
    9880:	00387813          	and	a6,a6,3
    9884:	1e081063          	bnez	a6,9a64 <core_init_state+0x264>
    9888:	00168813          	add	a6,a3,1
    988c:	41078833          	sub	a6,a5,a6
    9890:	00383813          	sltiu	a6,a6,3
    9894:	1c081863          	bnez	a6,9a64 <core_init_state+0x264>
    9898:	0006a803          	lw	a6,0(a3)
    989c:	00800593          	li	a1,8
    98a0:	0107a023          	sw	a6,0(a5)
    98a4:	0046a683          	lw	a3,4(a3)
    98a8:	00d7a223          	sw	a3,4(a5)
    98ac:	00b785b3          	add	a1,a5,a1
    98b0:	01f58023          	sb	t6,0(a1)
    98b4:	00375793          	srl	a5,a4,0x3
    98b8:	00777693          	and	a3,a4,7
    98bc:	00028593          	mv	a1,t0
    98c0:	0037f793          	and	a5,a5,3
    98c4:	f9c690e3          	bne	a3,t3,9844 <core_init_state+0x44>
    98c8:	00279793          	sll	a5,a5,0x2
    98cc:	00170713          	add	a4,a4,1
    98d0:	00f887b3          	add	a5,a7,a5
    98d4:	01071713          	sll	a4,a4,0x10
    98d8:	00958293          	add	t0,a1,9
    98dc:	0307a683          	lw	a3,48(a5)
    98e0:	01075713          	srl	a4,a4,0x10
    98e4:	f862eae3          	bltu	t0,t1,9878 <core_init_state+0x78>
    98e8:	16a5f863          	bgeu	a1,a0,9a58 <core_init_state+0x258>
    98ec:	00158693          	add	a3,a1,1
    98f0:	00068e13          	mv	t3,a3
    98f4:	40b50733          	sub	a4,a0,a1
    98f8:	00d53eb3          	sltu	t4,a0,a3
    98fc:	00100893          	li	a7,1
    9900:	14d57e63          	bgeu	a0,a3,9a5c <core_init_state+0x25c>
    9904:	fff70713          	add	a4,a4,-1
    9908:	00b607b3          	add	a5,a2,a1
    990c:	40f00333          	neg	t1,a5
    9910:	00673813          	sltiu	a6,a4,6
    9914:	00337713          	and	a4,t1,3
    9918:	06081463          	bnez	a6,9980 <core_init_state+0x180>
    991c:	060e9263          	bnez	t4,9980 <core_init_state+0x180>
    9920:	14070c63          	beqz	a4,9a78 <core_init_state+0x278>
    9924:	00078023          	sb	zero,0(a5)
    9928:	00237313          	and	t1,t1,2
    992c:	02030263          	beqz	t1,9950 <core_init_state+0x150>
    9930:	00d606b3          	add	a3,a2,a3
    9934:	00068023          	sb	zero,0(a3)
    9938:	00300793          	li	a5,3
    993c:	00258e13          	add	t3,a1,2
    9940:	00f71863          	bne	a4,a5,9950 <core_init_state+0x150>
    9944:	01c60e33          	add	t3,a2,t3
    9948:	000e0023          	sb	zero,0(t3)
    994c:	00358e13          	add	t3,a1,3
    9950:	40e886b3          	sub	a3,a7,a4
    9954:	00e587b3          	add	a5,a1,a4
    9958:	00f607b3          	add	a5,a2,a5
    995c:	ffc6f813          	and	a6,a3,-4
    9960:	01078733          	add	a4,a5,a6
    9964:	0007a023          	sw	zero,0(a5)
    9968:	00478793          	add	a5,a5,4
    996c:	fef71ce3          	bne	a4,a5,9964 <core_init_state+0x164>
    9970:	01c805b3          	add	a1,a6,t3
    9974:	0ed80263          	beq	a6,a3,9a58 <core_init_state+0x258>
    9978:	00158693          	add	a3,a1,1
    997c:	00b607b3          	add	a5,a2,a1
    9980:	00078023          	sb	zero,0(a5)
    9984:	0ca6fa63          	bgeu	a3,a0,9a58 <core_init_state+0x258>
    9988:	00d606b3          	add	a3,a2,a3
    998c:	00068023          	sb	zero,0(a3)
    9990:	00258793          	add	a5,a1,2
    9994:	0ca7f263          	bgeu	a5,a0,9a58 <core_init_state+0x258>
    9998:	00f607b3          	add	a5,a2,a5
    999c:	00078023          	sb	zero,0(a5)
    99a0:	00358793          	add	a5,a1,3
    99a4:	0aa7fa63          	bgeu	a5,a0,9a58 <core_init_state+0x258>
    99a8:	00f607b3          	add	a5,a2,a5
    99ac:	00078023          	sb	zero,0(a5)
    99b0:	00458793          	add	a5,a1,4
    99b4:	0aa7f263          	bgeu	a5,a0,9a58 <core_init_state+0x258>
    99b8:	00f607b3          	add	a5,a2,a5
    99bc:	00078023          	sb	zero,0(a5)
    99c0:	00558593          	add	a1,a1,5
    99c4:	08a5fa63          	bgeu	a1,a0,9a58 <core_init_state+0x258>
    99c8:	00b605b3          	add	a1,a2,a1
    99cc:	00058023          	sb	zero,0(a1)
    99d0:	00008067          	ret
    99d4:	00170713          	add	a4,a4,1
    99d8:	01071713          	sll	a4,a4,0x10
    99dc:	00558293          	add	t0,a1,5
    99e0:	0007a683          	lw	a3,0(a5)
    99e4:	00158813          	add	a6,a1,1
    99e8:	01075713          	srl	a4,a4,0x10
    99ec:	ee62fee3          	bgeu	t0,t1,98e8 <core_init_state+0xe8>
    99f0:	0006c383          	lbu	t2,0(a3)
    99f4:	00b607b3          	add	a5,a2,a1
    99f8:	00400593          	li	a1,4
    99fc:	00778023          	sb	t2,0(a5)
    9a00:	0016c383          	lbu	t2,1(a3)
    9a04:	01060833          	add	a6,a2,a6
    9a08:	00780023          	sb	t2,0(a6)
    9a0c:	0026c803          	lbu	a6,2(a3)
    9a10:	01078123          	sb	a6,2(a5)
    9a14:	0036c803          	lbu	a6,3(a3)
    9a18:	010781a3          	sb	a6,3(a5)
    9a1c:	e9d588e3          	beq	a1,t4,98ac <core_init_state+0xac>
    9a20:	0046c803          	lbu	a6,4(a3)
    9a24:	00800593          	li	a1,8
    9a28:	01078223          	sb	a6,4(a5)
    9a2c:	0056c803          	lbu	a6,5(a3)
    9a30:	010782a3          	sb	a6,5(a5)
    9a34:	0066c803          	lbu	a6,6(a3)
    9a38:	01078323          	sb	a6,6(a5)
    9a3c:	0076c683          	lbu	a3,7(a3)
    9a40:	00d783a3          	sb	a3,7(a5)
    9a44:	e69ff06f          	j	98ac <core_init_state+0xac>
    9a48:	00279793          	sll	a5,a5,0x2
    9a4c:	00f887b3          	add	a5,a7,a5
    9a50:	0207a683          	lw	a3,32(a5)
    9a54:	e11ff06f          	j	9864 <core_init_state+0x64>
    9a58:	00008067          	ret
    9a5c:	00070893          	mv	a7,a4
    9a60:	ea5ff06f          	j	9904 <core_init_state+0x104>
    9a64:	0006c383          	lbu	t2,0(a3)
    9a68:	00158813          	add	a6,a1,1
    9a6c:	00800593          	li	a1,8
    9a70:	00778023          	sb	t2,0(a5)
    9a74:	f8dff06f          	j	9a00 <core_init_state+0x200>
    9a78:	00058e13          	mv	t3,a1
    9a7c:	ed5ff06f          	j	9950 <core_init_state+0x150>
    9a80:	00000593          	li	a1,0
    9a84:	00100693          	li	a3,1
    9a88:	00060793          	mv	a5,a2
    9a8c:	ef5ff06f          	j	9980 <core_init_state+0x180>

00009a90 <core_state_transition>:
    9a90:	00052783          	lw	a5,0(a0)
    9a94:	00050813          	mv	a6,a0
    9a98:	0007c703          	lbu	a4,0(a5)
    9a9c:	28070263          	beqz	a4,9d20 <core_state_transition+0x290>
    9aa0:	02c00693          	li	a3,44
    9aa4:	00000513          	li	a0,0
    9aa8:	20d70a63          	beq	a4,a3,9cbc <core_state_transition+0x22c>
    9aac:	02e00513          	li	a0,46
    9ab0:	22a70663          	beq	a4,a0,9cdc <core_state_transition+0x24c>
    9ab4:	1ce56a63          	bltu	a0,a4,9c88 <core_state_transition+0x1f8>
    9ab8:	fd570713          	add	a4,a4,-43
    9abc:	0fd77713          	and	a4,a4,253
    9ac0:	02070663          	beqz	a4,9aec <core_state_transition+0x5c>
    9ac4:	0045a683          	lw	a3,4(a1)
    9ac8:	0005a703          	lw	a4,0(a1)
    9acc:	00178793          	add	a5,a5,1
    9ad0:	00168693          	add	a3,a3,1
    9ad4:	00170713          	add	a4,a4,1
    9ad8:	00d5a223          	sw	a3,4(a1)
    9adc:	00e5a023          	sw	a4,0(a1)
    9ae0:	00100513          	li	a0,1
    9ae4:	00f82023          	sw	a5,0(a6)
    9ae8:	00008067          	ret
    9aec:	0005a703          	lw	a4,0(a1)
    9af0:	00178613          	add	a2,a5,1
    9af4:	00170713          	add	a4,a4,1
    9af8:	00e5a023          	sw	a4,0(a1)
    9afc:	0017c883          	lbu	a7,1(a5)
    9b00:	26088663          	beqz	a7,9d6c <core_state_transition+0x2dc>
    9b04:	20d88663          	beq	a7,a3,9d10 <core_state_transition+0x280>
    9b08:	0085a683          	lw	a3,8(a1)
    9b0c:	fd088713          	add	a4,a7,-48 # ffd0 <main+0x3a28>
    9b10:	0ff77713          	zext.b	a4,a4
    9b14:	00900313          	li	t1,9
    9b18:	00168693          	add	a3,a3,1
    9b1c:	00e37e63          	bgeu	t1,a4,9b38 <core_state_transition+0xa8>
    9b20:	1ea88463          	beq	a7,a0,9d08 <core_state_transition+0x278>
    9b24:	00d5a423          	sw	a3,8(a1)
    9b28:	00278793          	add	a5,a5,2
    9b2c:	00100513          	li	a0,1
    9b30:	00f82023          	sw	a5,0(a6)
    9b34:	00008067          	ret
    9b38:	00d5a423          	sw	a3,8(a1)
    9b3c:	00164783          	lbu	a5,1(a2)
    9b40:	00160613          	add	a2,a2,1
    9b44:	1e078263          	beqz	a5,9d28 <core_state_transition+0x298>
    9b48:	02c00713          	li	a4,44
    9b4c:	16e78463          	beq	a5,a4,9cb4 <core_state_transition+0x224>
    9b50:	02e00713          	li	a4,46
    9b54:	02e78863          	beq	a5,a4,9b84 <core_state_transition+0xf4>
    9b58:	fd078793          	add	a5,a5,-48
    9b5c:	0ff7f793          	zext.b	a5,a5
    9b60:	00900713          	li	a4,9
    9b64:	fcf77ce3          	bgeu	a4,a5,9b3c <core_state_transition+0xac>
    9b68:	0105a703          	lw	a4,16(a1)
    9b6c:	00160793          	add	a5,a2,1
    9b70:	00100513          	li	a0,1
    9b74:	00170713          	add	a4,a4,1
    9b78:	00e5a823          	sw	a4,16(a1)
    9b7c:	00f82023          	sw	a5,0(a6)
    9b80:	00008067          	ret
    9b84:	0105a783          	lw	a5,16(a1)
    9b88:	00178793          	add	a5,a5,1
    9b8c:	00f5a823          	sw	a5,16(a1)
    9b90:	0140006f          	j	9ba4 <core_state_transition+0x114>
    9b94:	fd078793          	add	a5,a5,-48
    9b98:	0ff7f793          	zext.b	a5,a5
    9b9c:	00900713          	li	a4,9
    9ba0:	12f76263          	bltu	a4,a5,9cc4 <core_state_transition+0x234>
    9ba4:	00164783          	lbu	a5,1(a2)
    9ba8:	00160613          	add	a2,a2,1
    9bac:	1a078a63          	beqz	a5,9d60 <core_state_transition+0x2d0>
    9bb0:	02c00713          	li	a4,44
    9bb4:	14e78263          	beq	a5,a4,9cf8 <core_state_transition+0x268>
    9bb8:	0df7f713          	and	a4,a5,223
    9bbc:	04500693          	li	a3,69
    9bc0:	fcd71ae3          	bne	a4,a3,9b94 <core_state_transition+0x104>
    9bc4:	0145a703          	lw	a4,20(a1)
    9bc8:	00160793          	add	a5,a2,1
    9bcc:	00300513          	li	a0,3
    9bd0:	00170713          	add	a4,a4,1
    9bd4:	00e5aa23          	sw	a4,20(a1)
    9bd8:	00164703          	lbu	a4,1(a2)
    9bdc:	f00704e3          	beqz	a4,9ae4 <core_state_transition+0x54>
    9be0:	02c00693          	li	a3,44
    9be4:	14d70863          	beq	a4,a3,9d34 <core_state_transition+0x2a4>
    9be8:	00c5a783          	lw	a5,12(a1)
    9bec:	fd570713          	add	a4,a4,-43
    9bf0:	0fd77713          	and	a4,a4,253
    9bf4:	00178793          	add	a5,a5,1
    9bf8:	00f5a623          	sw	a5,12(a1)
    9bfc:	00100513          	li	a0,1
    9c00:	00260793          	add	a5,a2,2
    9c04:	ee0710e3          	bnez	a4,9ae4 <core_state_transition+0x54>
    9c08:	00264703          	lbu	a4,2(a2)
    9c0c:	00260793          	add	a5,a2,2
    9c10:	00600513          	li	a0,6
    9c14:	ec0708e3          	beqz	a4,9ae4 <core_state_transition+0x54>
    9c18:	12d70463          	beq	a4,a3,9d40 <core_state_transition+0x2b0>
    9c1c:	0185a683          	lw	a3,24(a1)
    9c20:	fd070713          	add	a4,a4,-48
    9c24:	0ff77713          	zext.b	a4,a4
    9c28:	00168693          	add	a3,a3,1
    9c2c:	00900513          	li	a0,9
    9c30:	00d5ac23          	sw	a3,24(a1)
    9c34:	00e57a63          	bgeu	a0,a4,9c48 <core_state_transition+0x1b8>
    9c38:	00360793          	add	a5,a2,3
    9c3c:	00100513          	li	a0,1
    9c40:	00f82023          	sw	a5,0(a6)
    9c44:	00008067          	ret
    9c48:	00900613          	li	a2,9
    9c4c:	0017c683          	lbu	a3,1(a5)
    9c50:	00078513          	mv	a0,a5
    9c54:	02c00893          	li	a7,44
    9c58:	fd068713          	add	a4,a3,-48
    9c5c:	00178793          	add	a5,a5,1
    9c60:	0ff77713          	zext.b	a4,a4
    9c64:	0e068463          	beqz	a3,9d4c <core_state_transition+0x2bc>
    9c68:	0f168663          	beq	a3,a7,9d54 <core_state_transition+0x2c4>
    9c6c:	fee670e3          	bgeu	a2,a4,9c4c <core_state_transition+0x1bc>
    9c70:	0045a703          	lw	a4,4(a1)
    9c74:	00250793          	add	a5,a0,2
    9c78:	00100513          	li	a0,1
    9c7c:	00170713          	add	a4,a4,1
    9c80:	00e5a223          	sw	a4,4(a1)
    9c84:	e61ff06f          	j	9ae4 <core_state_transition+0x54>
    9c88:	fd070713          	add	a4,a4,-48
    9c8c:	0ff77713          	zext.b	a4,a4
    9c90:	00900613          	li	a2,9
    9c94:	e2e668e3          	bltu	a2,a4,9ac4 <core_state_transition+0x34>
    9c98:	0005a703          	lw	a4,0(a1)
    9c9c:	00178613          	add	a2,a5,1
    9ca0:	00170713          	add	a4,a4,1
    9ca4:	00e5a023          	sw	a4,0(a1)
    9ca8:	0017c783          	lbu	a5,1(a5)
    9cac:	06078e63          	beqz	a5,9d28 <core_state_transition+0x298>
    9cb0:	ead790e3          	bne	a5,a3,9b50 <core_state_transition+0xc0>
    9cb4:	00060793          	mv	a5,a2
    9cb8:	00400513          	li	a0,4
    9cbc:	00178793          	add	a5,a5,1
    9cc0:	e25ff06f          	j	9ae4 <core_state_transition+0x54>
    9cc4:	0145a703          	lw	a4,20(a1)
    9cc8:	00160793          	add	a5,a2,1
    9ccc:	00100513          	li	a0,1
    9cd0:	00170713          	add	a4,a4,1
    9cd4:	00e5aa23          	sw	a4,20(a1)
    9cd8:	e0dff06f          	j	9ae4 <core_state_transition+0x54>
    9cdc:	0005a703          	lw	a4,0(a1)
    9ce0:	00178613          	add	a2,a5,1
    9ce4:	00170713          	add	a4,a4,1
    9ce8:	00e5a023          	sw	a4,0(a1)
    9cec:	0017c783          	lbu	a5,1(a5)
    9cf0:	06078863          	beqz	a5,9d60 <core_state_transition+0x2d0>
    9cf4:	ecd792e3          	bne	a5,a3,9bb8 <core_state_transition+0x128>
    9cf8:	00060793          	mv	a5,a2
    9cfc:	00500513          	li	a0,5
    9d00:	00178793          	add	a5,a5,1
    9d04:	de1ff06f          	j	9ae4 <core_state_transition+0x54>
    9d08:	00d5a423          	sw	a3,8(a1)
    9d0c:	e99ff06f          	j	9ba4 <core_state_transition+0x114>
    9d10:	00060793          	mv	a5,a2
    9d14:	00200513          	li	a0,2
    9d18:	00178793          	add	a5,a5,1
    9d1c:	dc9ff06f          	j	9ae4 <core_state_transition+0x54>
    9d20:	00000513          	li	a0,0
    9d24:	dc1ff06f          	j	9ae4 <core_state_transition+0x54>
    9d28:	00060793          	mv	a5,a2
    9d2c:	00400513          	li	a0,4
    9d30:	db5ff06f          	j	9ae4 <core_state_transition+0x54>
    9d34:	00300513          	li	a0,3
    9d38:	00178793          	add	a5,a5,1
    9d3c:	da9ff06f          	j	9ae4 <core_state_transition+0x54>
    9d40:	00600513          	li	a0,6
    9d44:	00178793          	add	a5,a5,1
    9d48:	d9dff06f          	j	9ae4 <core_state_transition+0x54>
    9d4c:	00700513          	li	a0,7
    9d50:	d95ff06f          	j	9ae4 <core_state_transition+0x54>
    9d54:	00700513          	li	a0,7
    9d58:	00178793          	add	a5,a5,1
    9d5c:	d89ff06f          	j	9ae4 <core_state_transition+0x54>
    9d60:	00060793          	mv	a5,a2
    9d64:	00500513          	li	a0,5
    9d68:	d7dff06f          	j	9ae4 <core_state_transition+0x54>
    9d6c:	00060793          	mv	a5,a2
    9d70:	00200513          	li	a0,2
    9d74:	d71ff06f          	j	9ae4 <core_state_transition+0x54>

00009d78 <core_bench_state>:
    9d78:	f8010113          	add	sp,sp,-128
    9d7c:	06812c23          	sw	s0,120(sp)
    9d80:	06912a23          	sw	s1,116(sp)
    9d84:	07212823          	sw	s2,112(sp)
    9d88:	07312623          	sw	s3,108(sp)
    9d8c:	07412423          	sw	s4,104(sp)
    9d90:	07512223          	sw	s5,100(sp)
    9d94:	07612023          	sw	s6,96(sp)
    9d98:	05712e23          	sw	s7,92(sp)
    9d9c:	06112e23          	sw	ra,124(sp)
    9da0:	00058413          	mv	s0,a1
    9da4:	0005c583          	lbu	a1,0(a1)
    9da8:	00812623          	sw	s0,12(sp)
    9dac:	02012823          	sw	zero,48(sp)
    9db0:	00012823          	sw	zero,16(sp)
    9db4:	02012a23          	sw	zero,52(sp)
    9db8:	00012a23          	sw	zero,20(sp)
    9dbc:	02012c23          	sw	zero,56(sp)
    9dc0:	00012c23          	sw	zero,24(sp)
    9dc4:	02012e23          	sw	zero,60(sp)
    9dc8:	00012e23          	sw	zero,28(sp)
    9dcc:	04012023          	sw	zero,64(sp)
    9dd0:	02012023          	sw	zero,32(sp)
    9dd4:	04012223          	sw	zero,68(sp)
    9dd8:	02012223          	sw	zero,36(sp)
    9ddc:	04012423          	sw	zero,72(sp)
    9de0:	02012423          	sw	zero,40(sp)
    9de4:	04012623          	sw	zero,76(sp)
    9de8:	02012623          	sw	zero,44(sp)
    9dec:	00050b13          	mv	s6,a0
    9df0:	00060b93          	mv	s7,a2
    9df4:	00068a13          	mv	s4,a3
    9df8:	00070a93          	mv	s5,a4
    9dfc:	00078493          	mv	s1,a5
    9e00:	03010913          	add	s2,sp,48
    9e04:	00c10993          	add	s3,sp,12
    9e08:	18058663          	beqz	a1,9f94 <core_bench_state+0x21c>
    9e0c:	00090593          	mv	a1,s2
    9e10:	00098513          	mv	a0,s3
    9e14:	c7dff0ef          	jal	9a90 <core_state_transition>
    9e18:	00251813          	sll	a6,a0,0x2
    9e1c:	05080793          	add	a5,a6,80
    9e20:	00278833          	add	a6,a5,sp
    9e24:	00c12703          	lw	a4,12(sp)
    9e28:	fc082783          	lw	a5,-64(a6)
    9e2c:	00074703          	lbu	a4,0(a4)
    9e30:	00178793          	add	a5,a5,1
    9e34:	fcf82023          	sw	a5,-64(a6)
    9e38:	fc071ae3          	bnez	a4,9e0c <core_bench_state+0x94>
    9e3c:	00812623          	sw	s0,12(sp)
    9e40:	01640b33          	add	s6,s0,s6
    9e44:	03647c63          	bgeu	s0,s6,9e7c <core_bench_state+0x104>
    9e48:	00100713          	li	a4,1
    9e4c:	00040793          	mv	a5,s0
    9e50:	02c00613          	li	a2,44
    9e54:	0eea9263          	bne	s5,a4,9f38 <core_bench_state+0x1c0>
    9e58:	0007c703          	lbu	a4,0(a5)
    9e5c:	017746b3          	xor	a3,a4,s7
    9e60:	00c70463          	beq	a4,a2,9e68 <core_bench_state+0xf0>
    9e64:	00d78023          	sb	a3,0(a5)
    9e68:	00178793          	add	a5,a5,1
    9e6c:	ff67e6e3          	bltu	a5,s6,9e58 <core_bench_state+0xe0>
    9e70:	00044783          	lbu	a5,0(s0)
    9e74:	00c10993          	add	s3,sp,12
    9e78:	10078863          	beqz	a5,9f88 <core_bench_state+0x210>
    9e7c:	00090593          	mv	a1,s2
    9e80:	00098513          	mv	a0,s3
    9e84:	c0dff0ef          	jal	9a90 <core_state_transition>
    9e88:	00251613          	sll	a2,a0,0x2
    9e8c:	05060793          	add	a5,a2,80
    9e90:	00278633          	add	a2,a5,sp
    9e94:	00c12703          	lw	a4,12(sp)
    9e98:	fc062783          	lw	a5,-64(a2)
    9e9c:	00074703          	lbu	a4,0(a4)
    9ea0:	00178793          	add	a5,a5,1
    9ea4:	fcf62023          	sw	a5,-64(a2)
    9ea8:	fc071ae3          	bnez	a4,9e7c <core_bench_state+0x104>
    9eac:	00812623          	sw	s0,12(sp)
    9eb0:	03647663          	bgeu	s0,s6,9edc <core_bench_state+0x164>
    9eb4:	00100793          	li	a5,1
    9eb8:	0afa9663          	bne	s5,a5,9f64 <core_bench_state+0x1ec>
    9ebc:	00040713          	mv	a4,s0
    9ec0:	02c00613          	li	a2,44
    9ec4:	00074783          	lbu	a5,0(a4)
    9ec8:	0147c6b3          	xor	a3,a5,s4
    9ecc:	00c78463          	beq	a5,a2,9ed4 <core_bench_state+0x15c>
    9ed0:	00d70023          	sb	a3,0(a4)
    9ed4:	00170713          	add	a4,a4,1
    9ed8:	ff6766e3          	bltu	a4,s6,9ec4 <core_bench_state+0x14c>
    9edc:	01010413          	add	s0,sp,16
    9ee0:	00090993          	mv	s3,s2
    9ee4:	00042503          	lw	a0,0(s0)
    9ee8:	00048593          	mv	a1,s1
    9eec:	00440413          	add	s0,s0,4
    9ef0:	488000ef          	jal	a378 <crcu32>
    9ef4:	00050593          	mv	a1,a0
    9ef8:	0009a503          	lw	a0,0(s3)
    9efc:	00498993          	add	s3,s3,4
    9f00:	478000ef          	jal	a378 <crcu32>
    9f04:	00050493          	mv	s1,a0
    9f08:	fd241ee3          	bne	s0,s2,9ee4 <core_bench_state+0x16c>
    9f0c:	07c12083          	lw	ra,124(sp)
    9f10:	07812403          	lw	s0,120(sp)
    9f14:	07412483          	lw	s1,116(sp)
    9f18:	07012903          	lw	s2,112(sp)
    9f1c:	06c12983          	lw	s3,108(sp)
    9f20:	06812a03          	lw	s4,104(sp)
    9f24:	06412a83          	lw	s5,100(sp)
    9f28:	06012b03          	lw	s6,96(sp)
    9f2c:	05c12b83          	lw	s7,92(sp)
    9f30:	08010113          	add	sp,sp,128
    9f34:	00008067          	ret
    9f38:	0007c703          	lbu	a4,0(a5)
    9f3c:	017746b3          	xor	a3,a4,s7
    9f40:	00c70463          	beq	a4,a2,9f48 <core_bench_state+0x1d0>
    9f44:	00d78023          	sb	a3,0(a5)
    9f48:	015787b3          	add	a5,a5,s5
    9f4c:	ff67e6e3          	bltu	a5,s6,9f38 <core_bench_state+0x1c0>
    9f50:	00044783          	lbu	a5,0(s0)
    9f54:	00c10993          	add	s3,sp,12
    9f58:	f20792e3          	bnez	a5,9e7c <core_bench_state+0x104>
    9f5c:	00812623          	sw	s0,12(sp)
    9f60:	f7647ee3          	bgeu	s0,s6,9edc <core_bench_state+0x164>
    9f64:	00040713          	mv	a4,s0
    9f68:	02c00613          	li	a2,44
    9f6c:	00074783          	lbu	a5,0(a4)
    9f70:	0147c6b3          	xor	a3,a5,s4
    9f74:	00c78463          	beq	a5,a2,9f7c <core_bench_state+0x204>
    9f78:	00d70023          	sb	a3,0(a4)
    9f7c:	01570733          	add	a4,a4,s5
    9f80:	ff6766e3          	bltu	a4,s6,9f6c <core_bench_state+0x1f4>
    9f84:	f59ff06f          	j	9edc <core_bench_state+0x164>
    9f88:	00812623          	sw	s0,12(sp)
    9f8c:	f36468e3          	bltu	s0,s6,9ebc <core_bench_state+0x144>
    9f90:	f4dff06f          	j	9edc <core_bench_state+0x164>
    9f94:	00a40b33          	add	s6,s0,a0
    9f98:	eb6468e3          	bltu	s0,s6,9e48 <core_bench_state+0xd0>
    9f9c:	f41ff06f          	j	9edc <core_bench_state+0x164>

00009fa0 <get_seed_32>:
    9fa0:	00500793          	li	a5,5
    9fa4:	04a7ec63          	bltu	a5,a0,9ffc <get_seed_32+0x5c>
    9fa8:	000107b7          	lui	a5,0x10
    9fac:	04078793          	add	a5,a5,64 # 10040 <errpat+0x10>
    9fb0:	00251513          	sll	a0,a0,0x2
    9fb4:	00f50533          	add	a0,a0,a5
    9fb8:	00052783          	lw	a5,0(a0)
    9fbc:	00078067          	jr	a5
    9fc0:	000107b7          	lui	a5,0x10
    9fc4:	7707a503          	lw	a0,1904(a5) # 10770 <seed5_volatile>
    9fc8:	00008067          	ret
    9fcc:	000107b7          	lui	a5,0x10
    9fd0:	7807a503          	lw	a0,1920(a5) # 10780 <seed1_volatile>
    9fd4:	00008067          	ret
    9fd8:	000107b7          	lui	a5,0x10
    9fdc:	77c7a503          	lw	a0,1916(a5) # 1077c <seed2_volatile>
    9fe0:	00008067          	ret
    9fe4:	000107b7          	lui	a5,0x10
    9fe8:	7787a503          	lw	a0,1912(a5) # 10778 <seed3_volatile>
    9fec:	00008067          	ret
    9ff0:	000107b7          	lui	a5,0x10
    9ff4:	7747a503          	lw	a0,1908(a5) # 10774 <seed4_volatile>
    9ff8:	00008067          	ret
    9ffc:	00000513          	li	a0,0
    a000:	00008067          	ret

0000a004 <crcu8>:
    a004:	00b547b3          	xor	a5,a0,a1
    a008:	0017f793          	and	a5,a5,1
    a00c:	ffffa6b7          	lui	a3,0xffffa
    a010:	00168693          	add	a3,a3,1 # ffffa001 <stack_top+0xfffda001>
    a014:	40f007b3          	neg	a5,a5
    a018:	00d7f7b3          	and	a5,a5,a3
    a01c:	0015d593          	srl	a1,a1,0x1
    a020:	00b7c7b3          	xor	a5,a5,a1
    a024:	01079793          	sll	a5,a5,0x10
    a028:	0107d793          	srl	a5,a5,0x10
    a02c:	00155713          	srl	a4,a0,0x1
    a030:	00f74733          	xor	a4,a4,a5
    a034:	00177713          	and	a4,a4,1
    a038:	40e00733          	neg	a4,a4
    a03c:	00d77733          	and	a4,a4,a3
    a040:	0017d793          	srl	a5,a5,0x1
    a044:	00f74733          	xor	a4,a4,a5
    a048:	01071713          	sll	a4,a4,0x10
    a04c:	01075713          	srl	a4,a4,0x10
    a050:	00255793          	srl	a5,a0,0x2
    a054:	00e7c7b3          	xor	a5,a5,a4
    a058:	0017f793          	and	a5,a5,1
    a05c:	40f007b3          	neg	a5,a5
    a060:	00d7f7b3          	and	a5,a5,a3
    a064:	00175713          	srl	a4,a4,0x1
    a068:	00e7c7b3          	xor	a5,a5,a4
    a06c:	01079793          	sll	a5,a5,0x10
    a070:	0107d793          	srl	a5,a5,0x10
    a074:	00355713          	srl	a4,a0,0x3
    a078:	00f74733          	xor	a4,a4,a5
    a07c:	00177713          	and	a4,a4,1
    a080:	40e00733          	neg	a4,a4
    a084:	00d77733          	and	a4,a4,a3
    a088:	0017d793          	srl	a5,a5,0x1
    a08c:	00f74733          	xor	a4,a4,a5
    a090:	01071713          	sll	a4,a4,0x10
    a094:	01075713          	srl	a4,a4,0x10
    a098:	00455793          	srl	a5,a0,0x4
    a09c:	00e7c7b3          	xor	a5,a5,a4
    a0a0:	0017f793          	and	a5,a5,1
    a0a4:	40f007b3          	neg	a5,a5
    a0a8:	00d7f7b3          	and	a5,a5,a3
    a0ac:	00175713          	srl	a4,a4,0x1
    a0b0:	00e7c7b3          	xor	a5,a5,a4
    a0b4:	01079793          	sll	a5,a5,0x10
    a0b8:	0107d793          	srl	a5,a5,0x10
    a0bc:	00555713          	srl	a4,a0,0x5
    a0c0:	00f74733          	xor	a4,a4,a5
    a0c4:	00177713          	and	a4,a4,1
    a0c8:	40e00733          	neg	a4,a4
    a0cc:	00d77733          	and	a4,a4,a3
    a0d0:	0017d793          	srl	a5,a5,0x1
    a0d4:	00f74733          	xor	a4,a4,a5
    a0d8:	01071713          	sll	a4,a4,0x10
    a0dc:	01075713          	srl	a4,a4,0x10
    a0e0:	00655793          	srl	a5,a0,0x6
    a0e4:	00e7c7b3          	xor	a5,a5,a4
    a0e8:	0017f793          	and	a5,a5,1
    a0ec:	40f007b3          	neg	a5,a5
    a0f0:	00d7f7b3          	and	a5,a5,a3
    a0f4:	00175713          	srl	a4,a4,0x1
    a0f8:	00e7c7b3          	xor	a5,a5,a4
    a0fc:	01079793          	sll	a5,a5,0x10
    a100:	0107d793          	srl	a5,a5,0x10
    a104:	00755513          	srl	a0,a0,0x7
    a108:	00f54533          	xor	a0,a0,a5
    a10c:	00157513          	and	a0,a0,1
    a110:	40a00533          	neg	a0,a0
    a114:	00d57533          	and	a0,a0,a3
    a118:	0017d793          	srl	a5,a5,0x1
    a11c:	00f54533          	xor	a0,a0,a5
    a120:	01051513          	sll	a0,a0,0x10
    a124:	01055513          	srl	a0,a0,0x10
    a128:	00008067          	ret

0000a12c <crcu16>:
    a12c:	0ff57793          	zext.b	a5,a0
    a130:	00b7c6b3          	xor	a3,a5,a1
    a134:	0016f693          	and	a3,a3,1
    a138:	ffffa737          	lui	a4,0xffffa
    a13c:	00170713          	add	a4,a4,1 # ffffa001 <stack_top+0xfffda001>
    a140:	40d006b3          	neg	a3,a3
    a144:	00e6f6b3          	and	a3,a3,a4
    a148:	0015d593          	srl	a1,a1,0x1
    a14c:	00b6c6b3          	xor	a3,a3,a1
    a150:	01069693          	sll	a3,a3,0x10
    a154:	0106d693          	srl	a3,a3,0x10
    a158:	0017d613          	srl	a2,a5,0x1
    a15c:	00d64633          	xor	a2,a2,a3
    a160:	00167613          	and	a2,a2,1
    a164:	40c00633          	neg	a2,a2
    a168:	00e67633          	and	a2,a2,a4
    a16c:	0016d693          	srl	a3,a3,0x1
    a170:	00d64633          	xor	a2,a2,a3
    a174:	01061613          	sll	a2,a2,0x10
    a178:	01065613          	srl	a2,a2,0x10
    a17c:	0027d693          	srl	a3,a5,0x2
    a180:	00c6c6b3          	xor	a3,a3,a2
    a184:	0016f693          	and	a3,a3,1
    a188:	40d006b3          	neg	a3,a3
    a18c:	00e6f6b3          	and	a3,a3,a4
    a190:	00165613          	srl	a2,a2,0x1
    a194:	00c6c6b3          	xor	a3,a3,a2
    a198:	01069693          	sll	a3,a3,0x10
    a19c:	0106d693          	srl	a3,a3,0x10
    a1a0:	0037d613          	srl	a2,a5,0x3
    a1a4:	00d64633          	xor	a2,a2,a3
    a1a8:	00167613          	and	a2,a2,1
    a1ac:	40c00633          	neg	a2,a2
    a1b0:	00e67633          	and	a2,a2,a4
    a1b4:	0016d693          	srl	a3,a3,0x1
    a1b8:	00d64633          	xor	a2,a2,a3
    a1bc:	01061613          	sll	a2,a2,0x10
    a1c0:	01065613          	srl	a2,a2,0x10
    a1c4:	0047d693          	srl	a3,a5,0x4
    a1c8:	00c6c6b3          	xor	a3,a3,a2
    a1cc:	0016f693          	and	a3,a3,1
    a1d0:	40d006b3          	neg	a3,a3
    a1d4:	00e6f6b3          	and	a3,a3,a4
    a1d8:	00165613          	srl	a2,a2,0x1
    a1dc:	00c6c6b3          	xor	a3,a3,a2
    a1e0:	01069693          	sll	a3,a3,0x10
    a1e4:	0106d693          	srl	a3,a3,0x10
    a1e8:	0057d613          	srl	a2,a5,0x5
    a1ec:	00d64633          	xor	a2,a2,a3
    a1f0:	00167613          	and	a2,a2,1
    a1f4:	40c00633          	neg	a2,a2
    a1f8:	00e67633          	and	a2,a2,a4
    a1fc:	0016d693          	srl	a3,a3,0x1
    a200:	00d64633          	xor	a2,a2,a3
    a204:	01061613          	sll	a2,a2,0x10
    a208:	01065613          	srl	a2,a2,0x10
    a20c:	0067d693          	srl	a3,a5,0x6
    a210:	00c6c6b3          	xor	a3,a3,a2
    a214:	0016f693          	and	a3,a3,1
    a218:	40d006b3          	neg	a3,a3
    a21c:	00e6f6b3          	and	a3,a3,a4
    a220:	00165613          	srl	a2,a2,0x1
    a224:	00c6c6b3          	xor	a3,a3,a2
    a228:	01069693          	sll	a3,a3,0x10
    a22c:	0106d693          	srl	a3,a3,0x10
    a230:	0077d793          	srl	a5,a5,0x7
    a234:	00d7c7b3          	xor	a5,a5,a3
    a238:	0017f793          	and	a5,a5,1
    a23c:	40f007b3          	neg	a5,a5
    a240:	00e7f7b3          	and	a5,a5,a4
    a244:	0016d693          	srl	a3,a3,0x1
    a248:	00d7c7b3          	xor	a5,a5,a3
    a24c:	01079793          	sll	a5,a5,0x10
    a250:	00855513          	srl	a0,a0,0x8
    a254:	0107d793          	srl	a5,a5,0x10
    a258:	00f546b3          	xor	a3,a0,a5
    a25c:	0016f693          	and	a3,a3,1
    a260:	40d006b3          	neg	a3,a3
    a264:	00e6f6b3          	and	a3,a3,a4
    a268:	0017d793          	srl	a5,a5,0x1
    a26c:	00f6c7b3          	xor	a5,a3,a5
    a270:	01079793          	sll	a5,a5,0x10
    a274:	0107d793          	srl	a5,a5,0x10
    a278:	00155693          	srl	a3,a0,0x1
    a27c:	00f6c6b3          	xor	a3,a3,a5
    a280:	0016f693          	and	a3,a3,1
    a284:	40d006b3          	neg	a3,a3
    a288:	00e6f6b3          	and	a3,a3,a4
    a28c:	0017d793          	srl	a5,a5,0x1
    a290:	00f6c6b3          	xor	a3,a3,a5
    a294:	01069693          	sll	a3,a3,0x10
    a298:	0106d693          	srl	a3,a3,0x10
    a29c:	00255793          	srl	a5,a0,0x2
    a2a0:	00d7c7b3          	xor	a5,a5,a3
    a2a4:	0017f793          	and	a5,a5,1
    a2a8:	40f007b3          	neg	a5,a5
    a2ac:	00e7f7b3          	and	a5,a5,a4
    a2b0:	0016d693          	srl	a3,a3,0x1
    a2b4:	00d7c7b3          	xor	a5,a5,a3
    a2b8:	01079793          	sll	a5,a5,0x10
    a2bc:	0107d793          	srl	a5,a5,0x10
    a2c0:	00355693          	srl	a3,a0,0x3
    a2c4:	00f6c6b3          	xor	a3,a3,a5
    a2c8:	0016f693          	and	a3,a3,1
    a2cc:	40d006b3          	neg	a3,a3
    a2d0:	00e6f6b3          	and	a3,a3,a4
    a2d4:	0017d793          	srl	a5,a5,0x1
    a2d8:	00f6c6b3          	xor	a3,a3,a5
    a2dc:	01069693          	sll	a3,a3,0x10
    a2e0:	0106d693          	srl	a3,a3,0x10
    a2e4:	00455793          	srl	a5,a0,0x4
    a2e8:	00d7c7b3          	xor	a5,a5,a3
    a2ec:	0017f793          	and	a5,a5,1
    a2f0:	40f007b3          	neg	a5,a5
    a2f4:	00e7f7b3          	and	a5,a5,a4
    a2f8:	0016d693          	srl	a3,a3,0x1
    a2fc:	00d7c7b3          	xor	a5,a5,a3
    a300:	01079793          	sll	a5,a5,0x10
    a304:	0107d793          	srl	a5,a5,0x10
    a308:	00555693          	srl	a3,a0,0x5
    a30c:	00f6c6b3          	xor	a3,a3,a5
    a310:	0016f693          	and	a3,a3,1
    a314:	40d006b3          	neg	a3,a3
    a318:	00e6f6b3          	and	a3,a3,a4
    a31c:	0017d793          	srl	a5,a5,0x1
    a320:	00f6c6b3          	xor	a3,a3,a5
    a324:	01069693          	sll	a3,a3,0x10
    a328:	0106d693          	srl	a3,a3,0x10
    a32c:	00655793          	srl	a5,a0,0x6
    a330:	00d7c7b3          	xor	a5,a5,a3
    a334:	0017f793          	and	a5,a5,1
    a338:	40f007b3          	neg	a5,a5
    a33c:	00e7f7b3          	and	a5,a5,a4
    a340:	0016d693          	srl	a3,a3,0x1
    a344:	00d7c7b3          	xor	a5,a5,a3
    a348:	01079793          	sll	a5,a5,0x10
    a34c:	0107d793          	srl	a5,a5,0x10
    a350:	00755513          	srl	a0,a0,0x7
    a354:	00f54533          	xor	a0,a0,a5
    a358:	00157513          	and	a0,a0,1
    a35c:	40a00533          	neg	a0,a0
    a360:	00e57533          	and	a0,a0,a4
    a364:	0017d793          	srl	a5,a5,0x1
    a368:	00f54533          	xor	a0,a0,a5
    a36c:	01051513          	sll	a0,a0,0x10
    a370:	01055513          	srl	a0,a0,0x10
    a374:	00008067          	ret

0000a378 <crcu32>:
    a378:	0ff57713          	zext.b	a4,a0
    a37c:	00b74633          	xor	a2,a4,a1
    a380:	00167613          	and	a2,a2,1
    a384:	ffffa7b7          	lui	a5,0xffffa
    a388:	00178793          	add	a5,a5,1 # ffffa001 <stack_top+0xfffda001>
    a38c:	40c00633          	neg	a2,a2
    a390:	00f67633          	and	a2,a2,a5
    a394:	0015d593          	srl	a1,a1,0x1
    a398:	00b64633          	xor	a2,a2,a1
    a39c:	01061613          	sll	a2,a2,0x10
    a3a0:	01065613          	srl	a2,a2,0x10
    a3a4:	00175693          	srl	a3,a4,0x1
    a3a8:	00c6c6b3          	xor	a3,a3,a2
    a3ac:	0016f693          	and	a3,a3,1
    a3b0:	40d006b3          	neg	a3,a3
    a3b4:	00f6f6b3          	and	a3,a3,a5
    a3b8:	00165613          	srl	a2,a2,0x1
    a3bc:	00c6c6b3          	xor	a3,a3,a2
    a3c0:	01069693          	sll	a3,a3,0x10
    a3c4:	0106d693          	srl	a3,a3,0x10
    a3c8:	00275613          	srl	a2,a4,0x2
    a3cc:	00d64633          	xor	a2,a2,a3
    a3d0:	00167613          	and	a2,a2,1
    a3d4:	40c00633          	neg	a2,a2
    a3d8:	00f67633          	and	a2,a2,a5
    a3dc:	0016d693          	srl	a3,a3,0x1
    a3e0:	00d64633          	xor	a2,a2,a3
    a3e4:	01061613          	sll	a2,a2,0x10
    a3e8:	01065613          	srl	a2,a2,0x10
    a3ec:	00375693          	srl	a3,a4,0x3
    a3f0:	00c6c6b3          	xor	a3,a3,a2
    a3f4:	0016f693          	and	a3,a3,1
    a3f8:	40d006b3          	neg	a3,a3
    a3fc:	00f6f6b3          	and	a3,a3,a5
    a400:	00165613          	srl	a2,a2,0x1
    a404:	00c6c6b3          	xor	a3,a3,a2
    a408:	01069693          	sll	a3,a3,0x10
    a40c:	0106d693          	srl	a3,a3,0x10
    a410:	00475613          	srl	a2,a4,0x4
    a414:	00d64633          	xor	a2,a2,a3
    a418:	00167613          	and	a2,a2,1
    a41c:	40c00633          	neg	a2,a2
    a420:	00f67633          	and	a2,a2,a5
    a424:	0016d693          	srl	a3,a3,0x1
    a428:	00d64633          	xor	a2,a2,a3
    a42c:	01061613          	sll	a2,a2,0x10
    a430:	01065613          	srl	a2,a2,0x10
    a434:	00575693          	srl	a3,a4,0x5
    a438:	00c6c6b3          	xor	a3,a3,a2
    a43c:	0016f693          	and	a3,a3,1
    a440:	40d006b3          	neg	a3,a3
    a444:	00f6f6b3          	and	a3,a3,a5
    a448:	00165613          	srl	a2,a2,0x1
    a44c:	00c6c6b3          	xor	a3,a3,a2
    a450:	01069693          	sll	a3,a3,0x10
    a454:	0106d693          	srl	a3,a3,0x10
    a458:	00675613          	srl	a2,a4,0x6
    a45c:	00d64633          	xor	a2,a2,a3
    a460:	00167613          	and	a2,a2,1
    a464:	40c00633          	neg	a2,a2
    a468:	00f67633          	and	a2,a2,a5
    a46c:	0016d693          	srl	a3,a3,0x1
    a470:	00d64633          	xor	a2,a2,a3
    a474:	01061613          	sll	a2,a2,0x10
    a478:	01065613          	srl	a2,a2,0x10
    a47c:	00775693          	srl	a3,a4,0x7
    a480:	00c6c6b3          	xor	a3,a3,a2
    a484:	0016f693          	and	a3,a3,1
    a488:	40d006b3          	neg	a3,a3
    a48c:	00f6f6b3          	and	a3,a3,a5
    a490:	00165613          	srl	a2,a2,0x1
    a494:	00c6c6b3          	xor	a3,a3,a2
    a498:	01051713          	sll	a4,a0,0x10
    a49c:	01075713          	srl	a4,a4,0x10
    a4a0:	01069693          	sll	a3,a3,0x10
    a4a4:	00875713          	srl	a4,a4,0x8
    a4a8:	0106d693          	srl	a3,a3,0x10
    a4ac:	00d74633          	xor	a2,a4,a3
    a4b0:	00167613          	and	a2,a2,1
    a4b4:	40c00633          	neg	a2,a2
    a4b8:	00f67633          	and	a2,a2,a5
    a4bc:	0016d693          	srl	a3,a3,0x1
    a4c0:	00d64633          	xor	a2,a2,a3
    a4c4:	01061613          	sll	a2,a2,0x10
    a4c8:	01065613          	srl	a2,a2,0x10
    a4cc:	00175693          	srl	a3,a4,0x1
    a4d0:	00c6c6b3          	xor	a3,a3,a2
    a4d4:	0016f693          	and	a3,a3,1
    a4d8:	40d006b3          	neg	a3,a3
    a4dc:	00f6f6b3          	and	a3,a3,a5
    a4e0:	00165613          	srl	a2,a2,0x1
    a4e4:	00c6c6b3          	xor	a3,a3,a2
    a4e8:	01069693          	sll	a3,a3,0x10
    a4ec:	0106d693          	srl	a3,a3,0x10
    a4f0:	00275613          	srl	a2,a4,0x2
    a4f4:	00d64633          	xor	a2,a2,a3
    a4f8:	00167613          	and	a2,a2,1
    a4fc:	40c00633          	neg	a2,a2
    a500:	00f67633          	and	a2,a2,a5
    a504:	0016d693          	srl	a3,a3,0x1
    a508:	00d64633          	xor	a2,a2,a3
    a50c:	01061613          	sll	a2,a2,0x10
    a510:	01065613          	srl	a2,a2,0x10
    a514:	00375693          	srl	a3,a4,0x3
    a518:	00c6c6b3          	xor	a3,a3,a2
    a51c:	0016f693          	and	a3,a3,1
    a520:	40d006b3          	neg	a3,a3
    a524:	00f6f6b3          	and	a3,a3,a5
    a528:	00165613          	srl	a2,a2,0x1
    a52c:	00c6c6b3          	xor	a3,a3,a2
    a530:	01069693          	sll	a3,a3,0x10
    a534:	0106d693          	srl	a3,a3,0x10
    a538:	00475613          	srl	a2,a4,0x4
    a53c:	00d64633          	xor	a2,a2,a3
    a540:	00167613          	and	a2,a2,1
    a544:	40c00633          	neg	a2,a2
    a548:	00f67633          	and	a2,a2,a5
    a54c:	0016d693          	srl	a3,a3,0x1
    a550:	00d64633          	xor	a2,a2,a3
    a554:	01061613          	sll	a2,a2,0x10
    a558:	01065613          	srl	a2,a2,0x10
    a55c:	00575693          	srl	a3,a4,0x5
    a560:	00c6c6b3          	xor	a3,a3,a2
    a564:	0016f693          	and	a3,a3,1
    a568:	40d006b3          	neg	a3,a3
    a56c:	00f6f6b3          	and	a3,a3,a5
    a570:	00165613          	srl	a2,a2,0x1
    a574:	00c6c6b3          	xor	a3,a3,a2
    a578:	01069693          	sll	a3,a3,0x10
    a57c:	0106d693          	srl	a3,a3,0x10
    a580:	00675613          	srl	a2,a4,0x6
    a584:	00d64633          	xor	a2,a2,a3
    a588:	00167613          	and	a2,a2,1
    a58c:	40c00633          	neg	a2,a2
    a590:	00f67633          	and	a2,a2,a5
    a594:	0016d693          	srl	a3,a3,0x1
    a598:	00d64633          	xor	a2,a2,a3
    a59c:	01061613          	sll	a2,a2,0x10
    a5a0:	01065613          	srl	a2,a2,0x10
    a5a4:	00775693          	srl	a3,a4,0x7
    a5a8:	00c6c6b3          	xor	a3,a3,a2
    a5ac:	0016f693          	and	a3,a3,1
    a5b0:	40d006b3          	neg	a3,a3
    a5b4:	00f6f6b3          	and	a3,a3,a5
    a5b8:	00165613          	srl	a2,a2,0x1
    a5bc:	00c6c6b3          	xor	a3,a3,a2
    a5c0:	01055513          	srl	a0,a0,0x10
    a5c4:	01069693          	sll	a3,a3,0x10
    a5c8:	0ff57713          	zext.b	a4,a0
    a5cc:	0106d693          	srl	a3,a3,0x10
    a5d0:	00d74633          	xor	a2,a4,a3
    a5d4:	00167613          	and	a2,a2,1
    a5d8:	40c00633          	neg	a2,a2
    a5dc:	00f67633          	and	a2,a2,a5
    a5e0:	0016d693          	srl	a3,a3,0x1
    a5e4:	00d646b3          	xor	a3,a2,a3
    a5e8:	01069693          	sll	a3,a3,0x10
    a5ec:	0106d693          	srl	a3,a3,0x10
    a5f0:	00175613          	srl	a2,a4,0x1
    a5f4:	00d64633          	xor	a2,a2,a3
    a5f8:	00167613          	and	a2,a2,1
    a5fc:	40c00633          	neg	a2,a2
    a600:	00f67633          	and	a2,a2,a5
    a604:	0016d693          	srl	a3,a3,0x1
    a608:	00d64633          	xor	a2,a2,a3
    a60c:	01061613          	sll	a2,a2,0x10
    a610:	01065613          	srl	a2,a2,0x10
    a614:	00275693          	srl	a3,a4,0x2
    a618:	00c6c6b3          	xor	a3,a3,a2
    a61c:	0016f693          	and	a3,a3,1
    a620:	40d006b3          	neg	a3,a3
    a624:	00f6f6b3          	and	a3,a3,a5
    a628:	00165613          	srl	a2,a2,0x1
    a62c:	00c6c6b3          	xor	a3,a3,a2
    a630:	01069693          	sll	a3,a3,0x10
    a634:	0106d693          	srl	a3,a3,0x10
    a638:	00375613          	srl	a2,a4,0x3
    a63c:	00d64633          	xor	a2,a2,a3
    a640:	00167613          	and	a2,a2,1
    a644:	40c00633          	neg	a2,a2
    a648:	00f67633          	and	a2,a2,a5
    a64c:	0016d693          	srl	a3,a3,0x1
    a650:	00d64633          	xor	a2,a2,a3
    a654:	01061613          	sll	a2,a2,0x10
    a658:	01065613          	srl	a2,a2,0x10
    a65c:	00475693          	srl	a3,a4,0x4
    a660:	00c6c6b3          	xor	a3,a3,a2
    a664:	0016f693          	and	a3,a3,1
    a668:	40d006b3          	neg	a3,a3
    a66c:	00f6f6b3          	and	a3,a3,a5
    a670:	00165613          	srl	a2,a2,0x1
    a674:	00c6c6b3          	xor	a3,a3,a2
    a678:	01069693          	sll	a3,a3,0x10
    a67c:	0106d693          	srl	a3,a3,0x10
    a680:	00575613          	srl	a2,a4,0x5
    a684:	00d64633          	xor	a2,a2,a3
    a688:	00167613          	and	a2,a2,1
    a68c:	40c00633          	neg	a2,a2
    a690:	00f67633          	and	a2,a2,a5
    a694:	0016d693          	srl	a3,a3,0x1
    a698:	00d64633          	xor	a2,a2,a3
    a69c:	01061613          	sll	a2,a2,0x10
    a6a0:	01065613          	srl	a2,a2,0x10
    a6a4:	00675693          	srl	a3,a4,0x6
    a6a8:	00c6c6b3          	xor	a3,a3,a2
    a6ac:	0016f693          	and	a3,a3,1
    a6b0:	40d006b3          	neg	a3,a3
    a6b4:	00f6f6b3          	and	a3,a3,a5
    a6b8:	00165613          	srl	a2,a2,0x1
    a6bc:	00c6c6b3          	xor	a3,a3,a2
    a6c0:	01069693          	sll	a3,a3,0x10
    a6c4:	0106d693          	srl	a3,a3,0x10
    a6c8:	00775713          	srl	a4,a4,0x7
    a6cc:	00d74733          	xor	a4,a4,a3
    a6d0:	00177713          	and	a4,a4,1
    a6d4:	40e00733          	neg	a4,a4
    a6d8:	00f77733          	and	a4,a4,a5
    a6dc:	0016d693          	srl	a3,a3,0x1
    a6e0:	00d74733          	xor	a4,a4,a3
    a6e4:	01071713          	sll	a4,a4,0x10
    a6e8:	00855513          	srl	a0,a0,0x8
    a6ec:	01075713          	srl	a4,a4,0x10
    a6f0:	00e546b3          	xor	a3,a0,a4
    a6f4:	0016f693          	and	a3,a3,1
    a6f8:	40d006b3          	neg	a3,a3
    a6fc:	00f6f6b3          	and	a3,a3,a5
    a700:	00175713          	srl	a4,a4,0x1
    a704:	00e6c733          	xor	a4,a3,a4
    a708:	01071713          	sll	a4,a4,0x10
    a70c:	01075713          	srl	a4,a4,0x10
    a710:	00155693          	srl	a3,a0,0x1
    a714:	00e6c6b3          	xor	a3,a3,a4
    a718:	0016f693          	and	a3,a3,1
    a71c:	40d006b3          	neg	a3,a3
    a720:	00f6f6b3          	and	a3,a3,a5
    a724:	00175713          	srl	a4,a4,0x1
    a728:	00e6c6b3          	xor	a3,a3,a4
    a72c:	01069693          	sll	a3,a3,0x10
    a730:	0106d693          	srl	a3,a3,0x10
    a734:	00255713          	srl	a4,a0,0x2
    a738:	00d74733          	xor	a4,a4,a3
    a73c:	00177713          	and	a4,a4,1
    a740:	40e00733          	neg	a4,a4
    a744:	00f77733          	and	a4,a4,a5
    a748:	0016d693          	srl	a3,a3,0x1
    a74c:	00d74733          	xor	a4,a4,a3
    a750:	01071713          	sll	a4,a4,0x10
    a754:	01075713          	srl	a4,a4,0x10
    a758:	00355693          	srl	a3,a0,0x3
    a75c:	00e6c6b3          	xor	a3,a3,a4
    a760:	0016f693          	and	a3,a3,1
    a764:	40d006b3          	neg	a3,a3
    a768:	00f6f6b3          	and	a3,a3,a5
    a76c:	00175713          	srl	a4,a4,0x1
    a770:	00e6c6b3          	xor	a3,a3,a4
    a774:	01069693          	sll	a3,a3,0x10
    a778:	0106d693          	srl	a3,a3,0x10
    a77c:	00455713          	srl	a4,a0,0x4
    a780:	00d74733          	xor	a4,a4,a3
    a784:	00177713          	and	a4,a4,1
    a788:	40e00733          	neg	a4,a4
    a78c:	00f77733          	and	a4,a4,a5
    a790:	0016d693          	srl	a3,a3,0x1
    a794:	00d74733          	xor	a4,a4,a3
    a798:	01071713          	sll	a4,a4,0x10
    a79c:	01075713          	srl	a4,a4,0x10
    a7a0:	00555693          	srl	a3,a0,0x5
    a7a4:	00e6c6b3          	xor	a3,a3,a4
    a7a8:	0016f693          	and	a3,a3,1
    a7ac:	40d006b3          	neg	a3,a3
    a7b0:	00f6f6b3          	and	a3,a3,a5
    a7b4:	00175713          	srl	a4,a4,0x1
    a7b8:	00e6c6b3          	xor	a3,a3,a4
    a7bc:	01069693          	sll	a3,a3,0x10
    a7c0:	0106d693          	srl	a3,a3,0x10
    a7c4:	00655713          	srl	a4,a0,0x6
    a7c8:	00d74733          	xor	a4,a4,a3
    a7cc:	00177713          	and	a4,a4,1
    a7d0:	40e00733          	neg	a4,a4
    a7d4:	00f77733          	and	a4,a4,a5
    a7d8:	0016d693          	srl	a3,a3,0x1
    a7dc:	00d74733          	xor	a4,a4,a3
    a7e0:	01071713          	sll	a4,a4,0x10
    a7e4:	01075713          	srl	a4,a4,0x10
    a7e8:	00755513          	srl	a0,a0,0x7
    a7ec:	00e54533          	xor	a0,a0,a4
    a7f0:	00157513          	and	a0,a0,1
    a7f4:	40a00533          	neg	a0,a0
    a7f8:	00f57533          	and	a0,a0,a5
    a7fc:	00175713          	srl	a4,a4,0x1
    a800:	00e54533          	xor	a0,a0,a4
    a804:	01051513          	sll	a0,a0,0x10
    a808:	01055513          	srl	a0,a0,0x10
    a80c:	00008067          	ret

0000a810 <crc16>:
    a810:	0ff57793          	zext.b	a5,a0
    a814:	00b7c6b3          	xor	a3,a5,a1
    a818:	0016f693          	and	a3,a3,1
    a81c:	ffffa737          	lui	a4,0xffffa
    a820:	00170713          	add	a4,a4,1 # ffffa001 <stack_top+0xfffda001>
    a824:	40d006b3          	neg	a3,a3
    a828:	00e6f6b3          	and	a3,a3,a4
    a82c:	0015d593          	srl	a1,a1,0x1
    a830:	00b6c6b3          	xor	a3,a3,a1
    a834:	01069693          	sll	a3,a3,0x10
    a838:	0106d693          	srl	a3,a3,0x10
    a83c:	0017d613          	srl	a2,a5,0x1
    a840:	00d64633          	xor	a2,a2,a3
    a844:	00167613          	and	a2,a2,1
    a848:	40c00633          	neg	a2,a2
    a84c:	00e67633          	and	a2,a2,a4
    a850:	0016d693          	srl	a3,a3,0x1
    a854:	00d64633          	xor	a2,a2,a3
    a858:	01061613          	sll	a2,a2,0x10
    a85c:	01065613          	srl	a2,a2,0x10
    a860:	0027d693          	srl	a3,a5,0x2
    a864:	00c6c6b3          	xor	a3,a3,a2
    a868:	0016f693          	and	a3,a3,1
    a86c:	40d006b3          	neg	a3,a3
    a870:	00e6f6b3          	and	a3,a3,a4
    a874:	00165613          	srl	a2,a2,0x1
    a878:	00c6c6b3          	xor	a3,a3,a2
    a87c:	01069693          	sll	a3,a3,0x10
    a880:	0106d693          	srl	a3,a3,0x10
    a884:	0037d613          	srl	a2,a5,0x3
    a888:	00d64633          	xor	a2,a2,a3
    a88c:	00167613          	and	a2,a2,1
    a890:	40c00633          	neg	a2,a2
    a894:	00e67633          	and	a2,a2,a4
    a898:	0016d693          	srl	a3,a3,0x1
    a89c:	00d64633          	xor	a2,a2,a3
    a8a0:	01061613          	sll	a2,a2,0x10
    a8a4:	01065613          	srl	a2,a2,0x10
    a8a8:	0047d693          	srl	a3,a5,0x4
    a8ac:	00c6c6b3          	xor	a3,a3,a2
    a8b0:	0016f693          	and	a3,a3,1
    a8b4:	40d006b3          	neg	a3,a3
    a8b8:	00e6f6b3          	and	a3,a3,a4
    a8bc:	00165613          	srl	a2,a2,0x1
    a8c0:	00c6c6b3          	xor	a3,a3,a2
    a8c4:	01069693          	sll	a3,a3,0x10
    a8c8:	0106d693          	srl	a3,a3,0x10
    a8cc:	0057d613          	srl	a2,a5,0x5
    a8d0:	00d64633          	xor	a2,a2,a3
    a8d4:	00167613          	and	a2,a2,1
    a8d8:	40c00633          	neg	a2,a2
    a8dc:	00e67633          	and	a2,a2,a4
    a8e0:	0016d693          	srl	a3,a3,0x1
    a8e4:	00d64633          	xor	a2,a2,a3
    a8e8:	01061613          	sll	a2,a2,0x10
    a8ec:	01065613          	srl	a2,a2,0x10
    a8f0:	0067d693          	srl	a3,a5,0x6
    a8f4:	00c6c6b3          	xor	a3,a3,a2
    a8f8:	0016f693          	and	a3,a3,1
    a8fc:	40d006b3          	neg	a3,a3
    a900:	00e6f6b3          	and	a3,a3,a4
    a904:	00165613          	srl	a2,a2,0x1
    a908:	00c6c6b3          	xor	a3,a3,a2
    a90c:	01069693          	sll	a3,a3,0x10
    a910:	0106d693          	srl	a3,a3,0x10
    a914:	0077d793          	srl	a5,a5,0x7
    a918:	00d7c7b3          	xor	a5,a5,a3
    a91c:	0017f793          	and	a5,a5,1
    a920:	40f007b3          	neg	a5,a5
    a924:	00e7f7b3          	and	a5,a5,a4
    a928:	0016d693          	srl	a3,a3,0x1
    a92c:	00d7c7b3          	xor	a5,a5,a3
    a930:	01051513          	sll	a0,a0,0x10
    a934:	01055513          	srl	a0,a0,0x10
    a938:	01079793          	sll	a5,a5,0x10
    a93c:	00855513          	srl	a0,a0,0x8
    a940:	0107d793          	srl	a5,a5,0x10
    a944:	00f546b3          	xor	a3,a0,a5
    a948:	0016f693          	and	a3,a3,1
    a94c:	40d006b3          	neg	a3,a3
    a950:	00e6f6b3          	and	a3,a3,a4
    a954:	0017d793          	srl	a5,a5,0x1
    a958:	00f6c7b3          	xor	a5,a3,a5
    a95c:	01079793          	sll	a5,a5,0x10
    a960:	0107d793          	srl	a5,a5,0x10
    a964:	00155693          	srl	a3,a0,0x1
    a968:	00f6c6b3          	xor	a3,a3,a5
    a96c:	0016f693          	and	a3,a3,1
    a970:	40d006b3          	neg	a3,a3
    a974:	00e6f6b3          	and	a3,a3,a4
    a978:	0017d793          	srl	a5,a5,0x1
    a97c:	00f6c6b3          	xor	a3,a3,a5
    a980:	01069693          	sll	a3,a3,0x10
    a984:	0106d693          	srl	a3,a3,0x10
    a988:	00255793          	srl	a5,a0,0x2
    a98c:	00d7c7b3          	xor	a5,a5,a3
    a990:	0017f793          	and	a5,a5,1
    a994:	40f007b3          	neg	a5,a5
    a998:	00e7f7b3          	and	a5,a5,a4
    a99c:	0016d693          	srl	a3,a3,0x1
    a9a0:	00d7c7b3          	xor	a5,a5,a3
    a9a4:	01079793          	sll	a5,a5,0x10
    a9a8:	0107d793          	srl	a5,a5,0x10
    a9ac:	00355693          	srl	a3,a0,0x3
    a9b0:	00f6c6b3          	xor	a3,a3,a5
    a9b4:	0016f693          	and	a3,a3,1
    a9b8:	40d006b3          	neg	a3,a3
    a9bc:	00e6f6b3          	and	a3,a3,a4
    a9c0:	0017d793          	srl	a5,a5,0x1
    a9c4:	00f6c6b3          	xor	a3,a3,a5
    a9c8:	01069693          	sll	a3,a3,0x10
    a9cc:	0106d693          	srl	a3,a3,0x10
    a9d0:	00455793          	srl	a5,a0,0x4
    a9d4:	00d7c7b3          	xor	a5,a5,a3
    a9d8:	0017f793          	and	a5,a5,1
    a9dc:	40f007b3          	neg	a5,a5
    a9e0:	00e7f7b3          	and	a5,a5,a4
    a9e4:	0016d693          	srl	a3,a3,0x1
    a9e8:	00d7c7b3          	xor	a5,a5,a3
    a9ec:	01079793          	sll	a5,a5,0x10
    a9f0:	0107d793          	srl	a5,a5,0x10
    a9f4:	00555693          	srl	a3,a0,0x5
    a9f8:	00f6c6b3          	xor	a3,a3,a5
    a9fc:	0016f693          	and	a3,a3,1
    aa00:	40d006b3          	neg	a3,a3
    aa04:	00e6f6b3          	and	a3,a3,a4
    aa08:	0017d793          	srl	a5,a5,0x1
    aa0c:	00f6c6b3          	xor	a3,a3,a5
    aa10:	01069693          	sll	a3,a3,0x10
    aa14:	0106d693          	srl	a3,a3,0x10
    aa18:	00655793          	srl	a5,a0,0x6
    aa1c:	00d7c7b3          	xor	a5,a5,a3
    aa20:	0017f793          	and	a5,a5,1
    aa24:	40f007b3          	neg	a5,a5
    aa28:	00e7f7b3          	and	a5,a5,a4
    aa2c:	0016d693          	srl	a3,a3,0x1
    aa30:	00d7c7b3          	xor	a5,a5,a3
    aa34:	01079793          	sll	a5,a5,0x10
    aa38:	0107d793          	srl	a5,a5,0x10
    aa3c:	00755513          	srl	a0,a0,0x7
    aa40:	00f54533          	xor	a0,a0,a5
    aa44:	00157513          	and	a0,a0,1
    aa48:	40a00533          	neg	a0,a0
    aa4c:	00e57533          	and	a0,a0,a4
    aa50:	0017d793          	srl	a5,a5,0x1
    aa54:	00f54533          	xor	a0,a0,a5
    aa58:	01051513          	sll	a0,a0,0x10
    aa5c:	01055513          	srl	a0,a0,0x10
    aa60:	00008067          	ret

0000aa64 <check_data_types>:
    aa64:	00000513          	li	a0,0
    aa68:	00008067          	ret

0000aa6c <barebones_clock>:
    aa6c:	ff010113          	add	sp,sp,-16
    aa70:	00012623          	sw	zero,12(sp)
    aa74:	00c12783          	lw	a5,12(sp)
    aa78:	00f12623          	sw	a5,12(sp)
    aa7c:	00c12783          	lw	a5,12(sp)
    aa80:	00178793          	add	a5,a5,1
    aa84:	00f12623          	sw	a5,12(sp)
    aa88:	00c12783          	lw	a5,12(sp)
    aa8c:	00278793          	add	a5,a5,2
    aa90:	00f12623          	sw	a5,12(sp)
    aa94:	00c12783          	lw	a5,12(sp)
    aa98:	00378793          	add	a5,a5,3
    aa9c:	00f12623          	sw	a5,12(sp)
    aaa0:	00c12783          	lw	a5,12(sp)
    aaa4:	00478793          	add	a5,a5,4
    aaa8:	00f12623          	sw	a5,12(sp)
    aaac:	00c12783          	lw	a5,12(sp)
    aab0:	00578793          	add	a5,a5,5
    aab4:	00f12623          	sw	a5,12(sp)
    aab8:	00c12783          	lw	a5,12(sp)
    aabc:	00678793          	add	a5,a5,6
    aac0:	00f12623          	sw	a5,12(sp)
    aac4:	00c12783          	lw	a5,12(sp)
    aac8:	00778793          	add	a5,a5,7
    aacc:	00f12623          	sw	a5,12(sp)
    aad0:	00c12783          	lw	a5,12(sp)
    aad4:	00878793          	add	a5,a5,8
    aad8:	00f12623          	sw	a5,12(sp)
    aadc:	00c12783          	lw	a5,12(sp)
    aae0:	00978793          	add	a5,a5,9
    aae4:	00f12623          	sw	a5,12(sp)
    aae8:	f0002503          	lw	a0,-256(zero) # ffffff00 <stack_top+0xfffdff00>
    aaec:	01010113          	add	sp,sp,16
    aaf0:	00008067          	ret

0000aaf4 <start_time>:
    aaf4:	000107b7          	lui	a5,0x10
    aaf8:	7807a423          	sw	zero,1928(a5) # 10788 <start_time_val>
    aafc:	00008067          	ret

0000ab00 <stop_time>:
    ab00:	000107b7          	lui	a5,0x10
    ab04:	00a00713          	li	a4,10
    ab08:	78e7a223          	sw	a4,1924(a5) # 10784 <stop_time_val>
    ab0c:	00008067          	ret

0000ab10 <get_time>:
    ab10:	000107b7          	lui	a5,0x10
    ab14:	7847a503          	lw	a0,1924(a5) # 10784 <stop_time_val>
    ab18:	000107b7          	lui	a5,0x10
    ab1c:	7887a783          	lw	a5,1928(a5) # 10788 <start_time_val>
    ab20:	40f50533          	sub	a0,a0,a5
    ab24:	00008067          	ret

0000ab28 <time_in_secs>:
    ab28:	00008067          	ret

0000ab2c <portable_init>:
    ab2c:	00100793          	li	a5,1
    ab30:	00f50023          	sb	a5,0(a0)
    ab34:	00008067          	ret

0000ab38 <portable_fini>:
    ab38:	00050023          	sb	zero,0(a0)
    ab3c:	00008067          	ret

0000ab40 <number>:
    ab40:	fa010113          	add	sp,sp,-96
    ab44:	04812e23          	sw	s0,92(sp)
    ab48:	04912c23          	sw	s1,88(sp)
    ab4c:	0407f813          	and	a6,a5,64
    ab50:	42081663          	bnez	a6,af7c <number+0x43c>
    ab54:	00010f37          	lui	t5,0x10
    ab58:	708f0f13          	add	t5,t5,1800 # 10708 <errpat+0x6d8>
    ab5c:	0107f393          	and	t2,a5,16
    ab60:	3e038e63          	beqz	t2,af5c <number+0x41c>
    ab64:	ffe7f793          	and	a5,a5,-2
    ab68:	01000493          	li	s1,16
    ab6c:	02000f93          	li	t6,32
    ab70:	0027f813          	and	a6,a5,2
    ab74:	0207f293          	and	t0,a5,32
    ab78:	40080863          	beqz	a6,af88 <number+0x448>
    ab7c:	4005ca63          	bltz	a1,af90 <number+0x450>
    ab80:	0047f813          	and	a6,a5,4
    ab84:	44081a63          	bnez	a6,afd8 <number+0x498>
    ab88:	0087f793          	and	a5,a5,8
    ab8c:	00000413          	li	s0,0
    ab90:	00078663          	beqz	a5,ab9c <number+0x5c>
    ab94:	fff68693          	add	a3,a3,-1
    ab98:	02000413          	li	s0,32
    ab9c:	00028e63          	beqz	t0,abb8 <number+0x78>
    aba0:	01000793          	li	a5,16
    aba4:	46f60e63          	beq	a2,a5,b020 <number+0x4e0>
    aba8:	ff860793          	add	a5,a2,-8
    abac:	0017b793          	seqz	a5,a5
    abb0:	02000293          	li	t0,32
    abb4:	40f686b3          	sub	a3,a3,a5
    abb8:	3e059463          	bnez	a1,afa0 <number+0x460>
    abbc:	03000793          	li	a5,48
    abc0:	00f10623          	sb	a5,12(sp)
    abc4:	00100813          	li	a6,1
    abc8:	00c10313          	add	t1,sp,12
    abcc:	00080893          	mv	a7,a6
    abd0:	00e85463          	bge	a6,a4,abd8 <number+0x98>
    abd4:	00070893          	mv	a7,a4
    abd8:	411686b3          	sub	a3,a3,a7
    abdc:	0c049663          	bnez	s1,aca8 <number+0x168>
    abe0:	fff68e13          	add	t3,a3,-1
    abe4:	48d05a63          	blez	a3,b078 <number+0x538>
    abe8:	40a00733          	neg	a4,a0
    abec:	00500e93          	li	t4,5
    abf0:	00377793          	and	a5,a4,3
    abf4:	49cefe63          	bgeu	t4,t3,b090 <number+0x550>
    abf8:	05212a23          	sw	s2,84(sp)
    abfc:	00050e93          	mv	t4,a0
    ac00:	02078663          	beqz	a5,ac2c <number+0xec>
    ac04:	02000e13          	li	t3,32
    ac08:	01c50023          	sb	t3,0(a0)
    ac0c:	00277713          	and	a4,a4,2
    ac10:	3e070663          	beqz	a4,affc <number+0x4bc>
    ac14:	01c500a3          	sb	t3,1(a0)
    ac18:	00300713          	li	a4,3
    ac1c:	44e79863          	bne	a5,a4,b06c <number+0x52c>
    ac20:	01c50123          	sb	t3,2(a0)
    ac24:	00350e93          	add	t4,a0,3
    ac28:	ffc68e13          	add	t3,a3,-4
    ac2c:	40f68933          	sub	s2,a3,a5
    ac30:	ffc97493          	and	s1,s2,-4
    ac34:	00f507b3          	add	a5,a0,a5
    ac38:	20202737          	lui	a4,0x20202
    ac3c:	00978f33          	add	t5,a5,s1
    ac40:	02070713          	add	a4,a4,32 # 20202020 <stack_top+0x201e2020>
    ac44:	00e7a023          	sw	a4,0(a5)
    ac48:	00478793          	add	a5,a5,4
    ac4c:	ffe79ce3          	bne	a5,t5,ac44 <number+0x104>
    ac50:	009e87b3          	add	a5,t4,s1
    ac54:	409e0e33          	sub	t3,t3,s1
    ac58:	3e990e63          	beq	s2,s1,b054 <number+0x514>
    ac5c:	05412903          	lw	s2,84(sp)
    ac60:	02000713          	li	a4,32
    ac64:	00e78023          	sb	a4,0(a5)
    ac68:	03c05c63          	blez	t3,aca0 <number+0x160>
    ac6c:	00e780a3          	sb	a4,1(a5)
    ac70:	00100e93          	li	t4,1
    ac74:	03de0663          	beq	t3,t4,aca0 <number+0x160>
    ac78:	00e78123          	sb	a4,2(a5)
    ac7c:	00200e93          	li	t4,2
    ac80:	03de0063          	beq	t3,t4,aca0 <number+0x160>
    ac84:	00e781a3          	sb	a4,3(a5)
    ac88:	00300e93          	li	t4,3
    ac8c:	01de0a63          	beq	t3,t4,aca0 <number+0x160>
    ac90:	00e78223          	sb	a4,4(a5)
    ac94:	00400e93          	li	t4,4
    ac98:	01de0463          	beq	t3,t4,aca0 <number+0x160>
    ac9c:	00e782a3          	sb	a4,5(a5)
    aca0:	00d50533          	add	a0,a0,a3
    aca4:	fff00693          	li	a3,-1
    aca8:	00040663          	beqz	s0,acb4 <number+0x174>
    acac:	00850023          	sb	s0,0(a0)
    acb0:	00150513          	add	a0,a0,1
    acb4:	00028a63          	beqz	t0,acc8 <number+0x188>
    acb8:	00800793          	li	a5,8
    acbc:	36f60863          	beq	a2,a5,b02c <number+0x4ec>
    acc0:	01000793          	li	a5,16
    acc4:	32f60063          	beq	a2,a5,afe4 <number+0x4a4>
    acc8:	0c039e63          	bnez	t2,ada4 <number+0x264>
    accc:	fff68613          	add	a2,a3,-1
    acd0:	3ad05863          	blez	a3,b080 <number+0x540>
    acd4:	40a00733          	neg	a4,a0
    acd8:	00500e13          	li	t3,5
    acdc:	00377793          	and	a5,a4,3
    ace0:	3ace7463          	bgeu	t3,a2,b088 <number+0x548>
    ace4:	00050e13          	mv	t3,a0
    ace8:	02078c63          	beqz	a5,ad20 <number+0x1e0>
    acec:	01f50023          	sb	t6,0(a0)
    acf0:	00277713          	and	a4,a4,2
    acf4:	00150e13          	add	t3,a0,1
    acf8:	ffe68613          	add	a2,a3,-2
    acfc:	02070263          	beqz	a4,ad20 <number+0x1e0>
    ad00:	01f500a3          	sb	t6,1(a0)
    ad04:	00300713          	li	a4,3
    ad08:	00250e13          	add	t3,a0,2
    ad0c:	ffd68613          	add	a2,a3,-3
    ad10:	00e79863          	bne	a5,a4,ad20 <number+0x1e0>
    ad14:	00350e13          	add	t3,a0,3
    ad18:	01f50123          	sb	t6,2(a0)
    ad1c:	ffc68613          	add	a2,a3,-4
    ad20:	008f9713          	sll	a4,t6,0x8
    ad24:	40f682b3          	sub	t0,a3,a5
    ad28:	010f9f13          	sll	t5,t6,0x10
    ad2c:	00efe733          	or	a4,t6,a4
    ad30:	018f9e93          	sll	t4,t6,0x18
    ad34:	01e76733          	or	a4,a4,t5
    ad38:	00f507b3          	add	a5,a0,a5
    ad3c:	ffc2ff13          	and	t5,t0,-4
    ad40:	01d76733          	or	a4,a4,t4
    ad44:	00ff0eb3          	add	t4,t5,a5
    ad48:	00e7a023          	sw	a4,0(a5)
    ad4c:	00478793          	add	a5,a5,4
    ad50:	fefe9ce3          	bne	t4,a5,ad48 <number+0x208>
    ad54:	01ee07b3          	add	a5,t3,t5
    ad58:	41e60633          	sub	a2,a2,t5
    ad5c:	05e28063          	beq	t0,t5,ad9c <number+0x25c>
    ad60:	01f78023          	sb	t6,0(a5)
    ad64:	02c05c63          	blez	a2,ad9c <number+0x25c>
    ad68:	01f780a3          	sb	t6,1(a5)
    ad6c:	00100713          	li	a4,1
    ad70:	02e60663          	beq	a2,a4,ad9c <number+0x25c>
    ad74:	01f78123          	sb	t6,2(a5)
    ad78:	00200713          	li	a4,2
    ad7c:	02e60063          	beq	a2,a4,ad9c <number+0x25c>
    ad80:	01f781a3          	sb	t6,3(a5)
    ad84:	00300713          	li	a4,3
    ad88:	00e60a63          	beq	a2,a4,ad9c <number+0x25c>
    ad8c:	01f78223          	sb	t6,4(a5)
    ad90:	00400713          	li	a4,4
    ad94:	00e60463          	beq	a2,a4,ad9c <number+0x25c>
    ad98:	01f782a3          	sb	t6,5(a5)
    ad9c:	00d50533          	add	a0,a0,a3
    ada0:	fff00693          	li	a3,-1
    ada4:	fff88613          	add	a2,a7,-1
    ada8:	0d185063          	bge	a6,a7,ae68 <number+0x328>
    adac:	41088f33          	sub	t5,a7,a6
    adb0:	40a00733          	neg	a4,a0
    adb4:	ffff0e93          	add	t4,t5,-1
    adb8:	00500e13          	li	t3,5
    adbc:	00377793          	and	a5,a4,3
    adc0:	29de7e63          	bgeu	t3,t4,b05c <number+0x51c>
    adc4:	00050e13          	mv	t3,a0
    adc8:	02078663          	beqz	a5,adf4 <number+0x2b4>
    adcc:	03000613          	li	a2,48
    add0:	00c50023          	sb	a2,0(a0)
    add4:	00277713          	and	a4,a4,2
    add8:	22070e63          	beqz	a4,b014 <number+0x4d4>
    addc:	00c500a3          	sb	a2,1(a0)
    ade0:	00300713          	li	a4,3
    ade4:	24e79c63          	bne	a5,a4,b03c <number+0x4fc>
    ade8:	00c50123          	sb	a2,2(a0)
    adec:	00350e13          	add	t3,a0,3
    adf0:	ffc88613          	add	a2,a7,-4
    adf4:	40ff0fb3          	sub	t6,t5,a5
    adf8:	ffcffe93          	and	t4,t6,-4
    adfc:	00f507b3          	add	a5,a0,a5
    ae00:	30303737          	lui	a4,0x30303
    ae04:	01d788b3          	add	a7,a5,t4
    ae08:	03070713          	add	a4,a4,48 # 30303030 <stack_top+0x302e3030>
    ae0c:	00e7a023          	sw	a4,0(a5)
    ae10:	00478793          	add	a5,a5,4
    ae14:	ff179ce3          	bne	a5,a7,ae0c <number+0x2cc>
    ae18:	05df8663          	beq	t6,t4,ae64 <number+0x324>
    ae1c:	01de07b3          	add	a5,t3,t4
    ae20:	41d60633          	sub	a2,a2,t4
    ae24:	03000713          	li	a4,48
    ae28:	00e78023          	sb	a4,0(a5)
    ae2c:	fff60893          	add	a7,a2,-1
    ae30:	02c85a63          	bge	a6,a2,ae64 <number+0x324>
    ae34:	00e780a3          	sb	a4,1(a5)
    ae38:	ffe60e13          	add	t3,a2,-2
    ae3c:	03185463          	bge	a6,a7,ae64 <number+0x324>
    ae40:	00e78123          	sb	a4,2(a5)
    ae44:	ffd60893          	add	a7,a2,-3
    ae48:	01c85e63          	bge	a6,t3,ae64 <number+0x324>
    ae4c:	00e781a3          	sb	a4,3(a5)
    ae50:	ffc60613          	add	a2,a2,-4
    ae54:	01185863          	bge	a6,a7,ae64 <number+0x324>
    ae58:	00e78223          	sb	a4,4(a5)
    ae5c:	00c85463          	bge	a6,a2,ae64 <number+0x324>
    ae60:	00e782a3          	sb	a4,5(a5)
    ae64:	01e50533          	add	a0,a0,t5
    ae68:	00b307b3          	add	a5,t1,a1
    ae6c:	00050713          	mv	a4,a0
    ae70:	0007c803          	lbu	a6,0(a5)
    ae74:	00078613          	mv	a2,a5
    ae78:	00170713          	add	a4,a4,1
    ae7c:	ff070fa3          	sb	a6,-1(a4)
    ae80:	fff78793          	add	a5,a5,-1
    ae84:	fec316e3          	bne	t1,a2,ae70 <number+0x330>
    ae88:	00158593          	add	a1,a1,1
    ae8c:	00b50533          	add	a0,a0,a1
    ae90:	fff68613          	add	a2,a3,-1
    ae94:	0ad05c63          	blez	a3,af4c <number+0x40c>
    ae98:	40a00733          	neg	a4,a0
    ae9c:	00500593          	li	a1,5
    aea0:	00377793          	and	a5,a4,3
    aea4:	1cc5f063          	bgeu	a1,a2,b064 <number+0x524>
    aea8:	00050593          	mv	a1,a0
    aeac:	02078663          	beqz	a5,aed8 <number+0x398>
    aeb0:	02000613          	li	a2,32
    aeb4:	00c50023          	sb	a2,0(a0)
    aeb8:	00277713          	and	a4,a4,2
    aebc:	14070663          	beqz	a4,b008 <number+0x4c8>
    aec0:	00c500a3          	sb	a2,1(a0)
    aec4:	00300713          	li	a4,3
    aec8:	18e79063          	bne	a5,a4,b048 <number+0x508>
    aecc:	00c50123          	sb	a2,2(a0)
    aed0:	00350593          	add	a1,a0,3
    aed4:	ffc68613          	add	a2,a3,-4
    aed8:	40f68333          	sub	t1,a3,a5
    aedc:	ffc37893          	and	a7,t1,-4
    aee0:	00f507b3          	add	a5,a0,a5
    aee4:	20202737          	lui	a4,0x20202
    aee8:	00f88833          	add	a6,a7,a5
    aeec:	02070713          	add	a4,a4,32 # 20202020 <stack_top+0x201e2020>
    aef0:	00e7a023          	sw	a4,0(a5)
    aef4:	00478793          	add	a5,a5,4
    aef8:	ff079ce3          	bne	a5,a6,aef0 <number+0x3b0>
    aefc:	05130663          	beq	t1,a7,af48 <number+0x408>
    af00:	011587b3          	add	a5,a1,a7
    af04:	41160633          	sub	a2,a2,a7
    af08:	02000713          	li	a4,32
    af0c:	00e78023          	sb	a4,0(a5)
    af10:	02c05c63          	blez	a2,af48 <number+0x408>
    af14:	00e780a3          	sb	a4,1(a5)
    af18:	00100593          	li	a1,1
    af1c:	02b60663          	beq	a2,a1,af48 <number+0x408>
    af20:	00e78123          	sb	a4,2(a5)
    af24:	00200593          	li	a1,2
    af28:	02b60063          	beq	a2,a1,af48 <number+0x408>
    af2c:	00e781a3          	sb	a4,3(a5)
    af30:	00300593          	li	a1,3
    af34:	00b60a63          	beq	a2,a1,af48 <number+0x408>
    af38:	00e78223          	sb	a4,4(a5)
    af3c:	00400593          	li	a1,4
    af40:	00b60463          	beq	a2,a1,af48 <number+0x408>
    af44:	00e782a3          	sb	a4,5(a5)
    af48:	00d50533          	add	a0,a0,a3
    af4c:	05c12403          	lw	s0,92(sp)
    af50:	05812483          	lw	s1,88(sp)
    af54:	06010113          	add	sp,sp,96
    af58:	00008067          	ret
    af5c:	0017f813          	and	a6,a5,1
    af60:	0117f493          	and	s1,a5,17
    af64:	12080a63          	beqz	a6,b098 <number+0x558>
    af68:	0027f813          	and	a6,a5,2
    af6c:	03000f93          	li	t6,48
    af70:	0207f293          	and	t0,a5,32
    af74:	00080a63          	beqz	a6,af88 <number+0x448>
    af78:	c05ff06f          	j	ab7c <number+0x3c>
    af7c:	00010f37          	lui	t5,0x10
    af80:	730f0f13          	add	t5,t5,1840 # 10730 <errpat+0x700>
    af84:	bd9ff06f          	j	ab5c <number+0x1c>
    af88:	00000413          	li	s0,0
    af8c:	c11ff06f          	j	ab9c <number+0x5c>
    af90:	40b005b3          	neg	a1,a1
    af94:	fff68693          	add	a3,a3,-1
    af98:	02d00413          	li	s0,45
    af9c:	c00292e3          	bnez	t0,aba0 <number+0x60>
    afa0:	00058793          	mv	a5,a1
    afa4:	00000813          	li	a6,0
    afa8:	00c10313          	add	t1,sp,12
    afac:	02c7f8b3          	remu	a7,a5,a2
    afb0:	00080593          	mv	a1,a6
    afb4:	00180813          	add	a6,a6,1
    afb8:	01030eb3          	add	t4,t1,a6
    afbc:	00078e13          	mv	t3,a5
    afc0:	011f08b3          	add	a7,t5,a7
    afc4:	0008c883          	lbu	a7,0(a7)
    afc8:	02c7d7b3          	divu	a5,a5,a2
    afcc:	ff1e8fa3          	sb	a7,-1(t4)
    afd0:	fcce7ee3          	bgeu	t3,a2,afac <number+0x46c>
    afd4:	bf9ff06f          	j	abcc <number+0x8c>
    afd8:	fff68693          	add	a3,a3,-1
    afdc:	02b00413          	li	s0,43
    afe0:	bbdff06f          	j	ab9c <number+0x5c>
    afe4:	03000793          	li	a5,48
    afe8:	00f50023          	sb	a5,0(a0)
    afec:	07800793          	li	a5,120
    aff0:	00f500a3          	sb	a5,1(a0)
    aff4:	00250513          	add	a0,a0,2
    aff8:	cd1ff06f          	j	acc8 <number+0x188>
    affc:	00150e93          	add	t4,a0,1
    b000:	ffe68e13          	add	t3,a3,-2
    b004:	c29ff06f          	j	ac2c <number+0xec>
    b008:	00150593          	add	a1,a0,1
    b00c:	ffe68613          	add	a2,a3,-2
    b010:	ec9ff06f          	j	aed8 <number+0x398>
    b014:	00150e13          	add	t3,a0,1
    b018:	ffe88613          	add	a2,a7,-2
    b01c:	dd9ff06f          	j	adf4 <number+0x2b4>
    b020:	ffe68693          	add	a3,a3,-2
    b024:	02000293          	li	t0,32
    b028:	b91ff06f          	j	abb8 <number+0x78>
    b02c:	03000793          	li	a5,48
    b030:	00f50023          	sb	a5,0(a0)
    b034:	00150513          	add	a0,a0,1
    b038:	c91ff06f          	j	acc8 <number+0x188>
    b03c:	00250e13          	add	t3,a0,2
    b040:	ffd88613          	add	a2,a7,-3
    b044:	db1ff06f          	j	adf4 <number+0x2b4>
    b048:	00250593          	add	a1,a0,2
    b04c:	ffd68613          	add	a2,a3,-3
    b050:	e89ff06f          	j	aed8 <number+0x398>
    b054:	05412903          	lw	s2,84(sp)
    b058:	c49ff06f          	j	aca0 <number+0x160>
    b05c:	00050793          	mv	a5,a0
    b060:	dc5ff06f          	j	ae24 <number+0x2e4>
    b064:	00050793          	mv	a5,a0
    b068:	ea1ff06f          	j	af08 <number+0x3c8>
    b06c:	00250e93          	add	t4,a0,2
    b070:	ffd68e13          	add	t3,a3,-3
    b074:	bb9ff06f          	j	ac2c <number+0xec>
    b078:	000e0693          	mv	a3,t3
    b07c:	c2dff06f          	j	aca8 <number+0x168>
    b080:	00060693          	mv	a3,a2
    b084:	d21ff06f          	j	ada4 <number+0x264>
    b088:	00050793          	mv	a5,a0
    b08c:	cd5ff06f          	j	ad60 <number+0x220>
    b090:	00050793          	mv	a5,a0
    b094:	bcdff06f          	j	ac60 <number+0x120>
    b098:	00000493          	li	s1,0
    b09c:	02000f93          	li	t6,32
    b0a0:	ad1ff06f          	j	ab70 <number+0x30>

0000b0a4 <uart_send_char>:
    b0a4:	ff010113          	add	sp,sp,-16
    b0a8:	00012623          	sw	zero,12(sp)
    b0ac:	00c12703          	lw	a4,12(sp)
    b0b0:	f6fff7b7          	lui	a5,0xf6fff
    b0b4:	00e12623          	sw	a4,12(sp)
    b0b8:	00c12703          	lw	a4,12(sp)
    b0bc:	00170713          	add	a4,a4,1
    b0c0:	00e12623          	sw	a4,12(sp)
    b0c4:	00c12703          	lw	a4,12(sp)
    b0c8:	00270713          	add	a4,a4,2
    b0cc:	00e12623          	sw	a4,12(sp)
    b0d0:	00c12703          	lw	a4,12(sp)
    b0d4:	00370713          	add	a4,a4,3
    b0d8:	00e12623          	sw	a4,12(sp)
    b0dc:	00c12703          	lw	a4,12(sp)
    b0e0:	00470713          	add	a4,a4,4
    b0e4:	00e12623          	sw	a4,12(sp)
    b0e8:	00c12703          	lw	a4,12(sp)
    b0ec:	00570713          	add	a4,a4,5
    b0f0:	00e12623          	sw	a4,12(sp)
    b0f4:	00c12703          	lw	a4,12(sp)
    b0f8:	00670713          	add	a4,a4,6
    b0fc:	00e12623          	sw	a4,12(sp)
    b100:	00c12703          	lw	a4,12(sp)
    b104:	00770713          	add	a4,a4,7
    b108:	00e12623          	sw	a4,12(sp)
    b10c:	00c12703          	lw	a4,12(sp)
    b110:	00870713          	add	a4,a4,8
    b114:	00e12623          	sw	a4,12(sp)
    b118:	00c12703          	lw	a4,12(sp)
    b11c:	00970713          	add	a4,a4,9
    b120:	00e12623          	sw	a4,12(sp)
    b124:	06a78823          	sb	a0,112(a5) # f6fff070 <stack_top+0xf6fdf070>
    b128:	01010113          	add	sp,sp,16
    b12c:	00008067          	ret

0000b130 <ee_printf>:
    b130:	e7010113          	add	sp,sp,-400
    b134:	16912223          	sw	s1,356(sp)
    b138:	16112623          	sw	ra,364(sp)
    b13c:	15412c23          	sw	s4,344(sp)
    b140:	16b12a23          	sw	a1,372(sp)
    b144:	16c12c23          	sw	a2,376(sp)
    b148:	16d12e23          	sw	a3,380(sp)
    b14c:	18e12023          	sw	a4,384(sp)
    b150:	18f12223          	sw	a5,388(sp)
    b154:	19012423          	sw	a6,392(sp)
    b158:	19112623          	sw	a7,396(sp)
    b15c:	00054783          	lbu	a5,0(a0)
    b160:	17410493          	add	s1,sp,372
    b164:	00912a23          	sw	s1,20(sp)
    b168:	00079463          	bnez	a5,b170 <ee_printf+0x40>
    b16c:	0640106f          	j	c1d0 <ee_printf+0x10a0>
    b170:	17212023          	sw	s2,352(sp)
    b174:	03010a13          	add	s4,sp,48
    b178:	00010937          	lui	s2,0x10
    b17c:	16812423          	sw	s0,360(sp)
    b180:	15312e23          	sw	s3,348(sp)
    b184:	15512a23          	sw	s5,340(sp)
    b188:	15612823          	sw	s6,336(sp)
    b18c:	15712623          	sw	s7,332(sp)
    b190:	00050313          	mv	t1,a0
    b194:	15812423          	sw	s8,328(sp)
    b198:	000a0513          	mv	a0,s4
    b19c:	02500993          	li	s3,37
    b1a0:	01000413          	li	s0,16
    b1a4:	05890913          	add	s2,s2,88 # 10058 <errpat+0x28>
    b1a8:	00900b93          	li	s7,9
    b1ac:	02e00b13          	li	s6,46
    b1b0:	04c00a93          	li	s5,76
    b1b4:	0f378a63          	beq	a5,s3,b2a8 <ee_printf+0x178>
    b1b8:	00f50023          	sb	a5,0(a0)
    b1bc:	00134783          	lbu	a5,1(t1)
    b1c0:	00150513          	add	a0,a0,1
    b1c4:	00130313          	add	t1,t1,1
    b1c8:	fe0796e3          	bnez	a5,b1b4 <ee_printf+0x84>
    b1cc:	16812403          	lw	s0,360(sp)
    b1d0:	16012903          	lw	s2,352(sp)
    b1d4:	15c12983          	lw	s3,348(sp)
    b1d8:	15412a83          	lw	s5,340(sp)
    b1dc:	15012b03          	lw	s6,336(sp)
    b1e0:	14c12b83          	lw	s7,332(sp)
    b1e4:	14812c03          	lw	s8,328(sp)
    b1e8:	00050023          	sb	zero,0(a0)
    b1ec:	03014683          	lbu	a3,48(sp)
    b1f0:	7c0684e3          	beqz	a3,c1b8 <ee_printf+0x1088>
    b1f4:	f6fff5b7          	lui	a1,0xf6fff
    b1f8:	000a0793          	mv	a5,s4
    b1fc:	07058593          	add	a1,a1,112 # f6fff070 <stack_top+0xf6fdf070>
    b200:	00012c23          	sw	zero,24(sp)
    b204:	01812703          	lw	a4,24(sp)
    b208:	00078613          	mv	a2,a5
    b20c:	00178793          	add	a5,a5,1
    b210:	00e12c23          	sw	a4,24(sp)
    b214:	01812703          	lw	a4,24(sp)
    b218:	00170713          	add	a4,a4,1
    b21c:	00e12c23          	sw	a4,24(sp)
    b220:	01812703          	lw	a4,24(sp)
    b224:	00270713          	add	a4,a4,2
    b228:	00e12c23          	sw	a4,24(sp)
    b22c:	01812703          	lw	a4,24(sp)
    b230:	00370713          	add	a4,a4,3
    b234:	00e12c23          	sw	a4,24(sp)
    b238:	01812703          	lw	a4,24(sp)
    b23c:	00470713          	add	a4,a4,4
    b240:	00e12c23          	sw	a4,24(sp)
    b244:	01812703          	lw	a4,24(sp)
    b248:	00570713          	add	a4,a4,5
    b24c:	00e12c23          	sw	a4,24(sp)
    b250:	01812703          	lw	a4,24(sp)
    b254:	00670713          	add	a4,a4,6
    b258:	00e12c23          	sw	a4,24(sp)
    b25c:	01812703          	lw	a4,24(sp)
    b260:	00770713          	add	a4,a4,7
    b264:	00e12c23          	sw	a4,24(sp)
    b268:	01812703          	lw	a4,24(sp)
    b26c:	00870713          	add	a4,a4,8
    b270:	00e12c23          	sw	a4,24(sp)
    b274:	01812703          	lw	a4,24(sp)
    b278:	00970713          	add	a4,a4,9
    b27c:	00e12c23          	sw	a4,24(sp)
    b280:	00d58023          	sb	a3,0(a1)
    b284:	0007c683          	lbu	a3,0(a5)
    b288:	f6069ce3          	bnez	a3,b200 <ee_printf+0xd0>
    b28c:	16c12083          	lw	ra,364(sp)
    b290:	41460633          	sub	a2,a2,s4
    b294:	16412483          	lw	s1,356(sp)
    b298:	15812a03          	lw	s4,344(sp)
    b29c:	00160513          	add	a0,a2,1
    b2a0:	19010113          	add	sp,sp,400
    b2a4:	00008067          	ret
    b2a8:	00000793          	li	a5,0
    b2ac:	00134583          	lbu	a1,1(t1)
    b2b0:	00130613          	add	a2,t1,1
    b2b4:	fe058713          	add	a4,a1,-32
    b2b8:	0ff77713          	zext.b	a4,a4
    b2bc:	00e46a63          	bltu	s0,a4,b2d0 <ee_printf+0x1a0>
    b2c0:	00271713          	sll	a4,a4,0x2
    b2c4:	01270733          	add	a4,a4,s2
    b2c8:	00072703          	lw	a4,0(a4)
    b2cc:	00070067          	jr	a4
    b2d0:	fd058713          	add	a4,a1,-48
    b2d4:	0ff77713          	zext.b	a4,a4
    b2d8:	10ebfc63          	bgeu	s7,a4,b3f0 <ee_printf+0x2c0>
    b2dc:	02a00713          	li	a4,42
    b2e0:	fff00693          	li	a3,-1
    b2e4:	14e58063          	beq	a1,a4,b424 <ee_printf+0x2f4>
    b2e8:	fff00713          	li	a4,-1
    b2ec:	0d658c63          	beq	a1,s6,b3c4 <ee_printf+0x294>
    b2f0:	0df5f813          	and	a6,a1,223
    b2f4:	09580e63          	beq	a6,s5,b390 <ee_printf+0x260>
    b2f8:	fbf58813          	add	a6,a1,-65
    b2fc:	0ff87813          	zext.b	a6,a6
    b300:	03700893          	li	a7,55
    b304:	0508ec63          	bltu	a7,a6,b35c <ee_printf+0x22c>
    b308:	000108b7          	lui	a7,0x10
    b30c:	00281813          	sll	a6,a6,0x2
    b310:	09c88893          	add	a7,a7,156 # 1009c <errpat+0x6c>
    b314:	01180833          	add	a6,a6,a7
    b318:	00082803          	lw	a6,0(a6)
    b31c:	00080067          	jr	a6
    b320:	0017e793          	or	a5,a5,1
    b324:	00060313          	mv	t1,a2
    b328:	f85ff06f          	j	b2ac <ee_printf+0x17c>
    b32c:	0107e793          	or	a5,a5,16
    b330:	00060313          	mv	t1,a2
    b334:	f79ff06f          	j	b2ac <ee_printf+0x17c>
    b338:	0047e793          	or	a5,a5,4
    b33c:	00060313          	mv	t1,a2
    b340:	f6dff06f          	j	b2ac <ee_printf+0x17c>
    b344:	0207e793          	or	a5,a5,32
    b348:	00060313          	mv	t1,a2
    b34c:	f61ff06f          	j	b2ac <ee_printf+0x17c>
    b350:	0087e793          	or	a5,a5,8
    b354:	00060313          	mv	t1,a2
    b358:	f55ff06f          	j	b2ac <ee_printf+0x17c>
    b35c:	00060c13          	mv	s8,a2
    b360:	02500793          	li	a5,37
    b364:	00f58a63          	beq	a1,a5,b378 <ee_printf+0x248>
    b368:	00f50023          	sb	a5,0(a0)
    b36c:	000c4583          	lbu	a1,0(s8)
    b370:	00150513          	add	a0,a0,1
    b374:	e4058ce3          	beqz	a1,b1cc <ee_printf+0x9c>
    b378:	00b50023          	sb	a1,0(a0)
    b37c:	001c4783          	lbu	a5,1(s8)
    b380:	001c0313          	add	t1,s8,1
    b384:	00150513          	add	a0,a0,1
    b388:	e20796e3          	bnez	a5,b1b4 <ee_printf+0x84>
    b38c:	e41ff06f          	j	b1cc <ee_printf+0x9c>
    b390:	00058313          	mv	t1,a1
    b394:	00164583          	lbu	a1,1(a2)
    b398:	03700893          	li	a7,55
    b39c:	00160c13          	add	s8,a2,1
    b3a0:	fbf58813          	add	a6,a1,-65
    b3a4:	0ff87813          	zext.b	a6,a6
    b3a8:	fb08ece3          	bltu	a7,a6,b360 <ee_printf+0x230>
    b3ac:	000108b7          	lui	a7,0x10
    b3b0:	00281813          	sll	a6,a6,0x2
    b3b4:	17c88893          	add	a7,a7,380 # 1017c <errpat+0x14c>
    b3b8:	01180833          	add	a6,a6,a7
    b3bc:	00082803          	lw	a6,0(a6)
    b3c0:	00080067          	jr	a6
    b3c4:	00164583          	lbu	a1,1(a2)
    b3c8:	00900813          	li	a6,9
    b3cc:	00160893          	add	a7,a2,1
    b3d0:	fd058713          	add	a4,a1,-48
    b3d4:	0ff77713          	zext.b	a4,a4
    b3d8:	36e87463          	bgeu	a6,a4,b740 <ee_printf+0x610>
    b3dc:	02a00713          	li	a4,42
    b3e0:	3ae58263          	beq	a1,a4,b784 <ee_printf+0x654>
    b3e4:	00088613          	mv	a2,a7
    b3e8:	00000713          	li	a4,0
    b3ec:	f05ff06f          	j	b2f0 <ee_printf+0x1c0>
    b3f0:	00000693          	li	a3,0
    b3f4:	00900813          	li	a6,9
    b3f8:	00269713          	sll	a4,a3,0x2
    b3fc:	00d70733          	add	a4,a4,a3
    b400:	00160613          	add	a2,a2,1
    b404:	00171713          	sll	a4,a4,0x1
    b408:	00b70733          	add	a4,a4,a1
    b40c:	00064583          	lbu	a1,0(a2)
    b410:	fd070693          	add	a3,a4,-48
    b414:	fd058713          	add	a4,a1,-48
    b418:	0ff77713          	zext.b	a4,a4
    b41c:	fce87ee3          	bgeu	a6,a4,b3f8 <ee_printf+0x2c8>
    b420:	ec9ff06f          	j	b2e8 <ee_printf+0x1b8>
    b424:	0004a683          	lw	a3,0(s1)
    b428:	00234583          	lbu	a1,2(t1)
    b42c:	00230613          	add	a2,t1,2
    b430:	00448493          	add	s1,s1,4
    b434:	ea06dae3          	bgez	a3,b2e8 <ee_printf+0x1b8>
    b438:	40d006b3          	neg	a3,a3
    b43c:	0107e793          	or	a5,a5,16
    b440:	ea9ff06f          	j	b2e8 <ee_printf+0x1b8>
    b444:	0407e793          	or	a5,a5,64
    b448:	01000613          	li	a2,16
    b44c:	0004a583          	lw	a1,0(s1)
    b450:	00448493          	add	s1,s1,4
    b454:	eecff0ef          	jal	ab40 <number>
    b458:	001c4783          	lbu	a5,1(s8)
    b45c:	001c0313          	add	t1,s8,1
    b460:	d4079ae3          	bnez	a5,b1b4 <ee_printf+0x84>
    b464:	d69ff06f          	j	b1cc <ee_printf+0x9c>
    b468:	00060c13          	mv	s8,a2
    b46c:	00a00613          	li	a2,10
    b470:	fddff06f          	j	b44c <ee_printf+0x31c>
    b474:	00060c13          	mv	s8,a2
    b478:	0004a883          	lw	a7,0(s1)
    b47c:	00448493          	add	s1,s1,4
    b480:	32088863          	beqz	a7,b7b0 <ee_printf+0x680>
    b484:	0008c603          	lbu	a2,0(a7)
    b488:	780600e3          	beqz	a2,c408 <ee_printf+0x12d8>
    b48c:	76070ee3          	beqz	a4,c408 <ee_printf+0x12d8>
    b490:	00088613          	mv	a2,a7
    b494:	00c0006f          	j	b4a0 <ee_printf+0x370>
    b498:	40e605b3          	sub	a1,a2,a4
    b49c:	01158863          	beq	a1,a7,b4ac <ee_printf+0x37c>
    b4a0:	00164583          	lbu	a1,1(a2)
    b4a4:	00160613          	add	a2,a2,1
    b4a8:	fe0598e3          	bnez	a1,b498 <ee_printf+0x368>
    b4ac:	0107f793          	and	a5,a5,16
    b4b0:	41160633          	sub	a2,a2,a7
    b4b4:	3e078863          	beqz	a5,b8a4 <ee_printf+0x774>
    b4b8:	08c05263          	blez	a2,b53c <ee_printf+0x40c>
    b4bc:	fff60793          	add	a5,a2,-1
    b4c0:	00600713          	li	a4,6
    b4c4:	4cf776e3          	bgeu	a4,a5,c190 <ee_printf+0x1060>
    b4c8:	00a8e7b3          	or	a5,a7,a0
    b4cc:	0037f793          	and	a5,a5,3
    b4d0:	4c0790e3          	bnez	a5,c190 <ee_printf+0x1060>
    b4d4:	00188793          	add	a5,a7,1
    b4d8:	40f50733          	sub	a4,a0,a5
    b4dc:	00373713          	sltiu	a4,a4,3
    b4e0:	4a071ae3          	bnez	a4,c194 <ee_printf+0x1064>
    b4e4:	00088793          	mv	a5,a7
    b4e8:	ffc67893          	and	a7,a2,-4
    b4ec:	00050713          	mv	a4,a0
    b4f0:	01178833          	add	a6,a5,a7
    b4f4:	0007a583          	lw	a1,0(a5)
    b4f8:	00478793          	add	a5,a5,4
    b4fc:	00470713          	add	a4,a4,4
    b500:	feb72e23          	sw	a1,-4(a4)
    b504:	fef818e3          	bne	a6,a5,b4f4 <ee_printf+0x3c4>
    b508:	02c88863          	beq	a7,a2,b538 <ee_printf+0x408>
    b50c:	00084583          	lbu	a1,0(a6)
    b510:	011507b3          	add	a5,a0,a7
    b514:	00188713          	add	a4,a7,1
    b518:	00b78023          	sb	a1,0(a5)
    b51c:	00c75e63          	bge	a4,a2,b538 <ee_printf+0x408>
    b520:	00184703          	lbu	a4,1(a6)
    b524:	00288893          	add	a7,a7,2
    b528:	00e780a3          	sb	a4,1(a5)
    b52c:	00c8d663          	bge	a7,a2,b538 <ee_printf+0x408>
    b530:	00284703          	lbu	a4,2(a6)
    b534:	00e78123          	sb	a4,2(a5)
    b538:	00c50533          	add	a0,a0,a2
    b53c:	fff68713          	add	a4,a3,-1
    b540:	001c0313          	add	t1,s8,1
    b544:	74d658e3          	bge	a2,a3,c494 <ee_printf+0x1364>
    b548:	40c688b3          	sub	a7,a3,a2
    b54c:	40a00833          	neg	a6,a0
    b550:	fff88e13          	add	t3,a7,-1
    b554:	00500593          	li	a1,5
    b558:	00387793          	and	a5,a6,3
    b55c:	7dc5fce3          	bgeu	a1,t3,c534 <ee_printf+0x1404>
    b560:	00050593          	mv	a1,a0
    b564:	02078663          	beqz	a5,b590 <ee_printf+0x460>
    b568:	02000713          	li	a4,32
    b56c:	00e50023          	sb	a4,0(a0)
    b570:	00287813          	and	a6,a6,2
    b574:	6c080ce3          	beqz	a6,c44c <ee_printf+0x131c>
    b578:	00e500a3          	sb	a4,1(a0)
    b57c:	00300593          	li	a1,3
    b580:	70b794e3          	bne	a5,a1,c488 <ee_printf+0x1358>
    b584:	00e50123          	sb	a4,2(a0)
    b588:	00350593          	add	a1,a0,3
    b58c:	ffc68713          	add	a4,a3,-4
    b590:	40f88eb3          	sub	t4,a7,a5
    b594:	ffcefe13          	and	t3,t4,-4
    b598:	00f507b3          	add	a5,a0,a5
    b59c:	202026b7          	lui	a3,0x20202
    b5a0:	00fe0833          	add	a6,t3,a5
    b5a4:	02068693          	add	a3,a3,32 # 20202020 <stack_top+0x201e2020>
    b5a8:	00d7a023          	sw	a3,0(a5)
    b5ac:	00478793          	add	a5,a5,4
    b5b0:	fef81ce3          	bne	a6,a5,b5a8 <ee_printf+0x478>
    b5b4:	01c587b3          	add	a5,a1,t3
    b5b8:	41c70733          	sub	a4,a4,t3
    b5bc:	05ce8263          	beq	t4,t3,b600 <ee_printf+0x4d0>
    b5c0:	02000693          	li	a3,32
    b5c4:	00d78023          	sb	a3,0(a5)
    b5c8:	fff70593          	add	a1,a4,-1
    b5cc:	02e65a63          	bge	a2,a4,b600 <ee_printf+0x4d0>
    b5d0:	00d780a3          	sb	a3,1(a5)
    b5d4:	ffe70813          	add	a6,a4,-2
    b5d8:	02b65463          	bge	a2,a1,b600 <ee_printf+0x4d0>
    b5dc:	00d78123          	sb	a3,2(a5)
    b5e0:	ffd70593          	add	a1,a4,-3
    b5e4:	01065e63          	bge	a2,a6,b600 <ee_printf+0x4d0>
    b5e8:	00d781a3          	sb	a3,3(a5)
    b5ec:	ffc70713          	add	a4,a4,-4
    b5f0:	00b65863          	bge	a2,a1,b600 <ee_printf+0x4d0>
    b5f4:	00d78223          	sb	a3,4(a5)
    b5f8:	00e65463          	bge	a2,a4,b600 <ee_printf+0x4d0>
    b5fc:	00d782a3          	sb	a3,5(a5)
    b600:	001c4783          	lbu	a5,1(s8)
    b604:	01150533          	add	a0,a0,a7
    b608:	ba0796e3          	bnez	a5,b1b4 <ee_printf+0x84>
    b60c:	bc1ff06f          	j	b1cc <ee_printf+0x9c>
    b610:	00060c13          	mv	s8,a2
    b614:	fff00613          	li	a2,-1
    b618:	18c68663          	beq	a3,a2,b7a4 <ee_printf+0x674>
    b61c:	0004a583          	lw	a1,0(s1)
    b620:	01000613          	li	a2,16
    b624:	00448493          	add	s1,s1,4
    b628:	d18ff0ef          	jal	ab40 <number>
    b62c:	001c4783          	lbu	a5,1(s8)
    b630:	001c0313          	add	t1,s8,1
    b634:	b80790e3          	bnez	a5,b1b4 <ee_printf+0x84>
    b638:	b95ff06f          	j	b1cc <ee_printf+0x9c>
    b63c:	00060c13          	mv	s8,a2
    b640:	00800613          	li	a2,8
    b644:	e09ff06f          	j	b44c <ee_printf+0x31c>
    b648:	00060c13          	mv	s8,a2
    b64c:	0107f793          	and	a5,a5,16
    b650:	00448893          	add	a7,s1,4
    b654:	001c0313          	add	t1,s8,1
    b658:	16078263          	beqz	a5,b7bc <ee_printf+0x68c>
    b65c:	0004a783          	lw	a5,0(s1)
    b660:	fff68613          	add	a2,a3,-1
    b664:	00150713          	add	a4,a0,1
    b668:	00f50023          	sb	a5,0(a0)
    b66c:	72c05ae3          	blez	a2,c5a0 <ee_printf+0x1470>
    b670:	40e005b3          	neg	a1,a4
    b674:	ffe68813          	add	a6,a3,-2
    b678:	00500e93          	li	t4,5
    b67c:	00060e13          	mv	t3,a2
    b680:	0035f793          	and	a5,a1,3
    b684:	070ed263          	bge	t4,a6,b6e8 <ee_printf+0x5b8>
    b688:	02078663          	beqz	a5,b6b4 <ee_printf+0x584>
    b68c:	02000613          	li	a2,32
    b690:	00c500a3          	sb	a2,1(a0)
    b694:	0025f593          	and	a1,a1,2
    b698:	5a0584e3          	beqz	a1,c440 <ee_printf+0x1310>
    b69c:	00c50123          	sb	a2,2(a0)
    b6a0:	00300713          	li	a4,3
    b6a4:	60e790e3          	bne	a5,a4,c4a4 <ee_printf+0x1374>
    b6a8:	00c501a3          	sb	a2,3(a0)
    b6ac:	00450713          	add	a4,a0,4
    b6b0:	ffc68613          	add	a2,a3,-4
    b6b4:	40fe0e33          	sub	t3,t3,a5
    b6b8:	00178793          	add	a5,a5,1
    b6bc:	00f507b3          	add	a5,a0,a5
    b6c0:	ffce7e93          	and	t4,t3,-4
    b6c4:	202025b7          	lui	a1,0x20202
    b6c8:	00fe8833          	add	a6,t4,a5
    b6cc:	02058593          	add	a1,a1,32 # 20202020 <stack_top+0x201e2020>
    b6d0:	00b7a023          	sw	a1,0(a5)
    b6d4:	00478793          	add	a5,a5,4
    b6d8:	fef81ce3          	bne	a6,a5,b6d0 <ee_printf+0x5a0>
    b6dc:	01d70733          	add	a4,a4,t4
    b6e0:	41d60633          	sub	a2,a2,t4
    b6e4:	05de0463          	beq	t3,t4,b72c <ee_printf+0x5fc>
    b6e8:	02000793          	li	a5,32
    b6ec:	00f70023          	sb	a5,0(a4)
    b6f0:	00100593          	li	a1,1
    b6f4:	02c5dc63          	bge	a1,a2,b72c <ee_printf+0x5fc>
    b6f8:	00f700a3          	sb	a5,1(a4)
    b6fc:	00200593          	li	a1,2
    b700:	02b60663          	beq	a2,a1,b72c <ee_printf+0x5fc>
    b704:	00f70123          	sb	a5,2(a4)
    b708:	00300593          	li	a1,3
    b70c:	02b60063          	beq	a2,a1,b72c <ee_printf+0x5fc>
    b710:	00f701a3          	sb	a5,3(a4)
    b714:	00400593          	li	a1,4
    b718:	00b60a63          	beq	a2,a1,b72c <ee_printf+0x5fc>
    b71c:	00f70223          	sb	a5,4(a4)
    b720:	00500593          	li	a1,5
    b724:	00b60463          	beq	a2,a1,b72c <ee_printf+0x5fc>
    b728:	00f702a3          	sb	a5,5(a4)
    b72c:	001c4783          	lbu	a5,1(s8)
    b730:	00d50533          	add	a0,a0,a3
    b734:	00088493          	mv	s1,a7
    b738:	a6079ee3          	bnez	a5,b1b4 <ee_printf+0x84>
    b73c:	a91ff06f          	j	b1cc <ee_printf+0x9c>
    b740:	00000713          	li	a4,0
    b744:	00070313          	mv	t1,a4
    b748:	00231713          	sll	a4,t1,0x2
    b74c:	00670733          	add	a4,a4,t1
    b750:	00188893          	add	a7,a7,1
    b754:	00171713          	sll	a4,a4,0x1
    b758:	00b70733          	add	a4,a4,a1
    b75c:	0008c583          	lbu	a1,0(a7)
    b760:	fd070313          	add	t1,a4,-48
    b764:	fd058613          	add	a2,a1,-48
    b768:	0ff67613          	zext.b	a2,a2
    b76c:	fcc87ee3          	bgeu	a6,a2,b748 <ee_printf+0x618>
    b770:	fff34613          	not	a2,t1
    b774:	41f65613          	sra	a2,a2,0x1f
    b778:	00c37733          	and	a4,t1,a2
    b77c:	00088613          	mv	a2,a7
    b780:	b71ff06f          	j	b2f0 <ee_printf+0x1c0>
    b784:	0004a703          	lw	a4,0(s1)
    b788:	00264583          	lbu	a1,2(a2)
    b78c:	00448493          	add	s1,s1,4
    b790:	fff74813          	not	a6,a4
    b794:	41f85813          	sra	a6,a6,0x1f
    b798:	01077733          	and	a4,a4,a6
    b79c:	00260613          	add	a2,a2,2
    b7a0:	b51ff06f          	j	b2f0 <ee_printf+0x1c0>
    b7a4:	0017e793          	or	a5,a5,1
    b7a8:	00800693          	li	a3,8
    b7ac:	e71ff06f          	j	b61c <ee_printf+0x4ec>
    b7b0:	000108b7          	lui	a7,0x10
    b7b4:	75888893          	add	a7,a7,1880 # 10758 <errpat+0x728>
    b7b8:	cd5ff06f          	j	b48c <ee_printf+0x35c>
    b7bc:	00100793          	li	a5,1
    b7c0:	46d7d0e3          	bge	a5,a3,c420 <ee_printf+0x12f0>
    b7c4:	fff68613          	add	a2,a3,-1
    b7c8:	40a005b3          	neg	a1,a0
    b7cc:	ffe68e13          	add	t3,a3,-2
    b7d0:	00500713          	li	a4,5
    b7d4:	00060813          	mv	a6,a2
    b7d8:	0035f793          	and	a5,a1,3
    b7dc:	5bc75ee3          	bge	a4,t3,c598 <ee_printf+0x1468>
    b7e0:	00050713          	mv	a4,a0
    b7e4:	02078663          	beqz	a5,b810 <ee_printf+0x6e0>
    b7e8:	02000613          	li	a2,32
    b7ec:	00c50023          	sb	a2,0(a0)
    b7f0:	0025f593          	and	a1,a1,2
    b7f4:	54058ee3          	beqz	a1,c550 <ee_printf+0x1420>
    b7f8:	00c500a3          	sb	a2,1(a0)
    b7fc:	00300713          	li	a4,3
    b800:	54e792e3          	bne	a5,a4,c544 <ee_printf+0x1414>
    b804:	00c50123          	sb	a2,2(a0)
    b808:	00350713          	add	a4,a0,3
    b80c:	ffc68613          	add	a2,a3,-4
    b810:	40f80f33          	sub	t5,a6,a5
    b814:	ffcf7e13          	and	t3,t5,-4
    b818:	00f507b3          	add	a5,a0,a5
    b81c:	202025b7          	lui	a1,0x20202
    b820:	00fe0eb3          	add	t4,t3,a5
    b824:	02058593          	add	a1,a1,32 # 20202020 <stack_top+0x201e2020>
    b828:	00b7a023          	sw	a1,0(a5)
    b82c:	00478793          	add	a5,a5,4
    b830:	fefe9ce3          	bne	t4,a5,b828 <ee_printf+0x6f8>
    b834:	05cf0863          	beq	t5,t3,b884 <ee_printf+0x754>
    b838:	01c707b3          	add	a5,a4,t3
    b83c:	41c60633          	sub	a2,a2,t3
    b840:	02000713          	li	a4,32
    b844:	00e78023          	sb	a4,0(a5)
    b848:	00100593          	li	a1,1
    b84c:	02c5dc63          	bge	a1,a2,b884 <ee_printf+0x754>
    b850:	00e780a3          	sb	a4,1(a5)
    b854:	00200593          	li	a1,2
    b858:	02b60663          	beq	a2,a1,b884 <ee_printf+0x754>
    b85c:	00e78123          	sb	a4,2(a5)
    b860:	00300593          	li	a1,3
    b864:	02b60063          	beq	a2,a1,b884 <ee_printf+0x754>
    b868:	00e781a3          	sb	a4,3(a5)
    b86c:	00400593          	li	a1,4
    b870:	00b60a63          	beq	a2,a1,b884 <ee_printf+0x754>
    b874:	00e78223          	sb	a4,4(a5)
    b878:	00500593          	li	a1,5
    b87c:	00b60463          	beq	a2,a1,b884 <ee_printf+0x754>
    b880:	00e782a3          	sb	a4,5(a5)
    b884:	0004a783          	lw	a5,0(s1)
    b888:	01050833          	add	a6,a0,a6
    b88c:	00d50533          	add	a0,a0,a3
    b890:	00f80023          	sb	a5,0(a6)
    b894:	001c4783          	lbu	a5,1(s8)
    b898:	00088493          	mv	s1,a7
    b89c:	90079ce3          	bnez	a5,b1b4 <ee_printf+0x84>
    b8a0:	92dff06f          	j	b1cc <ee_printf+0x9c>
    b8a4:	fff68593          	add	a1,a3,-1
    b8a8:	36d658e3          	bge	a2,a3,c418 <ee_printf+0x12e8>
    b8ac:	40c68333          	sub	t1,a3,a2
    b8b0:	40a007b3          	neg	a5,a0
    b8b4:	fff30e13          	add	t3,t1,-1
    b8b8:	00500813          	li	a6,5
    b8bc:	0037f713          	and	a4,a5,3
    b8c0:	47c87ee3          	bgeu	a6,t3,c53c <ee_printf+0x140c>
    b8c4:	00050813          	mv	a6,a0
    b8c8:	02070663          	beqz	a4,b8f4 <ee_printf+0x7c4>
    b8cc:	02000593          	li	a1,32
    b8d0:	00b50023          	sb	a1,0(a0)
    b8d4:	0027f793          	and	a5,a5,2
    b8d8:	480788e3          	beqz	a5,c568 <ee_printf+0x1438>
    b8dc:	00b500a3          	sb	a1,1(a0)
    b8e0:	00300793          	li	a5,3
    b8e4:	46f71ce3          	bne	a4,a5,c55c <ee_printf+0x142c>
    b8e8:	00b50123          	sb	a1,2(a0)
    b8ec:	00350813          	add	a6,a0,3
    b8f0:	ffc68593          	add	a1,a3,-4
    b8f4:	40e30eb3          	sub	t4,t1,a4
    b8f8:	ffcef693          	and	a3,t4,-4
    b8fc:	00e50733          	add	a4,a0,a4
    b900:	202027b7          	lui	a5,0x20202
    b904:	00d70e33          	add	t3,a4,a3
    b908:	02078793          	add	a5,a5,32 # 20202020 <stack_top+0x201e2020>
    b90c:	00f72023          	sw	a5,0(a4)
    b910:	00470713          	add	a4,a4,4
    b914:	ffc71ce3          	bne	a4,t3,b90c <ee_printf+0x7dc>
    b918:	04de8663          	beq	t4,a3,b964 <ee_printf+0x834>
    b91c:	00d80733          	add	a4,a6,a3
    b920:	40d585b3          	sub	a1,a1,a3
    b924:	02000793          	li	a5,32
    b928:	00f70023          	sb	a5,0(a4)
    b92c:	fff58693          	add	a3,a1,-1
    b930:	02b65a63          	bge	a2,a1,b964 <ee_printf+0x834>
    b934:	00f700a3          	sb	a5,1(a4)
    b938:	ffe58813          	add	a6,a1,-2
    b93c:	02d65463          	bge	a2,a3,b964 <ee_printf+0x834>
    b940:	00f70123          	sb	a5,2(a4)
    b944:	ffd58693          	add	a3,a1,-3
    b948:	01065e63          	bge	a2,a6,b964 <ee_printf+0x834>
    b94c:	00f701a3          	sb	a5,3(a4)
    b950:	ffc58593          	add	a1,a1,-4
    b954:	00d65863          	bge	a2,a3,b964 <ee_printf+0x834>
    b958:	00f70223          	sb	a5,4(a4)
    b95c:	00b65463          	bge	a2,a1,b964 <ee_printf+0x834>
    b960:	00f702a3          	sb	a5,5(a4)
    b964:	fff60693          	add	a3,a2,-1
    b968:	00650533          	add	a0,a0,t1
    b96c:	b4dff06f          	j	b4b8 <ee_printf+0x388>
    b970:	06c00613          	li	a2,108
    b974:	0027e793          	or	a5,a5,2
    b978:	00448813          	add	a6,s1,4
    b97c:	aec308e3          	beq	t1,a2,b46c <ee_printf+0x33c>
    b980:	0004a583          	lw	a1,0(s1)
    b984:	00a00613          	li	a2,10
    b988:	00080493          	mv	s1,a6
    b98c:	ac9ff06f          	j	b454 <ee_printf+0x324>
    b990:	06c00713          	li	a4,108
    b994:	1ce302e3          	beq	t1,a4,c358 <ee_printf+0x1228>
    b998:	0004a803          	lw	a6,0(s1)
    b99c:	00448493          	add	s1,s1,4
    b9a0:	00084603          	lbu	a2,0(a6)
    b9a4:	7c060c63          	beqz	a2,c17c <ee_printf+0x104c>
    b9a8:	06300713          	li	a4,99
    b9ac:	16c75ae3          	bge	a4,a2,c320 <ee_printf+0x11f0>
    b9b0:	06400313          	li	t1,100
    b9b4:	02666fb3          	rem	t6,a2,t1
    b9b8:	00a00f13          	li	t5,10
    b9bc:	00010737          	lui	a4,0x10
    b9c0:	70870713          	add	a4,a4,1800 # 10708 <errpat+0x6d8>
    b9c4:	00400893          	li	a7,4
    b9c8:	00300593          	li	a1,3
    b9cc:	00200e13          	li	t3,2
    b9d0:	03efceb3          	div	t4,t6,t5
    b9d4:	02664633          	div	a2,a2,t1
    b9d8:	01d70333          	add	t1,a4,t4
    b9dc:	00034e83          	lbu	t4,0(t1)
    b9e0:	008e9e93          	sll	t4,t4,0x8
    b9e4:	00c70633          	add	a2,a4,a2
    b9e8:	00064303          	lbu	t1,0(a2)
    b9ec:	03efe633          	rem	a2,t6,t5
    b9f0:	01d36333          	or	t1,t1,t4
    b9f4:	00611c23          	sh	t1,24(sp)
    b9f8:	00c70633          	add	a2,a4,a2
    b9fc:	00064703          	lbu	a4,0(a2)
    ba00:	01010313          	add	t1,sp,16
    ba04:	120e0613          	add	a2,t3,288
    ba08:	00660e33          	add	t3,a2,t1
    ba0c:	eeee0423          	sb	a4,-280(t3)
    ba10:	12058713          	add	a4,a1,288
    ba14:	01010313          	add	t1,sp,16
    ba18:	00184603          	lbu	a2,1(a6)
    ba1c:	00670333          	add	t1,a4,t1
    ba20:	02e00713          	li	a4,46
    ba24:	eee30423          	sb	a4,-280(t1)
    ba28:	72060c63          	beqz	a2,c160 <ee_printf+0x1030>
    ba2c:	06300713          	li	a4,99
    ba30:	06c75ce3          	bge	a4,a2,c2a8 <ee_printf+0x1178>
    ba34:	06400e13          	li	t3,100
    ba38:	00a00e93          	li	t4,10
    ba3c:	12088893          	add	a7,a7,288
    ba40:	01010f93          	add	t6,sp,16
    ba44:	01f88fb3          	add	t6,a7,t6
    ba48:	00358893          	add	a7,a1,3
    ba4c:	00010737          	lui	a4,0x10
    ba50:	70870713          	add	a4,a4,1800 # 10708 <errpat+0x6d8>
    ba54:	03c66f33          	rem	t5,a2,t3
    ba58:	03c64633          	div	a2,a2,t3
    ba5c:	03df45b3          	div	a1,t5,t4
    ba60:	00c70633          	add	a2,a4,a2
    ba64:	00064603          	lbu	a2,0(a2)
    ba68:	eecf8423          	sb	a2,-280(t6)
    ba6c:	00b70633          	add	a2,a4,a1
    ba70:	00064583          	lbu	a1,0(a2)
    ba74:	03df6633          	rem	a2,t5,t4
    ba78:	eeb30523          	sb	a1,-278(t1)
    ba7c:	00c70633          	add	a2,a4,a2
    ba80:	00064583          	lbu	a1,0(a2)
    ba84:	12088713          	add	a4,a7,288
    ba88:	01010613          	add	a2,sp,16
    ba8c:	00c70733          	add	a4,a4,a2
    ba90:	eeb70423          	sb	a1,-280(a4)
    ba94:	00188613          	add	a2,a7,1
    ba98:	12060713          	add	a4,a2,288
    ba9c:	01010893          	add	a7,sp,16
    baa0:	00284583          	lbu	a1,2(a6)
    baa4:	01170333          	add	t1,a4,a7
    baa8:	02e00713          	li	a4,46
    baac:	eee30423          	sb	a4,-280(t1)
    bab0:	00160893          	add	a7,a2,1
    bab4:	68058863          	beqz	a1,c144 <ee_printf+0x1014>
    bab8:	06300713          	li	a4,99
    babc:	7ab75863          	bge	a4,a1,c26c <ee_printf+0x113c>
    bac0:	06400e13          	li	t3,100
    bac4:	12088893          	add	a7,a7,288
    bac8:	01010f93          	add	t6,sp,16
    bacc:	01f88fb3          	add	t6,a7,t6
    bad0:	00360893          	add	a7,a2,3
    bad4:	00a00e93          	li	t4,10
    bad8:	00010737          	lui	a4,0x10
    badc:	70870713          	add	a4,a4,1800 # 10708 <errpat+0x6d8>
    bae0:	03c5ef33          	rem	t5,a1,t3
    bae4:	03c5c633          	div	a2,a1,t3
    bae8:	03df45b3          	div	a1,t5,t4
    baec:	00c70633          	add	a2,a4,a2
    baf0:	00064603          	lbu	a2,0(a2)
    baf4:	eecf8423          	sb	a2,-280(t6)
    baf8:	00b70633          	add	a2,a4,a1
    bafc:	03df65b3          	rem	a1,t5,t4
    bb00:	00064603          	lbu	a2,0(a2)
    bb04:	eec30523          	sb	a2,-278(t1)
    bb08:	00b705b3          	add	a1,a4,a1
    bb0c:	0005c583          	lbu	a1,0(a1)
    bb10:	01010613          	add	a2,sp,16
    bb14:	12088713          	add	a4,a7,288
    bb18:	00c70733          	add	a4,a4,a2
    bb1c:	eeb70423          	sb	a1,-280(a4)
    bb20:	00188613          	add	a2,a7,1
    bb24:	12060713          	add	a4,a2,288
    bb28:	00384583          	lbu	a1,3(a6)
    bb2c:	01010813          	add	a6,sp,16
    bb30:	010708b3          	add	a7,a4,a6
    bb34:	02e00713          	li	a4,46
    bb38:	eee88423          	sb	a4,-280(a7)
    bb3c:	00160813          	add	a6,a2,1
    bb40:	5e058463          	beqz	a1,c128 <ee_printf+0xff8>
    bb44:	06300713          	li	a4,99
    bb48:	78b75e63          	bge	a4,a1,c2e4 <ee_printf+0x11b4>
    bb4c:	06400313          	li	t1,100
    bb50:	12080813          	add	a6,a6,288
    bb54:	01010f13          	add	t5,sp,16
    bb58:	01e80f33          	add	t5,a6,t5
    bb5c:	00360813          	add	a6,a2,3
    bb60:	00a00e13          	li	t3,10
    bb64:	00010737          	lui	a4,0x10
    bb68:	70870713          	add	a4,a4,1800 # 10708 <errpat+0x6d8>
    bb6c:	0265eeb3          	rem	t4,a1,t1
    bb70:	0265c633          	div	a2,a1,t1
    bb74:	03cec5b3          	div	a1,t4,t3
    bb78:	00c70633          	add	a2,a4,a2
    bb7c:	00064603          	lbu	a2,0(a2)
    bb80:	eecf0423          	sb	a2,-280(t5)
    bb84:	00b70633          	add	a2,a4,a1
    bb88:	03cee5b3          	rem	a1,t4,t3
    bb8c:	00064603          	lbu	a2,0(a2)
    bb90:	eec88523          	sb	a2,-278(a7)
    bb94:	00b705b3          	add	a1,a4,a1
    bb98:	0005c583          	lbu	a1,0(a1)
    bb9c:	01010613          	add	a2,sp,16
    bba0:	12080713          	add	a4,a6,288
    bba4:	00c70733          	add	a4,a4,a2
    bba8:	eeb70423          	sb	a1,-280(a4)
    bbac:	00180613          	add	a2,a6,1
    bbb0:	0107f793          	and	a5,a5,16
    bbb4:	0c079663          	bnez	a5,bc80 <ee_printf+0xb50>
    bbb8:	fff68593          	add	a1,a3,-1
    bbbc:	16d658e3          	bge	a2,a3,c52c <ee_printf+0x13fc>
    bbc0:	40c68e33          	sub	t3,a3,a2
    bbc4:	40a00833          	neg	a6,a0
    bbc8:	fffe0893          	add	a7,t3,-1
    bbcc:	00500713          	li	a4,5
    bbd0:	00387793          	and	a5,a6,3
    bbd4:	1b177ee3          	bgeu	a4,a7,c590 <ee_printf+0x1460>
    bbd8:	00050713          	mv	a4,a0
    bbdc:	02078663          	beqz	a5,bc08 <ee_printf+0xad8>
    bbe0:	02000593          	li	a1,32
    bbe4:	00b50023          	sb	a1,0(a0)
    bbe8:	00287813          	and	a6,a6,2
    bbec:	0c0802e3          	beqz	a6,c4b0 <ee_printf+0x1380>
    bbf0:	00b500a3          	sb	a1,1(a0)
    bbf4:	00300713          	li	a4,3
    bbf8:	7ee79663          	bne	a5,a4,c3e4 <ee_printf+0x12b4>
    bbfc:	00b50123          	sb	a1,2(a0)
    bc00:	00350713          	add	a4,a0,3
    bc04:	ffc68593          	add	a1,a3,-4
    bc08:	40fe0333          	sub	t1,t3,a5
    bc0c:	ffc37893          	and	a7,t1,-4
    bc10:	00f507b3          	add	a5,a0,a5
    bc14:	202026b7          	lui	a3,0x20202
    bc18:	00f88833          	add	a6,a7,a5
    bc1c:	02068693          	add	a3,a3,32 # 20202020 <stack_top+0x201e2020>
    bc20:	00d7a023          	sw	a3,0(a5)
    bc24:	00478793          	add	a5,a5,4
    bc28:	fef81ce3          	bne	a6,a5,bc20 <ee_printf+0xaf0>
    bc2c:	011707b3          	add	a5,a4,a7
    bc30:	411585b3          	sub	a1,a1,a7
    bc34:	05130263          	beq	t1,a7,bc78 <ee_printf+0xb48>
    bc38:	02000713          	li	a4,32
    bc3c:	00e78023          	sb	a4,0(a5)
    bc40:	fff58693          	add	a3,a1,-1
    bc44:	02b65a63          	bge	a2,a1,bc78 <ee_printf+0xb48>
    bc48:	00e780a3          	sb	a4,1(a5)
    bc4c:	ffe58813          	add	a6,a1,-2
    bc50:	02d65463          	bge	a2,a3,bc78 <ee_printf+0xb48>
    bc54:	00e78123          	sb	a4,2(a5)
    bc58:	ffd58693          	add	a3,a1,-3
    bc5c:	01065e63          	bge	a2,a6,bc78 <ee_printf+0xb48>
    bc60:	00e781a3          	sb	a4,3(a5)
    bc64:	ffc58593          	add	a1,a1,-4
    bc68:	00d65863          	bge	a2,a3,bc78 <ee_printf+0xb48>
    bc6c:	00e78223          	sb	a4,4(a5)
    bc70:	00b65463          	bge	a2,a1,bc78 <ee_printf+0xb48>
    bc74:	00e782a3          	sb	a4,5(a5)
    bc78:	01c50533          	add	a0,a0,t3
    bc7c:	fff60693          	add	a3,a2,-1
    bc80:	00357793          	and	a5,a0,3
    bc84:	54078c63          	beqz	a5,c1dc <ee_printf+0x10ac>
    bc88:	01e14783          	lbu	a5,30(sp)
    bc8c:	01814e03          	lbu	t3,24(sp)
    bc90:	01914303          	lbu	t1,25(sp)
    bc94:	01a14883          	lbu	a7,26(sp)
    bc98:	01b14803          	lbu	a6,27(sp)
    bc9c:	01c14583          	lbu	a1,28(sp)
    bca0:	01d14703          	lbu	a4,29(sp)
    bca4:	00f50323          	sb	a5,6(a0)
    bca8:	01c50023          	sb	t3,0(a0)
    bcac:	006500a3          	sb	t1,1(a0)
    bcb0:	01150123          	sb	a7,2(a0)
    bcb4:	010501a3          	sb	a6,3(a0)
    bcb8:	00b50223          	sb	a1,4(a0)
    bcbc:	00e502a3          	sb	a4,5(a0)
    bcc0:	00700793          	li	a5,7
    bcc4:	06f60e63          	beq	a2,a5,bd40 <ee_printf+0xc10>
    bcc8:	01f14703          	lbu	a4,31(sp)
    bccc:	00800793          	li	a5,8
    bcd0:	00e503a3          	sb	a4,7(a0)
    bcd4:	06f60663          	beq	a2,a5,bd40 <ee_printf+0xc10>
    bcd8:	02014703          	lbu	a4,32(sp)
    bcdc:	00900793          	li	a5,9
    bce0:	00e50423          	sb	a4,8(a0)
    bce4:	04f60e63          	beq	a2,a5,bd40 <ee_printf+0xc10>
    bce8:	02114703          	lbu	a4,33(sp)
    bcec:	00a00793          	li	a5,10
    bcf0:	00e504a3          	sb	a4,9(a0)
    bcf4:	04f60663          	beq	a2,a5,bd40 <ee_printf+0xc10>
    bcf8:	02214703          	lbu	a4,34(sp)
    bcfc:	00b00793          	li	a5,11
    bd00:	00e50523          	sb	a4,10(a0)
    bd04:	02f60e63          	beq	a2,a5,bd40 <ee_printf+0xc10>
    bd08:	02314703          	lbu	a4,35(sp)
    bd0c:	00c00793          	li	a5,12
    bd10:	00e505a3          	sb	a4,11(a0)
    bd14:	02f60663          	beq	a2,a5,bd40 <ee_printf+0xc10>
    bd18:	02414703          	lbu	a4,36(sp)
    bd1c:	00d00793          	li	a5,13
    bd20:	00e50623          	sb	a4,12(a0)
    bd24:	00f60e63          	beq	a2,a5,bd40 <ee_printf+0xc10>
    bd28:	02514703          	lbu	a4,37(sp)
    bd2c:	00f00793          	li	a5,15
    bd30:	00e506a3          	sb	a4,13(a0)
    bd34:	00f61663          	bne	a2,a5,bd40 <ee_printf+0xc10>
    bd38:	02614783          	lbu	a5,38(sp)
    bd3c:	00f50723          	sb	a5,14(a0)
    bd40:	00c508b3          	add	a7,a0,a2
    bd44:	fff68313          	add	t1,a3,-1
    bd48:	72d65c63          	bge	a2,a3,c480 <ee_printf+0x1350>
    bd4c:	40c68833          	sub	a6,a3,a2
    bd50:	41100733          	neg	a4,a7
    bd54:	fff80e13          	add	t3,a6,-1
    bd58:	00500593          	li	a1,5
    bd5c:	00377793          	and	a5,a4,3
    bd60:	07c5f263          	bgeu	a1,t3,bdc4 <ee_printf+0xc94>
    bd64:	02078663          	beqz	a5,bd90 <ee_printf+0xc60>
    bd68:	02000593          	li	a1,32
    bd6c:	00b88023          	sb	a1,0(a7)
    bd70:	00277713          	and	a4,a4,2
    bd74:	60070263          	beqz	a4,c378 <ee_printf+0x1248>
    bd78:	00b880a3          	sb	a1,1(a7)
    bd7c:	00300713          	li	a4,3
    bd80:	6ce79c63          	bne	a5,a4,c458 <ee_printf+0x1328>
    bd84:	00b88123          	sb	a1,2(a7)
    bd88:	ffc68313          	add	t1,a3,-4
    bd8c:	00388893          	add	a7,a7,3
    bd90:	40f80833          	sub	a6,a6,a5
    bd94:	00c787b3          	add	a5,a5,a2
    bd98:	00f507b3          	add	a5,a0,a5
    bd9c:	ffc87e13          	and	t3,a6,-4
    bda0:	20202737          	lui	a4,0x20202
    bda4:	00fe05b3          	add	a1,t3,a5
    bda8:	02070713          	add	a4,a4,32 # 20202020 <stack_top+0x201e2020>
    bdac:	00e7a023          	sw	a4,0(a5)
    bdb0:	00478793          	add	a5,a5,4
    bdb4:	fef59ce3          	bne	a1,a5,bdac <ee_printf+0xc7c>
    bdb8:	05c80663          	beq	a6,t3,be04 <ee_printf+0xcd4>
    bdbc:	01c888b3          	add	a7,a7,t3
    bdc0:	41c30333          	sub	t1,t1,t3
    bdc4:	02000713          	li	a4,32
    bdc8:	00e88023          	sb	a4,0(a7)
    bdcc:	fff30793          	add	a5,t1,-1
    bdd0:	02665a63          	bge	a2,t1,be04 <ee_printf+0xcd4>
    bdd4:	00e880a3          	sb	a4,1(a7)
    bdd8:	ffe30813          	add	a6,t1,-2
    bddc:	02f65463          	bge	a2,a5,be04 <ee_printf+0xcd4>
    bde0:	00e88123          	sb	a4,2(a7)
    bde4:	ffd30593          	add	a1,t1,-3
    bde8:	01065e63          	bge	a2,a6,be04 <ee_printf+0xcd4>
    bdec:	00e881a3          	sb	a4,3(a7)
    bdf0:	ffc30793          	add	a5,t1,-4
    bdf4:	00b65863          	bge	a2,a1,be04 <ee_printf+0xcd4>
    bdf8:	00e88223          	sb	a4,4(a7)
    bdfc:	00f65463          	bge	a2,a5,be04 <ee_printf+0xcd4>
    be00:	00e882a3          	sb	a4,5(a7)
    be04:	00d50533          	add	a0,a0,a3
    be08:	e50ff06f          	j	b458 <ee_printf+0x328>
    be0c:	06c00713          	li	a4,108
    be10:	0407e793          	or	a5,a5,64
    be14:	b8e312e3          	bne	t1,a4,b998 <ee_printf+0x868>
    be18:	15912223          	sw	s9,324(sp)
    be1c:	15a12023          	sw	s10,320(sp)
    be20:	13b12e23          	sw	s11,316(sp)
    be24:	00010737          	lui	a4,0x10
    be28:	0004a583          	lw	a1,0(s1)
    be2c:	73070713          	add	a4,a4,1840 # 10730 <errpat+0x700>
    be30:	00448493          	add	s1,s1,4
    be34:	0005c803          	lbu	a6,0(a1)
    be38:	0035ce83          	lbu	t4,3(a1)
    be3c:	0015cf03          	lbu	t5,1(a1)
    be40:	0025ce03          	lbu	t3,2(a1)
    be44:	0045cc83          	lbu	s9,4(a1)
    be48:	0055c883          	lbu	a7,5(a1)
    be4c:	00f87313          	and	t1,a6,15
    be50:	00670333          	add	t1,a4,t1
    be54:	00485813          	srl	a6,a6,0x4
    be58:	01070fb3          	add	t6,a4,a6
    be5c:	00034d83          	lbu	s11,0(t1)
    be60:	004edc13          	srl	s8,t4,0x4
    be64:	004f5393          	srl	t2,t5,0x4
    be68:	004e5293          	srl	t0,t3,0x4
    be6c:	00fef813          	and	a6,t4,15
    be70:	00fcf593          	and	a1,s9,15
    be74:	004cde93          	srl	t4,s9,0x4
    be78:	0048d313          	srl	t1,a7,0x4
    be7c:	00ff7f13          	and	t5,t5,15
    be80:	00fe7e13          	and	t3,t3,15
    be84:	000fcd03          	lbu	s10,0(t6)
    be88:	007703b3          	add	t2,a4,t2
    be8c:	01e70f33          	add	t5,a4,t5
    be90:	005702b3          	add	t0,a4,t0
    be94:	01c70e33          	add	t3,a4,t3
    be98:	01870fb3          	add	t6,a4,s8
    be9c:	00b705b3          	add	a1,a4,a1
    bea0:	01070833          	add	a6,a4,a6
    bea4:	01d70eb3          	add	t4,a4,t4
    bea8:	00670333          	add	t1,a4,t1
    beac:	0003cc83          	lbu	s9,0(t2)
    beb0:	000f4c03          	lbu	s8,0(t5)
    beb4:	0002c383          	lbu	t2,0(t0)
    beb8:	000fcf83          	lbu	t6,0(t6)
    bebc:	000e4283          	lbu	t0,0(t3)
    bec0:	00084f03          	lbu	t5,0(a6)
    bec4:	0005ce03          	lbu	t3,0(a1)
    bec8:	000ece83          	lbu	t4,0(t4)
    becc:	00034303          	lbu	t1,0(t1)
    bed0:	008d9d93          	sll	s11,s11,0x8
    bed4:	00f8f893          	and	a7,a7,15
    bed8:	03a00593          	li	a1,58
    bedc:	01bd6d33          	or	s10,s10,s11
    bee0:	01170733          	add	a4,a4,a7
    bee4:	01a11c23          	sh	s10,24(sp)
    bee8:	00b10d23          	sb	a1,26(sp)
    beec:	01910da3          	sb	s9,27(sp)
    bef0:	01810e23          	sb	s8,28(sp)
    bef4:	00b10ea3          	sb	a1,29(sp)
    bef8:	00710f23          	sb	t2,30(sp)
    befc:	00510fa3          	sb	t0,31(sp)
    bf00:	02b10023          	sb	a1,32(sp)
    bf04:	03f100a3          	sb	t6,33(sp)
    bf08:	03e10123          	sb	t5,34(sp)
    bf0c:	02b101a3          	sb	a1,35(sp)
    bf10:	03d10223          	sb	t4,36(sp)
    bf14:	03c102a3          	sb	t3,37(sp)
    bf18:	02b10323          	sb	a1,38(sp)
    bf1c:	026103a3          	sb	t1,39(sp)
    bf20:	00074703          	lbu	a4,0(a4)
    bf24:	0107f793          	and	a5,a5,16
    bf28:	00e12623          	sw	a4,12(sp)
    bf2c:	0c079a63          	bnez	a5,c000 <ee_printf+0xed0>
    bf30:	01100793          	li	a5,17
    bf34:	fff68593          	add	a1,a3,-1
    bf38:	64d7d263          	bge	a5,a3,c57c <ee_printf+0x144c>
    bf3c:	40a00833          	neg	a6,a0
    bf40:	fee68713          	add	a4,a3,-18
    bf44:	00500893          	li	a7,5
    bf48:	fef68d13          	add	s10,a3,-17
    bf4c:	00387793          	and	a5,a6,3
    bf50:	62e8f263          	bgeu	a7,a4,c574 <ee_printf+0x1444>
    bf54:	00050713          	mv	a4,a0
    bf58:	02078663          	beqz	a5,bf84 <ee_printf+0xe54>
    bf5c:	02000593          	li	a1,32
    bf60:	00b50023          	sb	a1,0(a0)
    bf64:	00287713          	and	a4,a6,2
    bf68:	5a070c63          	beqz	a4,c520 <ee_printf+0x13f0>
    bf6c:	00b500a3          	sb	a1,1(a0)
    bf70:	00300713          	li	a4,3
    bf74:	60e79863          	bne	a5,a4,c584 <ee_printf+0x1454>
    bf78:	00b50123          	sb	a1,2(a0)
    bf7c:	00350713          	add	a4,a0,3
    bf80:	ffc68593          	add	a1,a3,-4
    bf84:	40fd0db3          	sub	s11,s10,a5
    bf88:	ffcdf813          	and	a6,s11,-4
    bf8c:	00f507b3          	add	a5,a0,a5
    bf90:	202026b7          	lui	a3,0x20202
    bf94:	00f808b3          	add	a7,a6,a5
    bf98:	02068693          	add	a3,a3,32 # 20202020 <stack_top+0x201e2020>
    bf9c:	00d7a023          	sw	a3,0(a5)
    bfa0:	00478793          	add	a5,a5,4
    bfa4:	fef89ce3          	bne	a7,a5,bf9c <ee_printf+0xe6c>
    bfa8:	050d8863          	beq	s11,a6,bff8 <ee_printf+0xec8>
    bfac:	01070733          	add	a4,a4,a6
    bfb0:	410585b3          	sub	a1,a1,a6
    bfb4:	02000793          	li	a5,32
    bfb8:	00f70023          	sb	a5,0(a4)
    bfbc:	01100693          	li	a3,17
    bfc0:	02b6dc63          	bge	a3,a1,bff8 <ee_printf+0xec8>
    bfc4:	00f700a3          	sb	a5,1(a4)
    bfc8:	01200693          	li	a3,18
    bfcc:	02d58663          	beq	a1,a3,bff8 <ee_printf+0xec8>
    bfd0:	00f70123          	sb	a5,2(a4)
    bfd4:	01300693          	li	a3,19
    bfd8:	02d58063          	beq	a1,a3,bff8 <ee_printf+0xec8>
    bfdc:	00f701a3          	sb	a5,3(a4)
    bfe0:	01400693          	li	a3,20
    bfe4:	00d58a63          	beq	a1,a3,bff8 <ee_printf+0xec8>
    bfe8:	00f70223          	sb	a5,4(a4)
    bfec:	01500693          	li	a3,21
    bff0:	00d58463          	beq	a1,a3,bff8 <ee_printf+0xec8>
    bff4:	00f702a3          	sb	a5,5(a4)
    bff8:	01a50533          	add	a0,a0,s10
    bffc:	01000693          	li	a3,16
    c000:	00357793          	and	a5,a0,3
    c004:	4c079263          	bnez	a5,c4c8 <ee_printf+0x1398>
    c008:	01c12783          	lw	a5,28(sp)
    c00c:	00f52223          	sw	a5,4(a0)
    c010:	02012783          	lw	a5,32(sp)
    c014:	00f52423          	sw	a5,8(a0)
    c018:	01812783          	lw	a5,24(sp)
    c01c:	00f52023          	sw	a5,0(a0)
    c020:	02412783          	lw	a5,36(sp)
    c024:	00f52623          	sw	a5,12(a0)
    c028:	00c12783          	lw	a5,12(sp)
    c02c:	01150713          	add	a4,a0,17
    c030:	fff68593          	add	a1,a3,-1
    c034:	00f50823          	sb	a5,16(a0)
    c038:	01100793          	li	a5,17
    c03c:	4cd7de63          	bge	a5,a3,c518 <ee_printf+0x13e8>
    c040:	40e00833          	neg	a6,a4
    c044:	fee68893          	add	a7,a3,-18
    c048:	00500e13          	li	t3,5
    c04c:	fef68313          	add	t1,a3,-17
    c050:	00387793          	and	a5,a6,3
    c054:	071e7263          	bgeu	t3,a7,c0b8 <ee_printf+0xf88>
    c058:	02078663          	beqz	a5,c084 <ee_printf+0xf54>
    c05c:	02000593          	li	a1,32
    c060:	00b508a3          	sb	a1,17(a0)
    c064:	00287813          	and	a6,a6,2
    c068:	44080a63          	beqz	a6,c4bc <ee_printf+0x138c>
    c06c:	00b50923          	sb	a1,18(a0)
    c070:	00300713          	li	a4,3
    c074:	36e79263          	bne	a5,a4,c3d8 <ee_printf+0x12a8>
    c078:	00b509a3          	sb	a1,19(a0)
    c07c:	01450713          	add	a4,a0,20
    c080:	ffc68593          	add	a1,a3,-4
    c084:	40f30333          	sub	t1,t1,a5
    c088:	01178793          	add	a5,a5,17
    c08c:	00f507b3          	add	a5,a0,a5
    c090:	ffc37e13          	and	t3,t1,-4
    c094:	20202837          	lui	a6,0x20202
    c098:	00fe08b3          	add	a7,t3,a5
    c09c:	02080813          	add	a6,a6,32 # 20202020 <stack_top+0x201e2020>
    c0a0:	0107a023          	sw	a6,0(a5)
    c0a4:	00478793          	add	a5,a5,4
    c0a8:	fef89ce3          	bne	a7,a5,c0a0 <ee_printf+0xf70>
    c0ac:	01c70733          	add	a4,a4,t3
    c0b0:	41c585b3          	sub	a1,a1,t3
    c0b4:	046e0463          	beq	t3,t1,c0fc <ee_printf+0xfcc>
    c0b8:	02000793          	li	a5,32
    c0bc:	00f70023          	sb	a5,0(a4)
    c0c0:	01100813          	li	a6,17
    c0c4:	02b85c63          	bge	a6,a1,c0fc <ee_printf+0xfcc>
    c0c8:	00f700a3          	sb	a5,1(a4)
    c0cc:	01200813          	li	a6,18
    c0d0:	03058663          	beq	a1,a6,c0fc <ee_printf+0xfcc>
    c0d4:	00f70123          	sb	a5,2(a4)
    c0d8:	01300813          	li	a6,19
    c0dc:	03058063          	beq	a1,a6,c0fc <ee_printf+0xfcc>
    c0e0:	00f701a3          	sb	a5,3(a4)
    c0e4:	01400813          	li	a6,20
    c0e8:	01058a63          	beq	a1,a6,c0fc <ee_printf+0xfcc>
    c0ec:	00f70223          	sb	a5,4(a4)
    c0f0:	01500813          	li	a6,21
    c0f4:	01058463          	beq	a1,a6,c0fc <ee_printf+0xfcc>
    c0f8:	00f702a3          	sb	a5,5(a4)
    c0fc:	00d50533          	add	a0,a0,a3
    c100:	00264783          	lbu	a5,2(a2)
    c104:	14412c83          	lw	s9,324(sp)
    c108:	14012d03          	lw	s10,320(sp)
    c10c:	13c12d83          	lw	s11,316(sp)
    c110:	00260313          	add	t1,a2,2
    c114:	8a079063          	bnez	a5,b1b4 <ee_printf+0x84>
    c118:	8b4ff06f          	j	b1cc <ee_printf+0x9c>
    c11c:	0407e793          	or	a5,a5,64
    c120:	00060c13          	mv	s8,a2
    c124:	875ff06f          	j	b998 <ee_printf+0x868>
    c128:	01010593          	add	a1,sp,16
    c12c:	12080713          	add	a4,a6,288
    c130:	00b70733          	add	a4,a4,a1
    c134:	03000593          	li	a1,48
    c138:	00260613          	add	a2,a2,2
    c13c:	eeb70423          	sb	a1,-280(a4)
    c140:	a71ff06f          	j	bbb0 <ee_printf+0xa80>
    c144:	01010593          	add	a1,sp,16
    c148:	12088713          	add	a4,a7,288
    c14c:	00b70733          	add	a4,a4,a1
    c150:	03000593          	li	a1,48
    c154:	00260613          	add	a2,a2,2
    c158:	eeb70423          	sb	a1,-280(a4)
    c15c:	9c9ff06f          	j	bb24 <ee_printf+0x9f4>
    c160:	01010613          	add	a2,sp,16
    c164:	12088713          	add	a4,a7,288
    c168:	00c70733          	add	a4,a4,a2
    c16c:	00258613          	add	a2,a1,2
    c170:	03000593          	li	a1,48
    c174:	eeb70423          	sb	a1,-280(a4)
    c178:	921ff06f          	j	ba98 <ee_printf+0x968>
    c17c:	03000713          	li	a4,48
    c180:	00e10c23          	sb	a4,24(sp)
    c184:	00200893          	li	a7,2
    c188:	00100593          	li	a1,1
    c18c:	885ff06f          	j	ba10 <ee_printf+0x8e0>
    c190:	00188793          	add	a5,a7,1
    c194:	00c888b3          	add	a7,a7,a2
    c198:	00050713          	mv	a4,a0
    c19c:	0080006f          	j	c1a4 <ee_printf+0x1074>
    c1a0:	00178793          	add	a5,a5,1
    c1a4:	fff7c583          	lbu	a1,-1(a5)
    c1a8:	00170713          	add	a4,a4,1
    c1ac:	feb70fa3          	sb	a1,-1(a4)
    c1b0:	ff1798e3          	bne	a5,a7,c1a0 <ee_printf+0x1070>
    c1b4:	b84ff06f          	j	b538 <ee_printf+0x408>
    c1b8:	16c12083          	lw	ra,364(sp)
    c1bc:	16412483          	lw	s1,356(sp)
    c1c0:	15812a03          	lw	s4,344(sp)
    c1c4:	00000513          	li	a0,0
    c1c8:	19010113          	add	sp,sp,400
    c1cc:	00008067          	ret
    c1d0:	03010a13          	add	s4,sp,48
    c1d4:	000a0513          	mv	a0,s4
    c1d8:	810ff06f          	j	b1e8 <ee_printf+0xb8>
    c1dc:	01812583          	lw	a1,24(sp)
    c1e0:	00265793          	srl	a5,a2,0x2
    c1e4:	00100713          	li	a4,1
    c1e8:	00b52023          	sw	a1,0(a0)
    c1ec:	26e78c63          	beq	a5,a4,c464 <ee_printf+0x1334>
    c1f0:	01c12583          	lw	a1,28(sp)
    c1f4:	00300713          	li	a4,3
    c1f8:	00b52223          	sw	a1,4(a0)
    c1fc:	00e79663          	bne	a5,a4,c208 <ee_printf+0x10d8>
    c200:	02012783          	lw	a5,32(sp)
    c204:	00f52423          	sw	a5,8(a0)
    c208:	00367793          	and	a5,a2,3
    c20c:	b2078ae3          	beqz	a5,bd40 <ee_printf+0xc10>
    c210:	ffc67713          	and	a4,a2,-4
    c214:	12070593          	add	a1,a4,288
    c218:	01010813          	add	a6,sp,16
    c21c:	010585b3          	add	a1,a1,a6
    c220:	ee85c803          	lbu	a6,-280(a1)
    c224:	00070793          	mv	a5,a4
    c228:	00e50733          	add	a4,a0,a4
    c22c:	01070023          	sb	a6,0(a4)
    c230:	00178593          	add	a1,a5,1
    c234:	00170813          	add	a6,a4,1
    c238:	b0c5d4e3          	bge	a1,a2,bd40 <ee_printf+0xc10>
    c23c:	12058593          	add	a1,a1,288
    c240:	01010893          	add	a7,sp,16
    c244:	011585b3          	add	a1,a1,a7
    c248:	ee85c583          	lbu	a1,-280(a1)
    c24c:	00278793          	add	a5,a5,2
    c250:	00b80023          	sb	a1,0(a6)
    c254:	aec7d6e3          	bge	a5,a2,bd40 <ee_printf+0xc10>
    c258:	12078793          	add	a5,a5,288
    c25c:	011787b3          	add	a5,a5,a7
    c260:	ee87c783          	lbu	a5,-280(a5)
    c264:	00f70123          	sb	a5,2(a4)
    c268:	ad9ff06f          	j	bd40 <ee_printf+0xc10>
    c26c:	00900713          	li	a4,9
    c270:	12b75c63          	bge	a4,a1,c3a8 <ee_printf+0x1278>
    c274:	00a00e13          	li	t3,10
    c278:	03c5c333          	div	t1,a1,t3
    c27c:	00010737          	lui	a4,0x10
    c280:	12088893          	add	a7,a7,288
    c284:	70870713          	add	a4,a4,1800 # 10708 <errpat+0x6d8>
    c288:	01010e93          	add	t4,sp,16
    c28c:	01d88eb3          	add	t4,a7,t4
    c290:	00260893          	add	a7,a2,2
    c294:	00670633          	add	a2,a4,t1
    c298:	00064603          	lbu	a2,0(a2)
    c29c:	03c5e5b3          	rem	a1,a1,t3
    c2a0:	eece8423          	sb	a2,-280(t4)
    c2a4:	865ff06f          	j	bb08 <ee_printf+0x9d8>
    c2a8:	00900713          	li	a4,9
    c2ac:	0ec75863          	bge	a4,a2,c39c <ee_printf+0x126c>
    c2b0:	00a00e13          	li	t3,10
    c2b4:	03c64333          	div	t1,a2,t3
    c2b8:	00010737          	lui	a4,0x10
    c2bc:	12088893          	add	a7,a7,288
    c2c0:	70870713          	add	a4,a4,1800 # 10708 <errpat+0x6d8>
    c2c4:	01010e93          	add	t4,sp,16
    c2c8:	01d88eb3          	add	t4,a7,t4
    c2cc:	00258893          	add	a7,a1,2
    c2d0:	006705b3          	add	a1,a4,t1
    c2d4:	0005c583          	lbu	a1,0(a1)
    c2d8:	03c66633          	rem	a2,a2,t3
    c2dc:	eebe8423          	sb	a1,-280(t4)
    c2e0:	f9cff06f          	j	ba7c <ee_printf+0x94c>
    c2e4:	00900713          	li	a4,9
    c2e8:	0cb75663          	bge	a4,a1,c3b4 <ee_printf+0x1284>
    c2ec:	00a00313          	li	t1,10
    c2f0:	0265c8b3          	div	a7,a1,t1
    c2f4:	00010737          	lui	a4,0x10
    c2f8:	12080813          	add	a6,a6,288
    c2fc:	70870713          	add	a4,a4,1800 # 10708 <errpat+0x6d8>
    c300:	01010e13          	add	t3,sp,16
    c304:	01c80e33          	add	t3,a6,t3
    c308:	00260813          	add	a6,a2,2
    c30c:	01170633          	add	a2,a4,a7
    c310:	00064603          	lbu	a2,0(a2)
    c314:	0265e5b3          	rem	a1,a1,t1
    c318:	eece0423          	sb	a2,-280(t3)
    c31c:	879ff06f          	j	bb94 <ee_printf+0xa64>
    c320:	00900713          	li	a4,9
    c324:	06c75063          	bge	a4,a2,c384 <ee_printf+0x1254>
    c328:	00a00e93          	li	t4,10
    c32c:	03d64333          	div	t1,a2,t4
    c330:	00010737          	lui	a4,0x10
    c334:	70870713          	add	a4,a4,1800 # 10708 <errpat+0x6d8>
    c338:	00300893          	li	a7,3
    c33c:	00200593          	li	a1,2
    c340:	00100e13          	li	t3,1
    c344:	00670333          	add	t1,a4,t1
    c348:	00034303          	lbu	t1,0(t1)
    c34c:	03d66633          	rem	a2,a2,t4
    c350:	00610c23          	sb	t1,24(sp)
    c354:	ea4ff06f          	j	b9f8 <ee_printf+0x8c8>
    c358:	15912223          	sw	s9,324(sp)
    c35c:	15a12023          	sw	s10,320(sp)
    c360:	13b12e23          	sw	s11,316(sp)
    c364:	00010737          	lui	a4,0x10
    c368:	0004a583          	lw	a1,0(s1)
    c36c:	70870713          	add	a4,a4,1800 # 10708 <errpat+0x6d8>
    c370:	00448493          	add	s1,s1,4
    c374:	ac1ff06f          	j	be34 <ee_printf+0xd04>
    c378:	00188893          	add	a7,a7,1
    c37c:	ffe68313          	add	t1,a3,-2
    c380:	a11ff06f          	j	bd90 <ee_printf+0xc60>
    c384:	00010737          	lui	a4,0x10
    c388:	00200893          	li	a7,2
    c38c:	00100593          	li	a1,1
    c390:	00000e13          	li	t3,0
    c394:	70870713          	add	a4,a4,1800 # 10708 <errpat+0x6d8>
    c398:	e60ff06f          	j	b9f8 <ee_printf+0x8c8>
    c39c:	00010737          	lui	a4,0x10
    c3a0:	70870713          	add	a4,a4,1800 # 10708 <errpat+0x6d8>
    c3a4:	ed8ff06f          	j	ba7c <ee_printf+0x94c>
    c3a8:	00010737          	lui	a4,0x10
    c3ac:	70870713          	add	a4,a4,1800 # 10708 <errpat+0x6d8>
    c3b0:	f58ff06f          	j	bb08 <ee_printf+0x9d8>
    c3b4:	00010737          	lui	a4,0x10
    c3b8:	70870713          	add	a4,a4,1800 # 10708 <errpat+0x6d8>
    c3bc:	fd8ff06f          	j	bb94 <ee_printf+0xa64>
    c3c0:	0027e793          	or	a5,a5,2
    c3c4:	00448813          	add	a6,s1,4
    c3c8:	00060c13          	mv	s8,a2
    c3cc:	db4ff06f          	j	b980 <ee_printf+0x850>
    c3d0:	00060c13          	mv	s8,a2
    c3d4:	dc4ff06f          	j	b998 <ee_printf+0x868>
    c3d8:	01350713          	add	a4,a0,19
    c3dc:	ffd68593          	add	a1,a3,-3
    c3e0:	ca5ff06f          	j	c084 <ee_printf+0xf54>
    c3e4:	00250713          	add	a4,a0,2
    c3e8:	ffd68593          	add	a1,a3,-3
    c3ec:	81dff06f          	j	bc08 <ee_printf+0xad8>
    c3f0:	00060c13          	mv	s8,a2
    c3f4:	0407e793          	or	a5,a5,64
    c3f8:	01000613          	li	a2,16
    c3fc:	850ff06f          	j	b44c <ee_printf+0x31c>
    c400:	00060c13          	mv	s8,a2
    c404:	844ff06f          	j	b448 <ee_printf+0x318>
    c408:	0107f613          	and	a2,a5,16
    c40c:	c8060c63          	beqz	a2,b8a4 <ee_printf+0x774>
    c410:	00000613          	li	a2,0
    c414:	928ff06f          	j	b53c <ee_printf+0x40c>
    c418:	00058693          	mv	a3,a1
    c41c:	89cff06f          	j	b4b8 <ee_printf+0x388>
    c420:	0004a783          	lw	a5,0(s1)
    c424:	00150513          	add	a0,a0,1
    c428:	00088493          	mv	s1,a7
    c42c:	fef50fa3          	sb	a5,-1(a0)
    c430:	001c4783          	lbu	a5,1(s8)
    c434:	00078463          	beqz	a5,c43c <ee_printf+0x130c>
    c438:	d7dfe06f          	j	b1b4 <ee_printf+0x84>
    c43c:	d91fe06f          	j	b1cc <ee_printf+0x9c>
    c440:	00250713          	add	a4,a0,2
    c444:	00080613          	mv	a2,a6
    c448:	a6cff06f          	j	b6b4 <ee_printf+0x584>
    c44c:	00150593          	add	a1,a0,1
    c450:	ffe68713          	add	a4,a3,-2
    c454:	93cff06f          	j	b590 <ee_printf+0x460>
    c458:	00288893          	add	a7,a7,2
    c45c:	ffd68313          	add	t1,a3,-3
    c460:	931ff06f          	j	bd90 <ee_printf+0xc60>
    c464:	01c14783          	lbu	a5,28(sp)
    c468:	00450713          	add	a4,a0,4
    c46c:	00550813          	add	a6,a0,5
    c470:	00f50223          	sb	a5,4(a0)
    c474:	00500593          	li	a1,5
    c478:	00400793          	li	a5,4
    c47c:	dc1ff06f          	j	c23c <ee_printf+0x110c>
    c480:	00088513          	mv	a0,a7
    c484:	fd5fe06f          	j	b458 <ee_printf+0x328>
    c488:	00250593          	add	a1,a0,2
    c48c:	ffd68713          	add	a4,a3,-3
    c490:	900ff06f          	j	b590 <ee_printf+0x460>
    c494:	001c4783          	lbu	a5,1(s8)
    c498:	00078463          	beqz	a5,c4a0 <ee_printf+0x1370>
    c49c:	d19fe06f          	j	b1b4 <ee_printf+0x84>
    c4a0:	d2dfe06f          	j	b1cc <ee_printf+0x9c>
    c4a4:	00350713          	add	a4,a0,3
    c4a8:	ffd68613          	add	a2,a3,-3
    c4ac:	a08ff06f          	j	b6b4 <ee_printf+0x584>
    c4b0:	00150713          	add	a4,a0,1
    c4b4:	ffe68593          	add	a1,a3,-2
    c4b8:	f50ff06f          	j	bc08 <ee_printf+0xad8>
    c4bc:	01250713          	add	a4,a0,18
    c4c0:	ffe68593          	add	a1,a3,-2
    c4c4:	bc1ff06f          	j	c084 <ee_printf+0xf54>
    c4c8:	01814583          	lbu	a1,24(sp)
    c4cc:	01914703          	lbu	a4,25(sp)
    c4d0:	03a00793          	li	a5,58
    c4d4:	00b50023          	sb	a1,0(a0)
    c4d8:	00e500a3          	sb	a4,1(a0)
    c4dc:	00f50123          	sb	a5,2(a0)
    c4e0:	019501a3          	sb	s9,3(a0)
    c4e4:	01850223          	sb	s8,4(a0)
    c4e8:	00f502a3          	sb	a5,5(a0)
    c4ec:	00750323          	sb	t2,6(a0)
    c4f0:	005503a3          	sb	t0,7(a0)
    c4f4:	00f50423          	sb	a5,8(a0)
    c4f8:	01f504a3          	sb	t6,9(a0)
    c4fc:	01e50523          	sb	t5,10(a0)
    c500:	00f505a3          	sb	a5,11(a0)
    c504:	01d50623          	sb	t4,12(a0)
    c508:	01c506a3          	sb	t3,13(a0)
    c50c:	00f50723          	sb	a5,14(a0)
    c510:	006507a3          	sb	t1,15(a0)
    c514:	b15ff06f          	j	c028 <ee_printf+0xef8>
    c518:	00070513          	mv	a0,a4
    c51c:	be5ff06f          	j	c100 <ee_printf+0xfd0>
    c520:	00150713          	add	a4,a0,1
    c524:	ffe68593          	add	a1,a3,-2
    c528:	a5dff06f          	j	bf84 <ee_printf+0xe54>
    c52c:	00058693          	mv	a3,a1
    c530:	f50ff06f          	j	bc80 <ee_printf+0xb50>
    c534:	00050793          	mv	a5,a0
    c538:	888ff06f          	j	b5c0 <ee_printf+0x490>
    c53c:	00050713          	mv	a4,a0
    c540:	be4ff06f          	j	b924 <ee_printf+0x7f4>
    c544:	00250713          	add	a4,a0,2
    c548:	ffd68613          	add	a2,a3,-3
    c54c:	ac4ff06f          	j	b810 <ee_printf+0x6e0>
    c550:	00150713          	add	a4,a0,1
    c554:	000e0613          	mv	a2,t3
    c558:	ab8ff06f          	j	b810 <ee_printf+0x6e0>
    c55c:	00250813          	add	a6,a0,2
    c560:	ffd68593          	add	a1,a3,-3
    c564:	b90ff06f          	j	b8f4 <ee_printf+0x7c4>
    c568:	00150813          	add	a6,a0,1
    c56c:	ffe68593          	add	a1,a3,-2
    c570:	b84ff06f          	j	b8f4 <ee_printf+0x7c4>
    c574:	00050713          	mv	a4,a0
    c578:	a3dff06f          	j	bfb4 <ee_printf+0xe84>
    c57c:	00058693          	mv	a3,a1
    c580:	a81ff06f          	j	c000 <ee_printf+0xed0>
    c584:	00250713          	add	a4,a0,2
    c588:	ffd68593          	add	a1,a3,-3
    c58c:	9f9ff06f          	j	bf84 <ee_printf+0xe54>
    c590:	00050793          	mv	a5,a0
    c594:	ea4ff06f          	j	bc38 <ee_printf+0xb08>
    c598:	00050793          	mv	a5,a0
    c59c:	aa4ff06f          	j	b840 <ee_printf+0x710>
    c5a0:	00070513          	mv	a0,a4
    c5a4:	af0ff06f          	j	b894 <ee_printf+0x764>

セクション .text.startup の逆アセンブル:

0000c5a8 <main>:
    c5a8:	81010113          	add	sp,sp,-2032
    c5ac:	00001737          	lui	a4,0x1
    c5b0:	7e112623          	sw	ra,2028(sp)
    c5b4:	7e812423          	sw	s0,2024(sp)
    c5b8:	7e912223          	sw	s1,2020(sp)
    c5bc:	7f212023          	sw	s2,2016(sp)
    c5c0:	7d312e23          	sw	s3,2012(sp)
    c5c4:	7d412c23          	sw	s4,2008(sp)
    c5c8:	7d512a23          	sw	s5,2004(sp)
    c5cc:	7d612823          	sw	s6,2000(sp)
    c5d0:	7d712623          	sw	s7,1996(sp)
    c5d4:	7d812423          	sw	s8,1992(sp)
    c5d8:	7d912223          	sw	s9,1988(sp)
    c5dc:	7da12023          	sw	s10,1984(sp)
    c5e0:	7bb12e23          	sw	s11,1980(sp)
    c5e4:	82070693          	add	a3,a4,-2016 # 820 <_start-0x77e0>
    c5e8:	f8010113          	add	sp,sp,-128
    c5ec:	fffff7b7          	lui	a5,0xfffff
    c5f0:	00f686b3          	add	a3,a3,a5
    c5f4:	01010793          	add	a5,sp,16
    c5f8:	00f687b3          	add	a5,a3,a5
    c5fc:	fffff637          	lui	a2,0xfffff
    c600:	00f12223          	sw	a5,4(sp)
    c604:	7e860613          	add	a2,a2,2024 # fffff7e8 <stack_top+0xfffdf7e8>
    c608:	82070793          	add	a5,a4,-2016
    c60c:	01010693          	add	a3,sp,16
    c610:	00c787b3          	add	a5,a5,a2
    c614:	fffff5b7          	lui	a1,0xfffff
    c618:	00d78633          	add	a2,a5,a3
    c61c:	7e458593          	add	a1,a1,2020 # fffff7e4 <stack_top+0xfffdf7e4>
    c620:	82070793          	add	a5,a4,-2016
    c624:	00b787b3          	add	a5,a5,a1
    c628:	00d785b3          	add	a1,a5,a3
    c62c:	00412783          	lw	a5,4(sp)
    c630:	05e10513          	add	a0,sp,94
    c634:	7e07a223          	sw	zero,2020(a5) # fffff7e4 <stack_top+0xfffdf7e4>
    c638:	cf4fe0ef          	jal	ab2c <portable_init>
    c63c:	00100513          	li	a0,1
    c640:	961fd0ef          	jal	9fa0 <get_seed_32>
    c644:	00412703          	lw	a4,4(sp)
    c648:	00050793          	mv	a5,a0
    c64c:	00200513          	li	a0,2
    c650:	7ef71623          	sh	a5,2028(a4)
    c654:	94dfd0ef          	jal	9fa0 <get_seed_32>
    c658:	00412703          	lw	a4,4(sp)
    c65c:	00050793          	mv	a5,a0
    c660:	00300513          	li	a0,3
    c664:	7ef71723          	sh	a5,2030(a4)
    c668:	939fd0ef          	jal	9fa0 <get_seed_32>
    c66c:	00412703          	lw	a4,4(sp)
    c670:	00050793          	mv	a5,a0
    c674:	00400513          	li	a0,4
    c678:	7ef71823          	sh	a5,2032(a4)
    c67c:	925fd0ef          	jal	9fa0 <get_seed_32>
    c680:	00050793          	mv	a5,a0
    c684:	00500513          	li	a0,5
    c688:	02f12c23          	sw	a5,56(sp)
    c68c:	915fd0ef          	jal	9fa0 <get_seed_32>
    c690:	00051463          	bnez	a0,c698 <main+0xf0>
    c694:	00700513          	li	a0,7
    c698:	00001737          	lui	a4,0x1
    c69c:	fffff7b7          	lui	a5,0xfffff
    c6a0:	82070713          	add	a4,a4,-2016 # 820 <_start-0x77e0>
    c6a4:	00f70733          	add	a4,a4,a5
    c6a8:	01010793          	add	a5,sp,16
    c6ac:	00f707b3          	add	a5,a4,a5
    c6b0:	00f12223          	sw	a5,4(sp)
    c6b4:	7ec7a783          	lw	a5,2028(a5) # fffff7ec <stack_top+0xfffdf7ec>
    c6b8:	02a12e23          	sw	a0,60(sp)
    c6bc:	30079e63          	bnez	a5,c9d8 <main+0x430>
    c6c0:	00412783          	lw	a5,4(sp)
    c6c4:	7f079783          	lh	a5,2032(a5)
    c6c8:	4c078e63          	beqz	a5,cba4 <main+0x5fc>
    c6cc:	000015b7          	lui	a1,0x1
    c6d0:	fffff637          	lui	a2,0xfffff
    c6d4:	82058593          	add	a1,a1,-2016 # 820 <_start-0x77e0>
    c6d8:	00c585b3          	add	a1,a1,a2
    c6dc:	01010613          	add	a2,sp,16
    c6e0:	00c58633          	add	a2,a1,a2
    c6e4:	00257693          	and	a3,a0,2
    c6e8:	06010593          	add	a1,sp,96
    c6ec:	00157713          	and	a4,a0,1
    c6f0:	00d037b3          	snez	a5,a3
    c6f4:	00c12223          	sw	a2,4(sp)
    c6f8:	7eb62a23          	sw	a1,2036(a2) # fffff7f4 <stack_top+0xfffdf7f4>
    c6fc:	04011e23          	sh	zero,92(sp)
    c700:	00457613          	and	a2,a0,4
    c704:	00f707b3          	add	a5,a4,a5
    c708:	2a061263          	bnez	a2,c9ac <main+0x404>
    c70c:	7d000593          	li	a1,2000
    c710:	02f5d5b3          	divu	a1,a1,a5
    c714:	fffff837          	lui	a6,0xfffff
    c718:	02b12a23          	sw	a1,52(sp)
    c71c:	4c071063          	bnez	a4,cbdc <main+0x634>
    c720:	48069a63          	bnez	a3,cbb4 <main+0x60c>
    c724:	000016b7          	lui	a3,0x1
    c728:	fffff737          	lui	a4,0xfffff
    c72c:	03c12783          	lw	a5,60(sp)
    c730:	82068693          	add	a3,a3,-2016 # 820 <_start-0x77e0>
    c734:	00e686b3          	add	a3,a3,a4
    c738:	01010713          	add	a4,sp,16
    c73c:	00e68733          	add	a4,a3,a4
    c740:	00e12223          	sw	a4,4(sp)
    c744:	0017f713          	and	a4,a5,1
    c748:	02070063          	beqz	a4,c768 <main+0x1c0>
    c74c:	00412783          	lw	a5,4(sp)
    c750:	03412503          	lw	a0,52(sp)
    c754:	7ec79603          	lh	a2,2028(a5)
    c758:	7f87a583          	lw	a1,2040(a5)
    c75c:	95cfc0ef          	jal	88b8 <core_list_init>
    c760:	03c12783          	lw	a5,60(sp)
    c764:	04a12023          	sw	a0,64(sp)
    c768:	0027f713          	and	a4,a5,2
    c76c:	1e071863          	bnez	a4,c95c <main+0x3b4>
    c770:	0047f793          	and	a5,a5,4
    c774:	02078863          	beqz	a5,c7a4 <main+0x1fc>
    c778:	00001737          	lui	a4,0x1
    c77c:	fffff7b7          	lui	a5,0xfffff
    c780:	82070713          	add	a4,a4,-2016 # 820 <_start-0x77e0>
    c784:	00f70733          	add	a4,a4,a5
    c788:	01010793          	add	a5,sp,16
    c78c:	00f707b3          	add	a5,a4,a5
    c790:	03012603          	lw	a2,48(sp)
    c794:	7ec79583          	lh	a1,2028(a5) # fffff7ec <stack_top+0xfffdf7ec>
    c798:	03412503          	lw	a0,52(sp)
    c79c:	00f12223          	sw	a5,4(sp)
    c7a0:	860fd0ef          	jal	9800 <core_init_state>
    c7a4:	03812783          	lw	a5,56(sp)
    c7a8:	0a079e63          	bnez	a5,c864 <main+0x2bc>
    c7ac:	00100793          	li	a5,1
    c7b0:	fffff4b7          	lui	s1,0xfffff
    c7b4:	02f12c23          	sw	a5,56(sp)
    c7b8:	000017b7          	lui	a5,0x1
    c7bc:	7ec48493          	add	s1,s1,2028 # fffff7ec <stack_top+0xfffdf7ec>
    c7c0:	82078793          	add	a5,a5,-2016 # 820 <_start-0x77e0>
    c7c4:	009787b3          	add	a5,a5,s1
    c7c8:	01010713          	add	a4,sp,16
    c7cc:	00e784b3          	add	s1,a5,a4
    c7d0:	03812703          	lw	a4,56(sp)
    c7d4:	00000413          	li	s0,0
    c7d8:	00271793          	sll	a5,a4,0x2
    c7dc:	00e787b3          	add	a5,a5,a4
    c7e0:	00179793          	sll	a5,a5,0x1
    c7e4:	02f12c23          	sw	a5,56(sp)
    c7e8:	b0cfe0ef          	jal	aaf4 <start_time>
    c7ec:	03812903          	lw	s2,56(sp)
    c7f0:	04012a23          	sw	zero,84(sp)
    c7f4:	04012c23          	sw	zero,88(sp)
    c7f8:	04090263          	beqz	s2,c83c <main+0x294>
    c7fc:	00100593          	li	a1,1
    c800:	00048513          	mv	a0,s1
    c804:	c15fb0ef          	jal	8418 <core_bench_list>
    c808:	05415583          	lhu	a1,84(sp)
    c80c:	921fd0ef          	jal	a12c <crcu16>
    c810:	00050793          	mv	a5,a0
    c814:	fff00593          	li	a1,-1
    c818:	00048513          	mv	a0,s1
    c81c:	04f11a23          	sh	a5,84(sp)
    c820:	bf9fb0ef          	jal	8418 <core_bench_list>
    c824:	05415583          	lhu	a1,84(sp)
    c828:	905fd0ef          	jal	a12c <crcu16>
    c82c:	04a11a23          	sh	a0,84(sp)
    c830:	10040c63          	beqz	s0,c948 <main+0x3a0>
    c834:	00140413          	add	s0,s0,1
    c838:	fc8912e3          	bne	s2,s0,c7fc <main+0x254>
    c83c:	ac4fe0ef          	jal	ab00 <stop_time>
    c840:	ad0fe0ef          	jal	ab10 <get_time>
    c844:	ae4fe0ef          	jal	ab28 <time_in_secs>
    c848:	f80504e3          	beqz	a0,c7d0 <main+0x228>
    c84c:	00a00793          	li	a5,10
    c850:	02a7d7b3          	divu	a5,a5,a0
    c854:	03812703          	lw	a4,56(sp)
    c858:	00178793          	add	a5,a5,1
    c85c:	02e787b3          	mul	a5,a5,a4
    c860:	02f12c23          	sw	a5,56(sp)
    c864:	a90fe0ef          	jal	aaf4 <start_time>
    c868:	00001437          	lui	s0,0x1
    c86c:	fffff537          	lui	a0,0xfffff
    c870:	7ec50513          	add	a0,a0,2028 # fffff7ec <stack_top+0xfffdf7ec>
    c874:	82040793          	add	a5,s0,-2016 # 820 <_start-0x77e0>
    c878:	00a787b3          	add	a5,a5,a0
    c87c:	01010713          	add	a4,sp,16
    c880:	00e78533          	add	a0,a5,a4
    c884:	d68fc0ef          	jal	8dec <iterate>
    c888:	a78fe0ef          	jal	ab00 <stop_time>
    c88c:	a84fe0ef          	jal	ab10 <get_time>
    c890:	fffff7b7          	lui	a5,0xfffff
    c894:	82040713          	add	a4,s0,-2016
    c898:	00f70733          	add	a4,a4,a5
    c89c:	01010793          	add	a5,sp,16
    c8a0:	00f707b3          	add	a5,a4,a5
    c8a4:	00050493          	mv	s1,a0
    c8a8:	7ec79503          	lh	a0,2028(a5) # fffff7ec <stack_top+0xfffdf7ec>
    c8ac:	00000593          	li	a1,0
    c8b0:	00f12223          	sw	a5,4(sp)
    c8b4:	f5dfd0ef          	jal	a810 <crc16>
    c8b8:	00412783          	lw	a5,4(sp)
    c8bc:	00050593          	mv	a1,a0
    c8c0:	7ee79503          	lh	a0,2030(a5)
    c8c4:	f4dfd0ef          	jal	a810 <crc16>
    c8c8:	00412783          	lw	a5,4(sp)
    c8cc:	00050593          	mv	a1,a0
    c8d0:	7f079503          	lh	a0,2032(a5)
    c8d4:	f3dfd0ef          	jal	a810 <crc16>
    c8d8:	00050593          	mv	a1,a0
    c8dc:	03411503          	lh	a0,52(sp)
    c8e0:	f31fd0ef          	jal	a810 <crc16>
    c8e4:	000087b7          	lui	a5,0x8
    c8e8:	b0578793          	add	a5,a5,-1275 # 7b05 <_start-0x4fb>
    c8ec:	00050913          	mv	s2,a0
    c8f0:	72f50263          	beq	a0,a5,d014 <main+0xa6c>
    c8f4:	10a7fa63          	bgeu	a5,a0,ca08 <main+0x460>
    c8f8:	000097b7          	lui	a5,0x9
    c8fc:	a0278793          	add	a5,a5,-1534 # 8a02 <core_list_init+0x14a>
    c900:	6cf50e63          	beq	a0,a5,cfdc <main+0xa34>
    c904:	0000f7b7          	lui	a5,0xf
    c908:	9f578793          	add	a5,a5,-1547 # e9f5 <main+0x244d>
    c90c:	30f51063          	bne	a0,a5,cc0c <main+0x664>
    c910:	00010537          	lui	a0,0x10
    c914:	2ec50513          	add	a0,a0,748 # 102ec <errpat+0x2bc>
    c918:	819fe0ef          	jal	b130 <ee_printf>
    c91c:	00009a37          	lui	s4,0x9
    c920:	000027b7          	lui	a5,0x2
    c924:	0000e9b7          	lui	s3,0xe
    c928:	fd778793          	add	a5,a5,-41 # 1fd7 <_start-0x6029>
    c92c:	e3aa0a13          	add	s4,s4,-454 # 8e3a <iterate+0x4e>
    c930:	71498993          	add	s3,s3,1812 # e714 <main+0x216c>
    c934:	00f12623          	sw	a5,12(sp)
    c938:	000a0c13          	mv	s8,s4
    c93c:	00078b93          	mv	s7,a5
    c940:	00098b13          	mv	s6,s3
    c944:	1100006f          	j	ca54 <main+0x4ac>
    c948:	04a11b23          	sh	a0,86(sp)
    c94c:	00100793          	li	a5,1
    c950:	eef906e3          	beq	s2,a5,c83c <main+0x294>
    c954:	00100413          	li	s0,1
    c958:	ea5ff06f          	j	c7fc <main+0x254>
    c95c:	00001737          	lui	a4,0x1
    c960:	fffff7b7          	lui	a5,0xfffff
    c964:	82070713          	add	a4,a4,-2016 # 820 <_start-0x77e0>
    c968:	00f70733          	add	a4,a4,a5
    c96c:	01010793          	add	a5,sp,16
    c970:	00f707b3          	add	a5,a4,a5
    c974:	00f12223          	sw	a5,4(sp)
    c978:	00412703          	lw	a4,4(sp)
    c97c:	7ee79783          	lh	a5,2030(a5) # fffff7ee <stack_top+0xfffdf7ee>
    c980:	03412503          	lw	a0,52(sp)
    c984:	7ec71603          	lh	a2,2028(a4)
    c988:	7fc72583          	lw	a1,2044(a4)
    c98c:	01079793          	sll	a5,a5,0x10
    c990:	00c7e633          	or	a2,a5,a2
    c994:	04410693          	add	a3,sp,68
    c998:	a19fc0ef          	jal	93b0 <core_init_matrix>
    c99c:	03c12783          	lw	a5,60(sp)
    c9a0:	0047f793          	and	a5,a5,4
    c9a4:	dc079ae3          	bnez	a5,c778 <main+0x1d0>
    c9a8:	dfdff06f          	j	c7a4 <main+0x1fc>
    c9ac:	00178813          	add	a6,a5,1
    c9b0:	7d000593          	li	a1,2000
    c9b4:	0305d5b3          	divu	a1,a1,a6
    c9b8:	02b12a23          	sw	a1,52(sp)
    c9bc:	22071063          	bnez	a4,cbdc <main+0x634>
    c9c0:	6a069063          	bnez	a3,d060 <main+0xab8>
    c9c4:	02b787b3          	mul	a5,a5,a1
    c9c8:	06010713          	add	a4,sp,96
    c9cc:	00f707b3          	add	a5,a4,a5
    c9d0:	02f12823          	sw	a5,48(sp)
    c9d4:	d51ff06f          	j	c724 <main+0x17c>
    c9d8:	00100713          	li	a4,1
    c9dc:	cee798e3          	bne	a5,a4,c6cc <main+0x124>
    c9e0:	00412783          	lw	a5,4(sp)
    c9e4:	7f079783          	lh	a5,2032(a5)
    c9e8:	ce0792e3          	bnez	a5,c6cc <main+0x124>
    c9ec:	00412703          	lw	a4,4(sp)
    c9f0:	341537b7          	lui	a5,0x34153
    c9f4:	41578793          	add	a5,a5,1045 # 34153415 <stack_top+0x34133415>
    c9f8:	7ef72623          	sw	a5,2028(a4)
    c9fc:	06600793          	li	a5,102
    ca00:	7ef71823          	sh	a5,2032(a4)
    ca04:	cc9ff06f          	j	c6cc <main+0x124>
    ca08:	000027b7          	lui	a5,0x2
    ca0c:	8f278793          	add	a5,a5,-1806 # 18f2 <_start-0x670e>
    ca10:	58f50c63          	beq	a0,a5,cfa8 <main+0xa00>
    ca14:	000057b7          	lui	a5,0x5
    ca18:	eaf78793          	add	a5,a5,-337 # 4eaf <_start-0x3151>
    ca1c:	1ef51863          	bne	a0,a5,cc0c <main+0x664>
    ca20:	00010537          	lui	a0,0x10
    ca24:	2b850513          	add	a0,a0,696 # 102b8 <errpat+0x288>
    ca28:	f08fe0ef          	jal	b130 <ee_printf>
    ca2c:	0000ea37          	lui	s4,0xe
    ca30:	000057b7          	lui	a5,0x5
    ca34:	000079b7          	lui	s3,0x7
    ca38:	60878793          	add	a5,a5,1544 # 5608 <_start-0x29f8>
    ca3c:	5a4a0a13          	add	s4,s4,1444 # e5a4 <main+0x1ffc>
    ca40:	a7998993          	add	s3,s3,-1415 # 6a79 <_start-0x1587>
    ca44:	00f12623          	sw	a5,12(sp)
    ca48:	000a0c13          	mv	s8,s4
    ca4c:	00078b93          	mv	s7,a5
    ca50:	00098b13          	mv	s6,s3
    ca54:	00010cb7          	lui	s9,0x10
    ca58:	76cca783          	lw	a5,1900(s9) # 1076c <default_num_contexts>
    ca5c:	5e078863          	beqz	a5,d04c <main+0xaa4>
    ca60:	00001737          	lui	a4,0x1
    ca64:	fffff7b7          	lui	a5,0xfffff
    ca68:	82070713          	add	a4,a4,-2016 # 820 <_start-0x77e0>
    ca6c:	00f70733          	add	a4,a4,a5
    ca70:	01010793          	add	a5,sp,16
    ca74:	00f707b3          	add	a5,a4,a5
    ca78:	00000a93          	li	s5,0
    ca7c:	00000d93          	li	s11,0
    ca80:	00f12223          	sw	a5,4(sp)
    ca84:	00001d37          	lui	s10,0x1
    ca88:	0440006f          	j	cacc <main+0x524>
    ca8c:	00412703          	lw	a4,4(sp)
    ca90:	01b407b3          	add	a5,s0,s11
    ca94:	00279793          	sll	a5,a5,0x2
    ca98:	00f707b3          	add	a5,a4,a5
    ca9c:	00fd07b3          	add	a5,s10,a5
    caa0:	82c7d783          	lhu	a5,-2004(a5) # ffffe82c <stack_top+0xfffde82c>
    caa4:	001d8593          	add	a1,s11,1
    caa8:	76cca683          	lw	a3,1900(s9)
    caac:	015787b3          	add	a5,a5,s5
    cab0:	01059d93          	sll	s11,a1,0x10
    cab4:	01079413          	sll	s0,a5,0x10
    cab8:	01079a93          	sll	s5,a5,0x10
    cabc:	010ddd93          	srl	s11,s11,0x10
    cac0:	01045413          	srl	s0,s0,0x10
    cac4:	410ada93          	sra	s5,s5,0x10
    cac8:	14ddf863          	bgeu	s11,a3,cc18 <main+0x670>
    cacc:	00412703          	lw	a4,4(sp)
    cad0:	004d9413          	sll	s0,s11,0x4
    cad4:	01b407b3          	add	a5,s0,s11
    cad8:	00279793          	sll	a5,a5,0x2
    cadc:	00f707b3          	add	a5,a4,a5
    cae0:	00fd07b3          	add	a5,s10,a5
    cae4:	80c7a683          	lw	a3,-2036(a5)
    cae8:	82079623          	sh	zero,-2004(a5)
    caec:	0016f613          	and	a2,a3,1
    caf0:	02060c63          	beqz	a2,cb28 <main+0x580>
    caf4:	8267d603          	lhu	a2,-2010(a5)
    caf8:	00f12423          	sw	a5,8(sp)
    cafc:	03660663          	beq	a2,s6,cb28 <main+0x580>
    cb00:	000107b7          	lui	a5,0x10
    cb04:	00098693          	mv	a3,s3
    cb08:	34878513          	add	a0,a5,840 # 10348 <errpat+0x318>
    cb0c:	000d8593          	mv	a1,s11
    cb10:	e20fe0ef          	jal	b130 <ee_printf>
    cb14:	00812783          	lw	a5,8(sp)
    cb18:	82c7d603          	lhu	a2,-2004(a5)
    cb1c:	80c7a683          	lw	a3,-2036(a5)
    cb20:	00160613          	add	a2,a2,1
    cb24:	82c79623          	sh	a2,-2004(a5)
    cb28:	0026f793          	and	a5,a3,2
    cb2c:	04078663          	beqz	a5,cb78 <main+0x5d0>
    cb30:	00412703          	lw	a4,4(sp)
    cb34:	01b407b3          	add	a5,s0,s11
    cb38:	00279793          	sll	a5,a5,0x2
    cb3c:	00f707b3          	add	a5,a4,a5
    cb40:	00fd07b3          	add	a5,s10,a5
    cb44:	8287d603          	lhu	a2,-2008(a5)
    cb48:	00f12423          	sw	a5,8(sp)
    cb4c:	03760663          	beq	a2,s7,cb78 <main+0x5d0>
    cb50:	00c12683          	lw	a3,12(sp)
    cb54:	000107b7          	lui	a5,0x10
    cb58:	37878513          	add	a0,a5,888 # 10378 <errpat+0x348>
    cb5c:	000d8593          	mv	a1,s11
    cb60:	dd0fe0ef          	jal	b130 <ee_printf>
    cb64:	00812783          	lw	a5,8(sp)
    cb68:	82c7d603          	lhu	a2,-2004(a5)
    cb6c:	80c7a683          	lw	a3,-2036(a5)
    cb70:	00160613          	add	a2,a2,1
    cb74:	82c79623          	sh	a2,-2004(a5)
    cb78:	0046f693          	and	a3,a3,4
    cb7c:	f00688e3          	beqz	a3,ca8c <main+0x4e4>
    cb80:	00412783          	lw	a5,4(sp)
    cb84:	01b40433          	add	s0,s0,s11
    cb88:	00241413          	sll	s0,s0,0x2
    cb8c:	00878433          	add	s0,a5,s0
    cb90:	008d0433          	add	s0,s10,s0
    cb94:	82a45603          	lhu	a2,-2006(s0)
    cb98:	37861e63          	bne	a2,s8,cf14 <main+0x96c>
    cb9c:	82c45783          	lhu	a5,-2004(s0)
    cba0:	f05ff06f          	j	caa4 <main+0x4fc>
    cba4:	00412703          	lw	a4,4(sp)
    cba8:	06600793          	li	a5,102
    cbac:	7ef71823          	sh	a5,2032(a4)
    cbb0:	b1dff06f          	j	c6cc <main+0x124>
    cbb4:	02b707b3          	mul	a5,a4,a1
    cbb8:	06010713          	add	a4,sp,96
    cbbc:	01010693          	add	a3,sp,16
    cbc0:	00f707b3          	add	a5,a4,a5
    cbc4:	00001737          	lui	a4,0x1
    cbc8:	82070713          	add	a4,a4,-2016 # 820 <_start-0x77e0>
    cbcc:	01070733          	add	a4,a4,a6
    cbd0:	00d70733          	add	a4,a4,a3
    cbd4:	7ef72e23          	sw	a5,2044(a4)
    cbd8:	b4dff06f          	j	c724 <main+0x17c>
    cbdc:	00001837          	lui	a6,0x1
    cbe0:	fffff537          	lui	a0,0xfffff
    cbe4:	82080813          	add	a6,a6,-2016 # 820 <_start-0x77e0>
    cbe8:	00a80833          	add	a6,a6,a0
    cbec:	01010513          	add	a0,sp,16
    cbf0:	00a80533          	add	a0,a6,a0
    cbf4:	06010813          	add	a6,sp,96
    cbf8:	00a12223          	sw	a0,4(sp)
    cbfc:	7f052c23          	sw	a6,2040(a0) # fffff7f8 <stack_top+0xfffdf7f8>
    cc00:	46069063          	bnez	a3,d060 <main+0xab8>
    cc04:	dc0610e3          	bnez	a2,c9c4 <main+0x41c>
    cc08:	b1dff06f          	j	c724 <main+0x17c>
    cc0c:	00010437          	lui	s0,0x10
    cc10:	fff40413          	add	s0,s0,-1 # ffff <main+0x3a57>
    cc14:	00010cb7          	lui	s9,0x10
    cc18:	e4dfd0ef          	jal	aa64 <check_data_types>
    cc1c:	03412583          	lw	a1,52(sp)
    cc20:	00850433          	add	s0,a0,s0
    cc24:	00010537          	lui	a0,0x10
    cc28:	3dc50513          	add	a0,a0,988 # 103dc <errpat+0x3ac>
    cc2c:	d04fe0ef          	jal	b130 <ee_printf>
    cc30:	00010537          	lui	a0,0x10
    cc34:	00048593          	mv	a1,s1
    cc38:	3f450513          	add	a0,a0,1012 # 103f4 <errpat+0x3c4>
    cc3c:	cf4fe0ef          	jal	b130 <ee_printf>
    cc40:	00048513          	mv	a0,s1
    cc44:	ee5fd0ef          	jal	ab28 <time_in_secs>
    cc48:	00050593          	mv	a1,a0
    cc4c:	00010537          	lui	a0,0x10
    cc50:	40c50513          	add	a0,a0,1036 # 1040c <errpat+0x3dc>
    cc54:	cdcfe0ef          	jal	b130 <ee_printf>
    cc58:	01041413          	sll	s0,s0,0x10
    cc5c:	00048513          	mv	a0,s1
    cc60:	01045413          	srl	s0,s0,0x10
    cc64:	ec5fd0ef          	jal	ab28 <time_in_secs>
    cc68:	30051a63          	bnez	a0,cf7c <main+0x9d4>
    cc6c:	00048513          	mv	a0,s1
    cc70:	eb9fd0ef          	jal	ab28 <time_in_secs>
    cc74:	00900793          	li	a5,9
    cc78:	2ea7f463          	bgeu	a5,a0,cf60 <main+0x9b8>
    cc7c:	01041493          	sll	s1,s0,0x10
    cc80:	4104d493          	sra	s1,s1,0x10
    cc84:	76cca783          	lw	a5,1900(s9) # 1076c <default_num_contexts>
    cc88:	03812583          	lw	a1,56(sp)
    cc8c:	00010537          	lui	a0,0x10
    cc90:	47c50513          	add	a0,a0,1148 # 1047c <errpat+0x44c>
    cc94:	02f585b3          	mul	a1,a1,a5
    cc98:	c98fe0ef          	jal	b130 <ee_printf>
    cc9c:	000105b7          	lui	a1,0x10
    cca0:	00010537          	lui	a0,0x10
    cca4:	49458593          	add	a1,a1,1172 # 10494 <errpat+0x464>
    cca8:	4a050513          	add	a0,a0,1184 # 104a0 <errpat+0x470>
    ccac:	c84fe0ef          	jal	b130 <ee_printf>
    ccb0:	000105b7          	lui	a1,0x10
    ccb4:	00010537          	lui	a0,0x10
    ccb8:	31858593          	add	a1,a1,792 # 10318 <errpat+0x2e8>
    ccbc:	4b850513          	add	a0,a0,1208 # 104b8 <errpat+0x488>
    ccc0:	c70fe0ef          	jal	b130 <ee_printf>
    ccc4:	000105b7          	lui	a1,0x10
    ccc8:	00010537          	lui	a0,0x10
    cccc:	4d058593          	add	a1,a1,1232 # 104d0 <errpat+0x4a0>
    ccd0:	4d850513          	add	a0,a0,1240 # 104d8 <errpat+0x4a8>
    ccd4:	c5cfe0ef          	jal	b130 <ee_printf>
    ccd8:	00010537          	lui	a0,0x10
    ccdc:	00090593          	mv	a1,s2
    cce0:	4f050513          	add	a0,a0,1264 # 104f0 <errpat+0x4c0>
    cce4:	c4cfe0ef          	jal	b130 <ee_printf>
    cce8:	03c12783          	lw	a5,60(sp)
    ccec:	0017f693          	and	a3,a5,1
    ccf0:	06068a63          	beqz	a3,cd64 <main+0x7bc>
    ccf4:	76cca683          	lw	a3,1900(s9)
    ccf8:	06068663          	beqz	a3,cd64 <main+0x7bc>
    ccfc:	00001737          	lui	a4,0x1
    cd00:	fffff7b7          	lui	a5,0xfffff
    cd04:	82070713          	add	a4,a4,-2016 # 820 <_start-0x77e0>
    cd08:	00f70733          	add	a4,a4,a5
    cd0c:	01010793          	add	a5,sp,16
    cd10:	00f707b3          	add	a5,a4,a5
    cd14:	00000413          	li	s0,0
    cd18:	000109b7          	lui	s3,0x10
    cd1c:	00f12223          	sw	a5,4(sp)
    cd20:	00001937          	lui	s2,0x1
    cd24:	00412703          	lw	a4,4(sp)
    cd28:	00441793          	sll	a5,s0,0x4
    cd2c:	008787b3          	add	a5,a5,s0
    cd30:	00279793          	sll	a5,a5,0x2
    cd34:	00f707b3          	add	a5,a4,a5
    cd38:	00f907b3          	add	a5,s2,a5
    cd3c:	8267d603          	lhu	a2,-2010(a5) # ffffe826 <stack_top+0xfffde826>
    cd40:	00040593          	mv	a1,s0
    cd44:	50c98513          	add	a0,s3,1292 # 1050c <errpat+0x4dc>
    cd48:	be8fe0ef          	jal	b130 <ee_printf>
    cd4c:	00140413          	add	s0,s0,1
    cd50:	76cca783          	lw	a5,1900(s9)
    cd54:	01041413          	sll	s0,s0,0x10
    cd58:	01045413          	srl	s0,s0,0x10
    cd5c:	fcf464e3          	bltu	s0,a5,cd24 <main+0x77c>
    cd60:	03c12783          	lw	a5,60(sp)
    cd64:	0027f693          	and	a3,a5,2
    cd68:	06068a63          	beqz	a3,cddc <main+0x834>
    cd6c:	76cca683          	lw	a3,1900(s9)
    cd70:	2e068263          	beqz	a3,d054 <main+0xaac>
    cd74:	00001737          	lui	a4,0x1
    cd78:	fffff7b7          	lui	a5,0xfffff
    cd7c:	82070713          	add	a4,a4,-2016 # 820 <_start-0x77e0>
    cd80:	00f70733          	add	a4,a4,a5
    cd84:	01010793          	add	a5,sp,16
    cd88:	00f707b3          	add	a5,a4,a5
    cd8c:	00000413          	li	s0,0
    cd90:	000109b7          	lui	s3,0x10
    cd94:	00f12223          	sw	a5,4(sp)
    cd98:	00001937          	lui	s2,0x1
    cd9c:	00412703          	lw	a4,4(sp)
    cda0:	00441793          	sll	a5,s0,0x4
    cda4:	008787b3          	add	a5,a5,s0
    cda8:	00279793          	sll	a5,a5,0x2
    cdac:	00f707b3          	add	a5,a4,a5
    cdb0:	00f907b3          	add	a5,s2,a5
    cdb4:	8287d603          	lhu	a2,-2008(a5) # ffffe828 <stack_top+0xfffde828>
    cdb8:	00040593          	mv	a1,s0
    cdbc:	52898513          	add	a0,s3,1320 # 10528 <errpat+0x4f8>
    cdc0:	b70fe0ef          	jal	b130 <ee_printf>
    cdc4:	00140413          	add	s0,s0,1
    cdc8:	76cca783          	lw	a5,1900(s9)
    cdcc:	01041413          	sll	s0,s0,0x10
    cdd0:	01045413          	srl	s0,s0,0x10
    cdd4:	fcf464e3          	bltu	s0,a5,cd9c <main+0x7f4>
    cdd8:	03c12783          	lw	a5,60(sp)
    cddc:	0047f793          	and	a5,a5,4
    cde0:	76cca683          	lw	a3,1900(s9)
    cde4:	06078663          	beqz	a5,ce50 <main+0x8a8>
    cde8:	0c068663          	beqz	a3,ceb4 <main+0x90c>
    cdec:	00001737          	lui	a4,0x1
    cdf0:	fffff7b7          	lui	a5,0xfffff
    cdf4:	82070713          	add	a4,a4,-2016 # 820 <_start-0x77e0>
    cdf8:	00f70733          	add	a4,a4,a5
    cdfc:	01010793          	add	a5,sp,16
    ce00:	00f707b3          	add	a5,a4,a5
    ce04:	00000413          	li	s0,0
    ce08:	000109b7          	lui	s3,0x10
    ce0c:	00f12223          	sw	a5,4(sp)
    ce10:	00001937          	lui	s2,0x1
    ce14:	00412703          	lw	a4,4(sp)
    ce18:	00441793          	sll	a5,s0,0x4
    ce1c:	008787b3          	add	a5,a5,s0
    ce20:	00279793          	sll	a5,a5,0x2
    ce24:	00f707b3          	add	a5,a4,a5
    ce28:	00f907b3          	add	a5,s2,a5
    ce2c:	82a7d603          	lhu	a2,-2006(a5) # ffffe82a <stack_top+0xfffde82a>
    ce30:	00040593          	mv	a1,s0
    ce34:	54498513          	add	a0,s3,1348 # 10544 <errpat+0x514>
    ce38:	af8fe0ef          	jal	b130 <ee_printf>
    ce3c:	00140413          	add	s0,s0,1
    ce40:	76cca783          	lw	a5,1900(s9)
    ce44:	01041413          	sll	s0,s0,0x10
    ce48:	01045413          	srl	s0,s0,0x10
    ce4c:	fcf464e3          	bltu	s0,a5,ce14 <main+0x86c>
    ce50:	00001737          	lui	a4,0x1
    ce54:	76cca783          	lw	a5,1900(s9)
    ce58:	fffff937          	lui	s2,0xfffff
    ce5c:	82070713          	add	a4,a4,-2016 # 820 <_start-0x77e0>
    ce60:	01270733          	add	a4,a4,s2
    ce64:	01010693          	add	a3,sp,16
    ce68:	00000413          	li	s0,0
    ce6c:	00010a37          	lui	s4,0x10
    ce70:	00d70933          	add	s2,a4,a3
    ce74:	000019b7          	lui	s3,0x1
    ce78:	02078e63          	beqz	a5,ceb4 <main+0x90c>
    ce7c:	00441793          	sll	a5,s0,0x4
    ce80:	008787b3          	add	a5,a5,s0
    ce84:	00279793          	sll	a5,a5,0x2
    ce88:	00f907b3          	add	a5,s2,a5
    ce8c:	00f987b3          	add	a5,s3,a5
    ce90:	8247d603          	lhu	a2,-2012(a5)
    ce94:	00040593          	mv	a1,s0
    ce98:	560a0513          	add	a0,s4,1376 # 10560 <errpat+0x530>
    ce9c:	a94fe0ef          	jal	b130 <ee_printf>
    cea0:	00140413          	add	s0,s0,1
    cea4:	76cca783          	lw	a5,1900(s9)
    cea8:	01041413          	sll	s0,s0,0x10
    ceac:	01045413          	srl	s0,s0,0x10
    ceb0:	fcf466e3          	bltu	s0,a5,ce7c <main+0x8d4>
    ceb4:	08048e63          	beqz	s1,cf50 <main+0x9a8>
    ceb8:	08904463          	bgtz	s1,cf40 <main+0x998>
    cebc:	00010537          	lui	a0,0x10
    cec0:	5c850513          	add	a0,a0,1480 # 105c8 <errpat+0x598>
    cec4:	a6cfe0ef          	jal	b130 <ee_printf>
    cec8:	05e10513          	add	a0,sp,94
    cecc:	c6dfd0ef          	jal	ab38 <portable_fini>
    ced0:	08010113          	add	sp,sp,128
    ced4:	7ec12083          	lw	ra,2028(sp)
    ced8:	7e812403          	lw	s0,2024(sp)
    cedc:	7e412483          	lw	s1,2020(sp)
    cee0:	7e012903          	lw	s2,2016(sp)
    cee4:	7dc12983          	lw	s3,2012(sp)
    cee8:	7d812a03          	lw	s4,2008(sp)
    ceec:	7d412a83          	lw	s5,2004(sp)
    cef0:	7d012b03          	lw	s6,2000(sp)
    cef4:	7cc12b83          	lw	s7,1996(sp)
    cef8:	7c812c03          	lw	s8,1992(sp)
    cefc:	7c412c83          	lw	s9,1988(sp)
    cf00:	7c012d03          	lw	s10,1984(sp)
    cf04:	7bc12d83          	lw	s11,1980(sp)
    cf08:	00000513          	li	a0,0
    cf0c:	7f010113          	add	sp,sp,2032
    cf10:	00008067          	ret
    cf14:	000107b7          	lui	a5,0x10
    cf18:	3ac78513          	add	a0,a5,940 # 103ac <errpat+0x37c>
    cf1c:	000a0693          	mv	a3,s4
    cf20:	000d8593          	mv	a1,s11
    cf24:	a0cfe0ef          	jal	b130 <ee_printf>
    cf28:	82c45783          	lhu	a5,-2004(s0)
    cf2c:	00178793          	add	a5,a5,1
    cf30:	01079793          	sll	a5,a5,0x10
    cf34:	0107d793          	srl	a5,a5,0x10
    cf38:	82f41623          	sh	a5,-2004(s0)
    cf3c:	b69ff06f          	j	caa4 <main+0x4fc>
    cf40:	00010537          	lui	a0,0x10
    cf44:	62c50513          	add	a0,a0,1580 # 1062c <errpat+0x5fc>
    cf48:	9e8fe0ef          	jal	b130 <ee_printf>
    cf4c:	f7dff06f          	j	cec8 <main+0x920>
    cf50:	00010537          	lui	a0,0x10
    cf54:	57c50513          	add	a0,a0,1404 # 1057c <errpat+0x54c>
    cf58:	9d8fe0ef          	jal	b130 <ee_printf>
    cf5c:	f6dff06f          	j	cec8 <main+0x920>
    cf60:	00010537          	lui	a0,0x10
    cf64:	00140493          	add	s1,s0,1
    cf68:	43c50513          	add	a0,a0,1084 # 1043c <errpat+0x40c>
    cf6c:	01049493          	sll	s1,s1,0x10
    cf70:	9c0fe0ef          	jal	b130 <ee_printf>
    cf74:	4104d493          	sra	s1,s1,0x10
    cf78:	d0dff06f          	j	cc84 <main+0x6dc>
    cf7c:	76cca783          	lw	a5,1900(s9)
    cf80:	03812983          	lw	s3,56(sp)
    cf84:	00048513          	mv	a0,s1
    cf88:	02f989b3          	mul	s3,s3,a5
    cf8c:	b9dfd0ef          	jal	ab28 <time_in_secs>
    cf90:	00050593          	mv	a1,a0
    cf94:	00010537          	lui	a0,0x10
    cf98:	42450513          	add	a0,a0,1060 # 10424 <errpat+0x3f4>
    cf9c:	02b9d5b3          	divu	a1,s3,a1
    cfa0:	990fe0ef          	jal	b130 <ee_printf>
    cfa4:	cc9ff06f          	j	cc6c <main+0x6c4>
    cfa8:	00010537          	lui	a0,0x10
    cfac:	31c50513          	add	a0,a0,796 # 1031c <errpat+0x2ec>
    cfb0:	980fe0ef          	jal	b130 <ee_printf>
    cfb4:	00009a37          	lui	s4,0x9
    cfb8:	0000e9b7          	lui	s3,0xe
    cfbc:	d84a0a13          	add	s4,s4,-636 # 8d84 <core_list_mergesort+0xe8>
    cfc0:	3c198993          	add	s3,s3,961 # e3c1 <main+0x1e19>
    cfc4:	74700793          	li	a5,1863
    cfc8:	000a0c13          	mv	s8,s4
    cfcc:	00f12623          	sw	a5,12(sp)
    cfd0:	74700b93          	li	s7,1863
    cfd4:	00098b13          	mv	s6,s3
    cfd8:	a7dff06f          	j	ca54 <main+0x4ac>
    cfdc:	00010537          	lui	a0,0x10
    cfe0:	25c50513          	add	a0,a0,604 # 1025c <errpat+0x22c>
    cfe4:	94cfe0ef          	jal	b130 <ee_printf>
    cfe8:	00006a37          	lui	s4,0x6
    cfec:	0000c7b7          	lui	a5,0xc
    cff0:	0000d9b7          	lui	s3,0xd
    cff4:	e5278793          	add	a5,a5,-430 # be52 <ee_printf+0xd22>
    cff8:	e47a0a13          	add	s4,s4,-441 # 5e47 <_start-0x21b9>
    cffc:	4b098993          	add	s3,s3,1200 # d4b0 <main+0xf08>
    d000:	00f12623          	sw	a5,12(sp)
    d004:	000a0c13          	mv	s8,s4
    d008:	00078b93          	mv	s7,a5
    d00c:	00098b13          	mv	s6,s3
    d010:	a45ff06f          	j	ca54 <main+0x4ac>
    d014:	00010537          	lui	a0,0x10
    d018:	28c50513          	add	a0,a0,652 # 1028c <errpat+0x25c>
    d01c:	914fe0ef          	jal	b130 <ee_printf>
    d020:	00004a37          	lui	s4,0x4
    d024:	000017b7          	lui	a5,0x1
    d028:	000039b7          	lui	s3,0x3
    d02c:	19978793          	add	a5,a5,409 # 1199 <_start-0x6e67>
    d030:	9bfa0a13          	add	s4,s4,-1601 # 39bf <_start-0x4641>
    d034:	34098993          	add	s3,s3,832 # 3340 <_start-0x4cc0>
    d038:	00f12623          	sw	a5,12(sp)
    d03c:	000a0c13          	mv	s8,s4
    d040:	00078b93          	mv	s7,a5
    d044:	00098b13          	mv	s6,s3
    d048:	a0dff06f          	j	ca54 <main+0x4ac>
    d04c:	00000413          	li	s0,0
    d050:	bc9ff06f          	j	cc18 <main+0x670>
    d054:	0047f793          	and	a5,a5,4
    d058:	de078ce3          	beqz	a5,ce50 <main+0x8a8>
    d05c:	e59ff06f          	j	ceb4 <main+0x90c>
    d060:	02b70733          	mul	a4,a4,a1
    d064:	06010513          	add	a0,sp,96
    d068:	fffff6b7          	lui	a3,0xfffff
    d06c:	00e50733          	add	a4,a0,a4
    d070:	00001537          	lui	a0,0x1
    d074:	82050513          	add	a0,a0,-2016 # 820 <_start-0x77e0>
    d078:	00d50533          	add	a0,a0,a3
    d07c:	01010693          	add	a3,sp,16
    d080:	00d506b3          	add	a3,a0,a3
    d084:	00d12223          	sw	a3,4(sp)
    d088:	7ee6ae23          	sw	a4,2044(a3) # fffff7fc <stack_top+0xfffdf7fc>
    d08c:	92061ce3          	bnez	a2,c9c4 <main+0x41c>
    d090:	e94ff06f          	j	c724 <main+0x17c>

セクション .rodata の逆アセンブル:

00010000 <intpat>:
   10000:	06e8                	.insn	2, 0x06e8
   10002:	0001                	.insn	2, 0x0001
   10004:	06f0                	.insn	2, 0x06f0
   10006:	0001                	.insn	2, 0x0001
   10008:	06f8                	.insn	2, 0x06f8
   1000a:	0001                	.insn	2, 0x0001
   1000c:	0700                	.insn	2, 0x0700
   1000e:	0001                	.insn	2, 0x0001

00010010 <floatpat>:
   10010:	06b8                	.insn	2, 0x06b8
   10012:	0001                	.insn	2, 0x0001
   10014:	06c4                	.insn	2, 0x06c4
   10016:	0001                	.insn	2, 0x0001
   10018:	06d0                	.insn	2, 0x06d0
   1001a:	0001                	.insn	2, 0x0001
   1001c:	06dc                	.insn	2, 0x06dc
   1001e:	0001                	.insn	2, 0x0001

00010020 <scipat>:
   10020:	0688                	.insn	2, 0x0688
   10022:	0001                	.insn	2, 0x0001
   10024:	0694                	.insn	2, 0x0694
   10026:	0001                	.insn	2, 0x0001
   10028:	06a0                	.insn	2, 0x06a0
   1002a:	0001                	.insn	2, 0x0001
   1002c:	06ac                	.insn	2, 0x06ac
   1002e:	0001                	.insn	2, 0x0001

00010030 <errpat>:
   10030:	0658                	.insn	2, 0x0658
   10032:	0001                	.insn	2, 0x0001
   10034:	0664                	.insn	2, 0x0664
   10036:	0001                	.insn	2, 0x0001
   10038:	0670                	.insn	2, 0x0670
   1003a:	0001                	.insn	2, 0x0001
   1003c:	067c                	.insn	2, 0x067c
   1003e:	0001                	.insn	2, 0x0001
   10040:	9ffc                	.insn	2, 0x9ffc
   10042:	0000                	.insn	2, 0x
   10044:	9fcc                	.insn	2, 0x9fcc
   10046:	0000                	.insn	2, 0x
   10048:	9fd8                	.insn	2, 0x9fd8
   1004a:	0000                	.insn	2, 0x
   1004c:	9fe4                	.insn	2, 0x9fe4
   1004e:	0000                	.insn	2, 0x
   10050:	9ff0                	.insn	2, 0x9ff0
   10052:	0000                	.insn	2, 0x
   10054:	9fc0                	.insn	2, 0x9fc0
   10056:	0000                	.insn	2, 0x
   10058:	b350                	.insn	2, 0xb350
   1005a:	0000                	.insn	2, 0x
   1005c:	b2d0                	.insn	2, 0xb2d0
   1005e:	0000                	.insn	2, 0x
   10060:	b2d0                	.insn	2, 0xb2d0
   10062:	0000                	.insn	2, 0x
   10064:	b344                	.insn	2, 0xb344
   10066:	0000                	.insn	2, 0x
   10068:	b2d0                	.insn	2, 0xb2d0
   1006a:	0000                	.insn	2, 0x
   1006c:	b2d0                	.insn	2, 0xb2d0
   1006e:	0000                	.insn	2, 0x
   10070:	b2d0                	.insn	2, 0xb2d0
   10072:	0000                	.insn	2, 0x
   10074:	b2d0                	.insn	2, 0xb2d0
   10076:	0000                	.insn	2, 0x
   10078:	b2d0                	.insn	2, 0xb2d0
   1007a:	0000                	.insn	2, 0x
   1007c:	b2d0                	.insn	2, 0xb2d0
   1007e:	0000                	.insn	2, 0x
   10080:	b2d0                	.insn	2, 0xb2d0
   10082:	0000                	.insn	2, 0x
   10084:	b338                	.insn	2, 0xb338
   10086:	0000                	.insn	2, 0x
   10088:	b2d0                	.insn	2, 0xb2d0
   1008a:	0000                	.insn	2, 0x
   1008c:	b32c                	.insn	2, 0xb32c
   1008e:	0000                	.insn	2, 0x
   10090:	b2d0                	.insn	2, 0xb2d0
   10092:	0000                	.insn	2, 0x
   10094:	b2d0                	.insn	2, 0xb2d0
   10096:	0000                	.insn	2, 0x
   10098:	b320                	.insn	2, 0xb320
   1009a:	0000                	.insn	2, 0x
   1009c:	c11c                	.insn	2, 0xc11c
   1009e:	0000                	.insn	2, 0x
   100a0:	b35c                	.insn	2, 0xb35c
   100a2:	0000                	.insn	2, 0x
   100a4:	b35c                	.insn	2, 0xb35c
   100a6:	0000                	.insn	2, 0x
   100a8:	b35c                	.insn	2, 0xb35c
   100aa:	0000                	.insn	2, 0x
   100ac:	b35c                	.insn	2, 0xb35c
   100ae:	0000                	.insn	2, 0x
   100b0:	b35c                	.insn	2, 0xb35c
   100b2:	0000                	.insn	2, 0x
   100b4:	b35c                	.insn	2, 0xb35c
   100b6:	0000                	.insn	2, 0x
   100b8:	b35c                	.insn	2, 0xb35c
   100ba:	0000                	.insn	2, 0x
   100bc:	b35c                	.insn	2, 0xb35c
   100be:	0000                	.insn	2, 0x
   100c0:	b35c                	.insn	2, 0xb35c
   100c2:	0000                	.insn	2, 0x
   100c4:	b35c                	.insn	2, 0xb35c
   100c6:	0000                	.insn	2, 0x
   100c8:	b35c                	.insn	2, 0xb35c
   100ca:	0000                	.insn	2, 0x
   100cc:	b35c                	.insn	2, 0xb35c
   100ce:	0000                	.insn	2, 0x
   100d0:	b35c                	.insn	2, 0xb35c
   100d2:	0000                	.insn	2, 0x
   100d4:	b35c                	.insn	2, 0xb35c
   100d6:	0000                	.insn	2, 0x
   100d8:	b35c                	.insn	2, 0xb35c
   100da:	0000                	.insn	2, 0x
   100dc:	b35c                	.insn	2, 0xb35c
   100de:	0000                	.insn	2, 0x
   100e0:	b35c                	.insn	2, 0xb35c
   100e2:	0000                	.insn	2, 0x
   100e4:	b35c                	.insn	2, 0xb35c
   100e6:	0000                	.insn	2, 0x
   100e8:	b35c                	.insn	2, 0xb35c
   100ea:	0000                	.insn	2, 0x
   100ec:	b35c                	.insn	2, 0xb35c
   100ee:	0000                	.insn	2, 0x
   100f0:	b35c                	.insn	2, 0xb35c
   100f2:	0000                	.insn	2, 0x
   100f4:	b35c                	.insn	2, 0xb35c
   100f6:	0000                	.insn	2, 0x
   100f8:	c3f0                	.insn	2, 0xc3f0
   100fa:	0000                	.insn	2, 0x
   100fc:	b35c                	.insn	2, 0xb35c
   100fe:	0000                	.insn	2, 0x
   10100:	b35c                	.insn	2, 0xb35c
   10102:	0000                	.insn	2, 0x
   10104:	b35c                	.insn	2, 0xb35c
   10106:	0000                	.insn	2, 0x
   10108:	b35c                	.insn	2, 0xb35c
   1010a:	0000                	.insn	2, 0x
   1010c:	b35c                	.insn	2, 0xb35c
   1010e:	0000                	.insn	2, 0x
   10110:	b35c                	.insn	2, 0xb35c
   10112:	0000                	.insn	2, 0x
   10114:	b35c                	.insn	2, 0xb35c
   10116:	0000                	.insn	2, 0x
   10118:	b35c                	.insn	2, 0xb35c
   1011a:	0000                	.insn	2, 0x
   1011c:	c3d0                	.insn	2, 0xc3d0
   1011e:	0000                	.insn	2, 0x
   10120:	b35c                	.insn	2, 0xb35c
   10122:	0000                	.insn	2, 0x
   10124:	b648                	.insn	2, 0xb648
   10126:	0000                	.insn	2, 0x
   10128:	c3c0                	.insn	2, 0xc3c0
   1012a:	0000                	.insn	2, 0x
   1012c:	b35c                	.insn	2, 0xb35c
   1012e:	0000                	.insn	2, 0x
   10130:	b35c                	.insn	2, 0xb35c
   10132:	0000                	.insn	2, 0x
   10134:	b35c                	.insn	2, 0xb35c
   10136:	0000                	.insn	2, 0x
   10138:	b35c                	.insn	2, 0xb35c
   1013a:	0000                	.insn	2, 0x
   1013c:	c3c0                	.insn	2, 0xc3c0
   1013e:	0000                	.insn	2, 0x
   10140:	b35c                	.insn	2, 0xb35c
   10142:	0000                	.insn	2, 0x
   10144:	b35c                	.insn	2, 0xb35c
   10146:	0000                	.insn	2, 0x
   10148:	b35c                	.insn	2, 0xb35c
   1014a:	0000                	.insn	2, 0x
   1014c:	b35c                	.insn	2, 0xb35c
   1014e:	0000                	.insn	2, 0x
   10150:	b35c                	.insn	2, 0xb35c
   10152:	0000                	.insn	2, 0x
   10154:	b63c                	.insn	2, 0xb63c
   10156:	0000                	.insn	2, 0x
   10158:	b610                	.insn	2, 0xb610
   1015a:	0000                	.insn	2, 0x
   1015c:	b35c                	.insn	2, 0xb35c
   1015e:	0000                	.insn	2, 0x
   10160:	b35c                	.insn	2, 0xb35c
   10162:	0000                	.insn	2, 0x
   10164:	b474                	.insn	2, 0xb474
   10166:	0000                	.insn	2, 0x
   10168:	b35c                	.insn	2, 0xb35c
   1016a:	0000                	.insn	2, 0x
   1016c:	b468                	.insn	2, 0xb468
   1016e:	0000                	.insn	2, 0x
   10170:	b35c                	.insn	2, 0xb35c
   10172:	0000                	.insn	2, 0x
   10174:	b35c                	.insn	2, 0xb35c
   10176:	0000                	.insn	2, 0x
   10178:	c400                	.insn	2, 0xc400
   1017a:	0000                	.insn	2, 0x
   1017c:	be0c                	.insn	2, 0xbe0c
   1017e:	0000                	.insn	2, 0x
   10180:	b360                	.insn	2, 0xb360
   10182:	0000                	.insn	2, 0x
   10184:	b360                	.insn	2, 0xb360
   10186:	0000                	.insn	2, 0x
   10188:	b360                	.insn	2, 0xb360
   1018a:	0000                	.insn	2, 0x
   1018c:	b360                	.insn	2, 0xb360
   1018e:	0000                	.insn	2, 0x
   10190:	b360                	.insn	2, 0xb360
   10192:	0000                	.insn	2, 0x
   10194:	b360                	.insn	2, 0xb360
   10196:	0000                	.insn	2, 0x
   10198:	b360                	.insn	2, 0xb360
   1019a:	0000                	.insn	2, 0x
   1019c:	b360                	.insn	2, 0xb360
   1019e:	0000                	.insn	2, 0x
   101a0:	b360                	.insn	2, 0xb360
   101a2:	0000                	.insn	2, 0x
   101a4:	b360                	.insn	2, 0xb360
   101a6:	0000                	.insn	2, 0x
   101a8:	b360                	.insn	2, 0xb360
   101aa:	0000                	.insn	2, 0x
   101ac:	b360                	.insn	2, 0xb360
   101ae:	0000                	.insn	2, 0x
   101b0:	b360                	.insn	2, 0xb360
   101b2:	0000                	.insn	2, 0x
   101b4:	b360                	.insn	2, 0xb360
   101b6:	0000                	.insn	2, 0x
   101b8:	b360                	.insn	2, 0xb360
   101ba:	0000                	.insn	2, 0x
   101bc:	b360                	.insn	2, 0xb360
   101be:	0000                	.insn	2, 0x
   101c0:	b360                	.insn	2, 0xb360
   101c2:	0000                	.insn	2, 0x
   101c4:	b360                	.insn	2, 0xb360
   101c6:	0000                	.insn	2, 0x
   101c8:	b360                	.insn	2, 0xb360
   101ca:	0000                	.insn	2, 0x
   101cc:	b360                	.insn	2, 0xb360
   101ce:	0000                	.insn	2, 0x
   101d0:	b360                	.insn	2, 0xb360
   101d2:	0000                	.insn	2, 0x
   101d4:	b360                	.insn	2, 0xb360
   101d6:	0000                	.insn	2, 0x
   101d8:	b444                	.insn	2, 0xb444
   101da:	0000                	.insn	2, 0x
   101dc:	b360                	.insn	2, 0xb360
   101de:	0000                	.insn	2, 0x
   101e0:	b360                	.insn	2, 0xb360
   101e2:	0000                	.insn	2, 0x
   101e4:	b360                	.insn	2, 0xb360
   101e6:	0000                	.insn	2, 0x
   101e8:	b360                	.insn	2, 0xb360
   101ea:	0000                	.insn	2, 0x
   101ec:	b360                	.insn	2, 0xb360
   101ee:	0000                	.insn	2, 0x
   101f0:	b360                	.insn	2, 0xb360
   101f2:	0000                	.insn	2, 0x
   101f4:	b360                	.insn	2, 0xb360
   101f6:	0000                	.insn	2, 0x
   101f8:	b360                	.insn	2, 0xb360
   101fa:	0000                	.insn	2, 0x
   101fc:	b990                	.insn	2, 0xb990
   101fe:	0000                	.insn	2, 0x
   10200:	b360                	.insn	2, 0xb360
   10202:	0000                	.insn	2, 0x
   10204:	b64c                	.insn	2, 0xb64c
   10206:	0000                	.insn	2, 0x
   10208:	b970                	.insn	2, 0xb970
   1020a:	0000                	.insn	2, 0x
   1020c:	b360                	.insn	2, 0xb360
   1020e:	0000                	.insn	2, 0x
   10210:	b360                	.insn	2, 0xb360
   10212:	0000                	.insn	2, 0x
   10214:	b360                	.insn	2, 0xb360
   10216:	0000                	.insn	2, 0x
   10218:	b360                	.insn	2, 0xb360
   1021a:	0000                	.insn	2, 0x
   1021c:	b970                	.insn	2, 0xb970
   1021e:	0000                	.insn	2, 0x
   10220:	b360                	.insn	2, 0xb360
   10222:	0000                	.insn	2, 0x
   10224:	b360                	.insn	2, 0xb360
   10226:	0000                	.insn	2, 0x
   10228:	b360                	.insn	2, 0xb360
   1022a:	0000                	.insn	2, 0x
   1022c:	b360                	.insn	2, 0xb360
   1022e:	0000                	.insn	2, 0x
   10230:	b360                	.insn	2, 0xb360
   10232:	0000                	.insn	2, 0x
   10234:	b640                	.insn	2, 0xb640
   10236:	0000                	.insn	2, 0x
   10238:	b614                	.insn	2, 0xb614
   1023a:	0000                	.insn	2, 0x
   1023c:	b360                	.insn	2, 0xb360
   1023e:	0000                	.insn	2, 0x
   10240:	b360                	.insn	2, 0xb360
   10242:	0000                	.insn	2, 0x
   10244:	b478                	.insn	2, 0xb478
   10246:	0000                	.insn	2, 0x
   10248:	b360                	.insn	2, 0xb360
   1024a:	0000                	.insn	2, 0x
   1024c:	b46c                	.insn	2, 0xb46c
   1024e:	0000                	.insn	2, 0x
   10250:	b360                	.insn	2, 0xb360
   10252:	0000                	.insn	2, 0x
   10254:	b360                	.insn	2, 0xb360
   10256:	0000                	.insn	2, 0x
   10258:	b448                	.insn	2, 0xb448
	...

セクション .rodata.str1.4 の逆アセンブル:

0001025c <.rodata.str1.4>:
   1025c:	6b36                	.insn	2, 0x6b36
   1025e:	7020                	.insn	2, 0x7020
   10260:	7265                	.insn	2, 0x7265
   10262:	6f66                	.insn	2, 0x6f66
   10264:	6d72                	.insn	2, 0x6d72
   10266:	6e61                	.insn	2, 0x6e61
   10268:	72206563          	bltu	zero,sp,10992 <start_time_val+0x20a>
   1026c:	6e75                	.insn	2, 0x6e75
   1026e:	7020                	.insn	2, 0x7020
   10270:	7261                	.insn	2, 0x7261
   10272:	6d61                	.insn	2, 0x6d61
   10274:	7465                	.insn	2, 0x7465
   10276:	7265                	.insn	2, 0x7265
   10278:	6f662073          	.insn	4, 0x6f662073
   1027c:	2072                	.insn	2, 0x2072
   1027e:	65726f63          	bltu	tp,s7,108dc <start_time_val+0x154>
   10282:	616d                	.insn	2, 0x616d
   10284:	6b72                	.insn	2, 0x6b72
   10286:	0a2e                	.insn	2, 0x0a2e
   10288:	0000                	.insn	2, 0x
   1028a:	0000                	.insn	2, 0x
   1028c:	6b36                	.insn	2, 0x6b36
   1028e:	7620                	.insn	2, 0x7620
   10290:	6c61                	.insn	2, 0x6c61
   10292:	6469                	.insn	2, 0x6469
   10294:	7461                	.insn	2, 0x7461
   10296:	6f69                	.insn	2, 0x6f69
   10298:	206e                	.insn	2, 0x206e
   1029a:	7572                	.insn	2, 0x7572
   1029c:	206e                	.insn	2, 0x206e
   1029e:	6170                	.insn	2, 0x6170
   102a0:	6172                	.insn	2, 0x6172
   102a2:	656d                	.insn	2, 0x656d
   102a4:	6574                	.insn	2, 0x6574
   102a6:	7372                	.insn	2, 0x7372
   102a8:	6620                	.insn	2, 0x6620
   102aa:	6320726f          	jal	tp,178dc <start_time_val+0x7154>
   102ae:	6d65726f          	jal	tp,67984 <stack_top+0x47984>
   102b2:	7261                	.insn	2, 0x7261
   102b4:	000a2e6b          	.insn	4, 0x000a2e6b
   102b8:	7250                	.insn	2, 0x7250
   102ba:	6c69666f          	jal	a2,a6980 <stack_top+0x86980>
   102be:	2065                	.insn	2, 0x2065
   102c0:	656e6567          	.insn	4, 0x656e6567
   102c4:	6172                	.insn	2, 0x6172
   102c6:	6974                	.insn	2, 0x6974
   102c8:	72206e6f          	jal	t3,169ea <start_time_val+0x6262>
   102cc:	6e75                	.insn	2, 0x6e75
   102ce:	7020                	.insn	2, 0x7020
   102d0:	7261                	.insn	2, 0x7261
   102d2:	6d61                	.insn	2, 0x6d61
   102d4:	7465                	.insn	2, 0x7465
   102d6:	7265                	.insn	2, 0x7265
   102d8:	6f662073          	.insn	4, 0x6f662073
   102dc:	2072                	.insn	2, 0x2072
