
prog.elf:     ファイル形式 elf32-littleriscv


セクション .text の逆アセンブル:

00008000 <_start>:
    8000:	0080006f          	j	8008 <_init_reg>

00008004 <_end>:
    8004:	0000006f          	j	8004 <_end>

00008008 <_init_reg>:
    8008:	00000093          	li	ra,0
    800c:	00000113          	li	sp,0
    8010:	00000193          	li	gp,0
    8014:	00000213          	li	tp,0
    8018:	00000293          	li	t0,0
    801c:	00000313          	li	t1,0
    8020:	00000393          	li	t2,0
    8024:	00000413          	li	s0,0
    8028:	00000493          	li	s1,0
    802c:	00000513          	li	a0,0
    8030:	00000593          	li	a1,0
    8034:	00000613          	li	a2,0
    8038:	00000693          	li	a3,0
    803c:	00000713          	li	a4,0
    8040:	00000793          	li	a5,0
    8044:	00000813          	li	a6,0
    8048:	00000893          	li	a7,0
    804c:	00000913          	li	s2,0
    8050:	00000993          	li	s3,0
    8054:	00000a13          	li	s4,0
    8058:	00000a93          	li	s5,0
    805c:	00000b13          	li	s6,0
    8060:	00000b93          	li	s7,0
    8064:	00000c13          	li	s8,0
    8068:	00000c93          	li	s9,0
    806c:	00000d13          	li	s10,0
    8070:	00000d93          	li	s11,0
    8074:	00000e13          	li	t3,0
    8078:	00000e93          	li	t4,0
    807c:	00000f13          	li	t5,0
    8080:	00000f93          	li	t6,0
    8084:	00020137          	lui	sp,0x20

00008088 <_call_main>:
    8088:	395040ef          	jal	cc1c <main>
    808c:	f79ff06f          	j	8004 <_end>

00008090 <calc_func>:
    8090:	fe010113          	add	sp,sp,-32 # 1ffe0 <start_time_val+0xf858>
    8094:	00812c23          	sw	s0,24(sp)
    8098:	00051403          	lh	s0,0(a0)
    809c:	00112e23          	sw	ra,28(sp)
    80a0:	40745793          	sra	a5,s0,0x7
    80a4:	0017f793          	and	a5,a5,1
    80a8:	00078c63          	beqz	a5,80c0 <calc_func+0x30>
    80ac:	01c12083          	lw	ra,28(sp)
    80b0:	07f47513          	and	a0,s0,127
    80b4:	01812403          	lw	s0,24(sp)
    80b8:	02010113          	add	sp,sp,32
    80bc:	00008067          	ret
    80c0:	40345713          	sra	a4,s0,0x3
    80c4:	00f77713          	and	a4,a4,15
    80c8:	00471693          	sll	a3,a4,0x4
    80cc:	0385d783          	lhu	a5,56(a1)
    80d0:	00912a23          	sw	s1,20(sp)
    80d4:	01312623          	sw	s3,12(sp)
    80d8:	00058493          	mv	s1,a1
    80dc:	01212823          	sw	s2,16(sp)
    80e0:	00d705b3          	add	a1,a4,a3
    80e4:	00747613          	and	a2,s0,7
    80e8:	00050993          	mv	s3,a0
    80ec:	00058713          	mv	a4,a1
    80f0:	08060063          	beqz	a2,8170 <calc_func+0xe0>
    80f4:	00100693          	li	a3,1
    80f8:	06d61463          	bne	a2,a3,8160 <calc_func+0xd0>
    80fc:	00078613          	mv	a2,a5
    8100:	02848513          	add	a0,s1,40
    8104:	328010ef          	jal	942c <core_bench_matrix>
    8108:	03c4d783          	lhu	a5,60(s1)
    810c:	01051913          	sll	s2,a0,0x10
    8110:	41095913          	sra	s2,s2,0x10
    8114:	08079c63          	bnez	a5,81ac <calc_func+0x11c>
    8118:	0384d783          	lhu	a5,56(s1)
    811c:	02a49e23          	sh	a0,60(s1)
    8120:	00078593          	mv	a1,a5
    8124:	31c020ef          	jal	a440 <crcu16>
    8128:	00050793          	mv	a5,a0
    812c:	f0047413          	and	s0,s0,-256
    8130:	07f97513          	and	a0,s2,127
    8134:	00856433          	or	s0,a0,s0
    8138:	02f49c23          	sh	a5,56(s1)
    813c:	08046413          	or	s0,s0,128
    8140:	00899023          	sh	s0,0(s3)
    8144:	01c12083          	lw	ra,28(sp)
    8148:	01812403          	lw	s0,24(sp)
    814c:	01412483          	lw	s1,20(sp)
    8150:	01012903          	lw	s2,16(sp)
    8154:	00c12983          	lw	s3,12(sp)
    8158:	02010113          	add	sp,sp,32
    815c:	00008067          	ret
    8160:	01041513          	sll	a0,s0,0x10
    8164:	01055513          	srl	a0,a0,0x10
    8168:	00040913          	mv	s2,s0
    816c:	fb5ff06f          	j	8120 <calc_func+0x90>
    8170:	02100693          	li	a3,33
    8174:	00b6e463          	bltu	a3,a1,817c <calc_func+0xec>
    8178:	02200713          	li	a4,34
    817c:	00249683          	lh	a3,2(s1)
    8180:	00049603          	lh	a2,0(s1)
    8184:	0144a583          	lw	a1,20(s1)
    8188:	0184a503          	lw	a0,24(s1)
    818c:	701010ef          	jal	a08c <core_bench_state>
    8190:	03e4d783          	lhu	a5,62(s1)
    8194:	01051913          	sll	s2,a0,0x10
    8198:	41095913          	sra	s2,s2,0x10
    819c:	00079863          	bnez	a5,81ac <calc_func+0x11c>
    81a0:	0384d783          	lhu	a5,56(s1)
    81a4:	02a49f23          	sh	a0,62(s1)
    81a8:	f79ff06f          	j	8120 <calc_func+0x90>
    81ac:	0384d783          	lhu	a5,56(s1)
    81b0:	f71ff06f          	j	8120 <calc_func+0x90>

000081b4 <cmp_complex>:
    81b4:	fe010113          	add	sp,sp,-32
    81b8:	00912a23          	sw	s1,20(sp)
    81bc:	00051483          	lh	s1,0(a0)
    81c0:	00812c23          	sw	s0,24(sp)
    81c4:	01212823          	sw	s2,16(sp)
    81c8:	4074d793          	sra	a5,s1,0x7
    81cc:	01412423          	sw	s4,8(sp)
    81d0:	00112e23          	sw	ra,28(sp)
    81d4:	01312623          	sw	s3,12(sp)
    81d8:	0017f793          	and	a5,a5,1
    81dc:	00058913          	mv	s2,a1
    81e0:	00060413          	mv	s0,a2
    81e4:	07f4fa13          	and	s4,s1,127
    81e8:	06079a63          	bnez	a5,825c <cmp_complex+0xa8>
    81ec:	4034d713          	sra	a4,s1,0x3
    81f0:	00f77713          	and	a4,a4,15
    81f4:	00471693          	sll	a3,a4,0x4
    81f8:	00d705b3          	add	a1,a4,a3
    81fc:	0074f613          	and	a2,s1,7
    8200:	03845783          	lhu	a5,56(s0)
    8204:	00050993          	mv	s3,a0
    8208:	00058713          	mv	a4,a1
    820c:	14060863          	beqz	a2,835c <cmp_complex+0x1a8>
    8210:	00100693          	li	a3,1
    8214:	0ed61663          	bne	a2,a3,8300 <cmp_complex+0x14c>
    8218:	00078613          	mv	a2,a5
    821c:	02840513          	add	a0,s0,40
    8220:	20c010ef          	jal	942c <core_bench_matrix>
    8224:	03c45783          	lhu	a5,60(s0)
    8228:	01051a13          	sll	s4,a0,0x10
    822c:	410a5a13          	sra	s4,s4,0x10
    8230:	16079463          	bnez	a5,8398 <cmp_complex+0x1e4>
    8234:	03845783          	lhu	a5,56(s0)
    8238:	02a41e23          	sh	a0,60(s0)
    823c:	00078593          	mv	a1,a5
    8240:	07fa7a13          	and	s4,s4,127
    8244:	f004f493          	and	s1,s1,-256
    8248:	1f8020ef          	jal	a440 <crcu16>
    824c:	009a64b3          	or	s1,s4,s1
    8250:	02a41c23          	sh	a0,56(s0)
    8254:	0804e493          	or	s1,s1,128
    8258:	00999023          	sh	s1,0(s3)
    825c:	00091483          	lh	s1,0(s2)
    8260:	4074d793          	sra	a5,s1,0x7
    8264:	0017f793          	and	a5,a5,1
    8268:	07f4f993          	and	s3,s1,127
    826c:	06079863          	bnez	a5,82dc <cmp_complex+0x128>
    8270:	4034d713          	sra	a4,s1,0x3
    8274:	00f77713          	and	a4,a4,15
    8278:	00471693          	sll	a3,a4,0x4
    827c:	00d705b3          	add	a1,a4,a3
    8280:	0074f613          	and	a2,s1,7
    8284:	03845783          	lhu	a5,56(s0)
    8288:	00058713          	mv	a4,a1
    828c:	08060a63          	beqz	a2,8320 <cmp_complex+0x16c>
    8290:	00100693          	li	a3,1
    8294:	06d61e63          	bne	a2,a3,8310 <cmp_complex+0x15c>
    8298:	00078613          	mv	a2,a5
    829c:	02840513          	add	a0,s0,40
    82a0:	18c010ef          	jal	942c <core_bench_matrix>
    82a4:	03c45783          	lhu	a5,60(s0)
    82a8:	01051993          	sll	s3,a0,0x10
    82ac:	4109d993          	sra	s3,s3,0x10
    82b0:	0e079863          	bnez	a5,83a0 <cmp_complex+0x1ec>
    82b4:	03845783          	lhu	a5,56(s0)
    82b8:	02a41e23          	sh	a0,60(s0)
    82bc:	00078593          	mv	a1,a5
    82c0:	07f9f993          	and	s3,s3,127
    82c4:	f004f493          	and	s1,s1,-256
    82c8:	178020ef          	jal	a440 <crcu16>
    82cc:	0099e4b3          	or	s1,s3,s1
    82d0:	02a41c23          	sh	a0,56(s0)
    82d4:	0804e493          	or	s1,s1,128
    82d8:	00991023          	sh	s1,0(s2)
    82dc:	01c12083          	lw	ra,28(sp)
    82e0:	01812403          	lw	s0,24(sp)
    82e4:	413a0533          	sub	a0,s4,s3
    82e8:	01412483          	lw	s1,20(sp)
    82ec:	01012903          	lw	s2,16(sp)
    82f0:	00c12983          	lw	s3,12(sp)
    82f4:	00812a03          	lw	s4,8(sp)
    82f8:	02010113          	add	sp,sp,32
    82fc:	00008067          	ret
    8300:	01049513          	sll	a0,s1,0x10
    8304:	01055513          	srl	a0,a0,0x10
    8308:	00048a13          	mv	s4,s1
    830c:	f31ff06f          	j	823c <cmp_complex+0x88>
    8310:	01049513          	sll	a0,s1,0x10
    8314:	01055513          	srl	a0,a0,0x10
    8318:	00048993          	mv	s3,s1
    831c:	fa1ff06f          	j	82bc <cmp_complex+0x108>
    8320:	02100693          	li	a3,33
    8324:	00b6e463          	bltu	a3,a1,832c <cmp_complex+0x178>
    8328:	02200713          	li	a4,34
    832c:	00241683          	lh	a3,2(s0)
    8330:	00041603          	lh	a2,0(s0)
    8334:	01442583          	lw	a1,20(s0)
    8338:	01842503          	lw	a0,24(s0)
    833c:	551010ef          	jal	a08c <core_bench_state>
    8340:	03e45783          	lhu	a5,62(s0)
    8344:	01051993          	sll	s3,a0,0x10
    8348:	4109d993          	sra	s3,s3,0x10
    834c:	04079a63          	bnez	a5,83a0 <cmp_complex+0x1ec>
    8350:	03845783          	lhu	a5,56(s0)
    8354:	02a41f23          	sh	a0,62(s0)
    8358:	f65ff06f          	j	82bc <cmp_complex+0x108>
    835c:	02100693          	li	a3,33
    8360:	00b6e463          	bltu	a3,a1,8368 <cmp_complex+0x1b4>
    8364:	02200713          	li	a4,34
    8368:	00241683          	lh	a3,2(s0)
    836c:	00041603          	lh	a2,0(s0)
    8370:	01442583          	lw	a1,20(s0)
    8374:	01842503          	lw	a0,24(s0)
    8378:	515010ef          	jal	a08c <core_bench_state>
    837c:	03e45783          	lhu	a5,62(s0)
    8380:	01051a13          	sll	s4,a0,0x10
    8384:	410a5a13          	sra	s4,s4,0x10
    8388:	00079863          	bnez	a5,8398 <cmp_complex+0x1e4>
    838c:	03845783          	lhu	a5,56(s0)
    8390:	02a41f23          	sh	a0,62(s0)
    8394:	ea9ff06f          	j	823c <cmp_complex+0x88>
    8398:	03845783          	lhu	a5,56(s0)
    839c:	ea1ff06f          	j	823c <cmp_complex+0x88>
    83a0:	03845783          	lhu	a5,56(s0)
    83a4:	f19ff06f          	j	82bc <cmp_complex+0x108>

000083a8 <cmp_idx>:
    83a8:	00060a63          	beqz	a2,83bc <cmp_idx+0x14>
    83ac:	00251503          	lh	a0,2(a0)
    83b0:	00259783          	lh	a5,2(a1)
    83b4:	40f50533          	sub	a0,a0,a5
    83b8:	00008067          	ret
    83bc:	00051783          	lh	a5,0(a0)
    83c0:	01079713          	sll	a4,a5,0x10
    83c4:	01075713          	srl	a4,a4,0x10
    83c8:	00875713          	srl	a4,a4,0x8
    83cc:	f007f793          	and	a5,a5,-256
    83d0:	00e7e7b3          	or	a5,a5,a4
    83d4:	00f51023          	sh	a5,0(a0)
    83d8:	00059783          	lh	a5,0(a1)
    83dc:	00251503          	lh	a0,2(a0)
    83e0:	01079713          	sll	a4,a5,0x10
    83e4:	01075713          	srl	a4,a4,0x10
    83e8:	00875713          	srl	a4,a4,0x8
    83ec:	f007f793          	and	a5,a5,-256
    83f0:	00e7e7b3          	or	a5,a5,a4
    83f4:	00f59023          	sh	a5,0(a1)
    83f8:	00259783          	lh	a5,2(a1)
    83fc:	40f50533          	sub	a0,a0,a5
    8400:	00008067          	ret

00008404 <copy_info>:
    8404:	00059703          	lh	a4,0(a1)
    8408:	00259783          	lh	a5,2(a1)
    840c:	00e51023          	sh	a4,0(a0)
    8410:	00f51123          	sh	a5,2(a0)
    8414:	00008067          	ret

00008418 <core_bench_list>:
    8418:	00451883          	lh	a7,4(a0)
    841c:	fc010113          	add	sp,sp,-64
    8420:	02812c23          	sw	s0,56(sp)
    8424:	03612023          	sw	s6,32(sp)
    8428:	02112e23          	sw	ra,60(sp)
    842c:	02912a23          	sw	s1,52(sp)
    8430:	03212823          	sw	s2,48(sp)
    8434:	03312623          	sw	s3,44(sp)
    8438:	03412423          	sw	s4,40(sp)
    843c:	03512223          	sw	s5,36(sp)
    8440:	01712e23          	sw	s7,28(sp)
    8444:	01812c23          	sw	s8,24(sp)
    8448:	01912a23          	sw	s9,20(sp)
    844c:	01a12823          	sw	s10,16(sp)
    8450:	01b12623          	sw	s11,12(sp)
    8454:	02452403          	lw	s0,36(a0)
    8458:	00050b13          	mv	s6,a0
    845c:	00058513          	mv	a0,a1
    8460:	45105063          	blez	a7,88a0 <core_bench_list+0x488>
    8464:	00058b93          	mv	s7,a1
    8468:	00000613          	li	a2,0
    846c:	00000813          	li	a6,0
    8470:	00000593          	li	a1,0
    8474:	00000493          	li	s1,0
    8478:	0ff67c93          	zext.b	s9,a2
    847c:	260bca63          	bltz	s7,86f0 <core_bench_list+0x2d8>
    8480:	42040863          	beqz	s0,88b0 <core_bench_list+0x498>
    8484:	00040793          	mv	a5,s0
    8488:	00c0006f          	j	8494 <core_bench_list+0x7c>
    848c:	0007a783          	lw	a5,0(a5)
    8490:	00078863          	beqz	a5,84a0 <core_bench_list+0x88>
    8494:	0047a703          	lw	a4,4(a5)
    8498:	00271703          	lh	a4,2(a4)
    849c:	ff7718e3          	bne	a4,s7,848c <core_bench_list+0x74>
    84a0:	00000693          	li	a3,0
    84a4:	0080006f          	j	84ac <core_bench_list+0x94>
    84a8:	00070413          	mv	s0,a4
    84ac:	00042703          	lw	a4,0(s0)
    84b0:	00d42023          	sw	a3,0(s0)
    84b4:	00040693          	mv	a3,s0
    84b8:	fe0718e3          	bnez	a4,84a8 <core_bench_list+0x90>
    84bc:	24078c63          	beqz	a5,8714 <core_bench_list+0x2fc>
    84c0:	0047a703          	lw	a4,4(a5)
    84c4:	00071703          	lh	a4,0(a4)
    84c8:	00177693          	and	a3,a4,1
    84cc:	00068c63          	beqz	a3,84e4 <core_bench_list+0xcc>
    84d0:	40975713          	sra	a4,a4,0x9
    84d4:	00177713          	and	a4,a4,1
    84d8:	00e48733          	add	a4,s1,a4
    84dc:	01071493          	sll	s1,a4,0x10
    84e0:	0104d493          	srl	s1,s1,0x10
    84e4:	0007a703          	lw	a4,0(a5)
    84e8:	00070c63          	beqz	a4,8500 <core_bench_list+0xe8>
    84ec:	00072683          	lw	a3,0(a4)
    84f0:	00d7a023          	sw	a3,0(a5)
    84f4:	00042783          	lw	a5,0(s0)
    84f8:	00f72023          	sw	a5,0(a4)
    84fc:	00e42023          	sw	a4,0(s0)
    8500:	00158793          	add	a5,a1,1
    8504:	01079593          	sll	a1,a5,0x10
    8508:	0105d593          	srl	a1,a1,0x10
    850c:	000bc863          	bltz	s7,851c <core_bench_list+0x104>
    8510:	001b8b93          	add	s7,s7,1
    8514:	010b9b93          	sll	s7,s7,0x10
    8518:	410bdb93          	sra	s7,s7,0x10
    851c:	00160613          	add	a2,a2,1
    8520:	01061613          	sll	a2,a2,0x10
    8524:	41065613          	sra	a2,a2,0x10
    8528:	f4c898e3          	bne	a7,a2,8478 <core_bench_list+0x60>
    852c:	00259793          	sll	a5,a1,0x2
    8530:	410787b3          	sub	a5,a5,a6
    8534:	00f484b3          	add	s1,s1,a5
    8538:	01049493          	sll	s1,s1,0x10
    853c:	0104d493          	srl	s1,s1,0x10
    8540:	26a04263          	bgtz	a0,87a4 <core_bench_list+0x38c>
    8544:	00042783          	lw	a5,0(s0)
    8548:	00040913          	mv	s2,s0
    854c:	0007a983          	lw	s3,0(a5)
    8550:	0047a703          	lw	a4,4(a5)
    8554:	0049a603          	lw	a2,4(s3)
    8558:	0009a683          	lw	a3,0(s3)
    855c:	00c7a223          	sw	a2,4(a5)
    8560:	00e9a223          	sw	a4,4(s3)
    8564:	00d7a023          	sw	a3,0(a5)
    8568:	0009a023          	sw	zero,0(s3)
    856c:	0e0bca63          	bltz	s7,8660 <core_bench_list+0x248>
    8570:	00492783          	lw	a5,4(s2)
    8574:	00279783          	lh	a5,2(a5)
    8578:	01778c63          	beq	a5,s7,8590 <core_bench_list+0x178>
    857c:	00092903          	lw	s2,0(s2)
    8580:	2e090863          	beqz	s2,8870 <core_bench_list+0x458>
    8584:	00492783          	lw	a5,4(s2)
    8588:	00279783          	lh	a5,2(a5)
    858c:	ff7798e3          	bne	a5,s7,857c <core_bench_list+0x164>
    8590:	00442783          	lw	a5,4(s0)
    8594:	00048593          	mv	a1,s1
    8598:	00079503          	lh	a0,0(a5)
    859c:	588020ef          	jal	ab24 <crc16>
    85a0:	00092903          	lw	s2,0(s2)
    85a4:	00050493          	mv	s1,a0
    85a8:	fe0914e3          	bnez	s2,8590 <core_bench_list+0x178>
    85ac:	00042903          	lw	s2,0(s0)
    85b0:	0049a703          	lw	a4,4(s3)
    85b4:	00492683          	lw	a3,4(s2)
    85b8:	00092783          	lw	a5,0(s2)
    85bc:	00100e93          	li	t4,1
    85c0:	00d9a223          	sw	a3,4(s3)
    85c4:	00e92223          	sw	a4,4(s2)
    85c8:	00f9a023          	sw	a5,0(s3)
    85cc:	01392023          	sw	s3,0(s2)
    85d0:	00100f93          	li	t6,1
    85d4:	10040a63          	beqz	s0,86e8 <core_bench_list+0x2d0>
    85d8:	00000693          	li	a3,0
    85dc:	00000913          	li	s2,0
    85e0:	00000f13          	li	t5,0
    85e4:	001f0f13          	add	t5,t5,1
    85e8:	00040713          	mv	a4,s0
    85ec:	00000793          	li	a5,0
    85f0:	01d7d863          	bge	a5,t4,8600 <core_bench_list+0x1e8>
    85f4:	00072703          	lw	a4,0(a4)
    85f8:	00178793          	add	a5,a5,1
    85fc:	fe071ae3          	bnez	a4,85f0 <core_bench_list+0x1d8>
    8600:	00040613          	mv	a2,s0
    8604:	000e8593          	mv	a1,t4
    8608:	00070413          	mv	s0,a4
    860c:	02f05263          	blez	a5,8630 <core_bench_list+0x218>
    8610:	06059063          	bnez	a1,8670 <core_bench_list+0x258>
    8614:	00060713          	mv	a4,a2
    8618:	00062603          	lw	a2,0(a2)
    861c:	fff78793          	add	a5,a5,-1
    8620:	02068663          	beqz	a3,864c <core_bench_list+0x234>
    8624:	00e6a023          	sw	a4,0(a3)
    8628:	00070693          	mv	a3,a4
    862c:	fef042e3          	bgtz	a5,8610 <core_bench_list+0x1f8>
    8630:	0ab05063          	blez	a1,86d0 <core_bench_list+0x2b8>
    8634:	0a040063          	beqz	s0,86d4 <core_bench_list+0x2bc>
    8638:	02079e63          	bnez	a5,8674 <core_bench_list+0x25c>
    863c:	00040713          	mv	a4,s0
    8640:	fff58593          	add	a1,a1,-1
    8644:	00042403          	lw	s0,0(s0)
    8648:	fc069ee3          	bnez	a3,8624 <core_bench_list+0x20c>
    864c:	00070913          	mv	s2,a4
    8650:	00070693          	mv	a3,a4
    8654:	fd9ff06f          	j	862c <core_bench_list+0x214>
    8658:	00092903          	lw	s2,0(s2)
    865c:	20090a63          	beqz	s2,8870 <core_bench_list+0x458>
    8660:	00492783          	lw	a5,4(s2)
    8664:	0007c783          	lbu	a5,0(a5)
    8668:	fefc98e3          	bne	s9,a5,8658 <core_bench_list+0x240>
    866c:	f25ff06f          	j	8590 <core_bench_list+0x178>
    8670:	fa0402e3          	beqz	s0,8614 <core_bench_list+0x1fc>
    8674:	00462803          	lw	a6,4(a2)
    8678:	00442503          	lw	a0,4(s0)
    867c:	00081703          	lh	a4,0(a6)
    8680:	00251303          	lh	t1,2(a0)
    8684:	00281e03          	lh	t3,2(a6)
    8688:	01071893          	sll	a7,a4,0x10
    868c:	0108d893          	srl	a7,a7,0x10
    8690:	f0077713          	and	a4,a4,-256
    8694:	0088d893          	srl	a7,a7,0x8
    8698:	01176733          	or	a4,a4,a7
    869c:	00e81023          	sh	a4,0(a6)
    86a0:	00051703          	lh	a4,0(a0)
    86a4:	01071813          	sll	a6,a4,0x10
    86a8:	01085813          	srl	a6,a6,0x10
    86ac:	f0077713          	and	a4,a4,-256
    86b0:	00885813          	srl	a6,a6,0x8
    86b4:	01076733          	or	a4,a4,a6
    86b8:	00e51023          	sh	a4,0(a0)
    86bc:	f5c35ce3          	bge	t1,t3,8614 <core_bench_list+0x1fc>
    86c0:	00040713          	mv	a4,s0
    86c4:	fff58593          	add	a1,a1,-1
    86c8:	00042403          	lw	s0,0(s0)
    86cc:	f55ff06f          	j	8620 <core_bench_list+0x208>
    86d0:	f0041ae3          	bnez	s0,85e4 <core_bench_list+0x1cc>
    86d4:	0006a023          	sw	zero,0(a3)
    86d8:	07ff0463          	beq	t5,t6,8740 <core_bench_list+0x328>
    86dc:	00090413          	mv	s0,s2
    86e0:	001e9e93          	sll	t4,t4,0x1
    86e4:	ee041ae3          	bnez	s0,85d8 <core_bench_list+0x1c0>
    86e8:	00002023          	sw	zero,0(zero) # 0 <_start-0x8000>
    86ec:	00100073          	ebreak
    86f0:	1c040063          	beqz	s0,88b0 <core_bench_list+0x498>
    86f4:	00040793          	mv	a5,s0
    86f8:	00c0006f          	j	8704 <core_bench_list+0x2ec>
    86fc:	0007a783          	lw	a5,0(a5)
    8700:	da0780e3          	beqz	a5,84a0 <core_bench_list+0x88>
    8704:	0047a703          	lw	a4,4(a5)
    8708:	00074703          	lbu	a4,0(a4)
    870c:	feec98e3          	bne	s9,a4,86fc <core_bench_list+0x2e4>
    8710:	d91ff06f          	j	84a0 <core_bench_list+0x88>
    8714:	00042783          	lw	a5,0(s0)
    8718:	00180813          	add	a6,a6,1
    871c:	01081813          	sll	a6,a6,0x10
    8720:	0047a783          	lw	a5,4(a5)
    8724:	01085813          	srl	a6,a6,0x10
    8728:	00178783          	lb	a5,1(a5)
    872c:	0017f793          	and	a5,a5,1
    8730:	00f487b3          	add	a5,s1,a5
    8734:	01079493          	sll	s1,a5,0x10
    8738:	0104d493          	srl	s1,s1,0x10
    873c:	dd1ff06f          	j	850c <core_bench_list+0xf4>
    8740:	00092403          	lw	s0,0(s2)
    8744:	02040063          	beqz	s0,8764 <core_bench_list+0x34c>
    8748:	00492783          	lw	a5,4(s2)
    874c:	00048593          	mv	a1,s1
    8750:	00079503          	lh	a0,0(a5)
    8754:	3d0020ef          	jal	ab24 <crc16>
    8758:	00042403          	lw	s0,0(s0)
    875c:	00050493          	mv	s1,a0
    8760:	fe0414e3          	bnez	s0,8748 <core_bench_list+0x330>
    8764:	03c12083          	lw	ra,60(sp)
    8768:	03812403          	lw	s0,56(sp)
    876c:	03012903          	lw	s2,48(sp)
    8770:	02c12983          	lw	s3,44(sp)
    8774:	02812a03          	lw	s4,40(sp)
    8778:	02412a83          	lw	s5,36(sp)
    877c:	02012b03          	lw	s6,32(sp)
    8780:	01c12b83          	lw	s7,28(sp)
    8784:	01812c03          	lw	s8,24(sp)
    8788:	01412c83          	lw	s9,20(sp)
    878c:	01012d03          	lw	s10,16(sp)
    8790:	00c12d83          	lw	s11,12(sp)
    8794:	00048513          	mv	a0,s1
    8798:	03412483          	lw	s1,52(sp)
    879c:	04010113          	add	sp,sp,64
    87a0:	00008067          	ret
    87a4:	00100a13          	li	s4,1
    87a8:	f40400e3          	beqz	s0,86e8 <core_bench_list+0x2d0>
    87ac:	00000993          	li	s3,0
    87b0:	00000a93          	li	s5,0
    87b4:	00000c13          	li	s8,0
    87b8:	001c0c13          	add	s8,s8,1
    87bc:	00040793          	mv	a5,s0
    87c0:	00000913          	li	s2,0
    87c4:	01495863          	bge	s2,s4,87d4 <core_bench_list+0x3bc>
    87c8:	0007a783          	lw	a5,0(a5)
    87cc:	00190913          	add	s2,s2,1
    87d0:	fe079ae3          	bnez	a5,87c4 <core_bench_list+0x3ac>
    87d4:	00040d93          	mv	s11,s0
    87d8:	000a0d13          	mv	s10,s4
    87dc:	00078413          	mv	s0,a5
    87e0:	03205263          	blez	s2,8804 <core_bench_list+0x3ec>
    87e4:	040d1463          	bnez	s10,882c <core_bench_list+0x414>
    87e8:	000d8793          	mv	a5,s11
    87ec:	000dad83          	lw	s11,0(s11)
    87f0:	fff90913          	add	s2,s2,-1
    87f4:	02098663          	beqz	s3,8820 <core_bench_list+0x408>
    87f8:	00f9a023          	sw	a5,0(s3)
    87fc:	00078993          	mv	s3,a5
    8800:	ff2042e3          	bgtz	s2,87e4 <core_bench_list+0x3cc>
    8804:	05a05863          	blez	s10,8854 <core_bench_list+0x43c>
    8808:	04040863          	beqz	s0,8858 <core_bench_list+0x440>
    880c:	02091263          	bnez	s2,8830 <core_bench_list+0x418>
    8810:	00040793          	mv	a5,s0
    8814:	fffd0d13          	add	s10,s10,-1
    8818:	00042403          	lw	s0,0(s0)
    881c:	fc099ee3          	bnez	s3,87f8 <core_bench_list+0x3e0>
    8820:	00078a93          	mv	s5,a5
    8824:	00078993          	mv	s3,a5
    8828:	fd9ff06f          	j	8800 <core_bench_list+0x3e8>
    882c:	fa040ee3          	beqz	s0,87e8 <core_bench_list+0x3d0>
    8830:	00442583          	lw	a1,4(s0)
    8834:	004da503          	lw	a0,4(s11)
    8838:	000b0613          	mv	a2,s6
    883c:	979ff0ef          	jal	81b4 <cmp_complex>
    8840:	faa054e3          	blez	a0,87e8 <core_bench_list+0x3d0>
    8844:	00040793          	mv	a5,s0
    8848:	fffd0d13          	add	s10,s10,-1
    884c:	00042403          	lw	s0,0(s0)
    8850:	fa5ff06f          	j	87f4 <core_bench_list+0x3dc>
    8854:	f60412e3          	bnez	s0,87b8 <core_bench_list+0x3a0>
    8858:	0009a023          	sw	zero,0(s3)
    885c:	00100793          	li	a5,1
    8860:	02fc0c63          	beq	s8,a5,8898 <core_bench_list+0x480>
    8864:	001a1a13          	sll	s4,s4,0x1
    8868:	000a8413          	mv	s0,s5
    886c:	f3dff06f          	j	87a8 <core_bench_list+0x390>
    8870:	00042903          	lw	s2,0(s0)
    8874:	d40900e3          	beqz	s2,85b4 <core_bench_list+0x19c>
    8878:	00442783          	lw	a5,4(s0)
    887c:	00048593          	mv	a1,s1
    8880:	00079503          	lh	a0,0(a5)
    8884:	2a0020ef          	jal	ab24 <crc16>
    8888:	00092903          	lw	s2,0(s2)
    888c:	00050493          	mv	s1,a0
    8890:	d00910e3          	bnez	s2,8590 <core_bench_list+0x178>
    8894:	d19ff06f          	j	85ac <core_bench_list+0x194>
    8898:	000a8413          	mv	s0,s5
    889c:	ca9ff06f          	j	8544 <core_bench_list+0x12c>
    88a0:	00000c93          	li	s9,0
    88a4:	00058b93          	mv	s7,a1
    88a8:	00000493          	li	s1,0
    88ac:	c95ff06f          	j	8540 <core_bench_list+0x128>
    88b0:	00002783          	lw	a5,0(zero) # 0 <_start-0x8000>
    88b4:	00100073          	ebreak

000088b8 <core_list_init>:
    88b8:	fe010113          	add	sp,sp,-32
    88bc:	00812c23          	sw	s0,24(sp)
    88c0:	00058413          	mv	s0,a1
    88c4:	01400593          	li	a1,20
    88c8:	01312623          	sw	s3,12(sp)
    88cc:	00112e23          	sw	ra,28(sp)
    88d0:	00060993          	mv	s3,a2
    88d4:	00912a23          	sw	s1,20(sp)
    88d8:	01212823          	sw	s2,16(sp)
    88dc:	294040ef          	jal	cb70 <__hidden___udivsi3>
    88e0:	ffe50513          	add	a0,a0,-2
    88e4:	00351593          	sll	a1,a0,0x3
    88e8:	00b405b3          	add	a1,s0,a1
    88ec:	ffff87b7          	lui	a5,0xffff8
    88f0:	00042023          	sw	zero,0(s0)
    88f4:	00b42223          	sw	a1,4(s0)
    88f8:	08078793          	add	a5,a5,128 # ffff8080 <stack_top+0xfffd8080>
    88fc:	00251e13          	sll	t3,a0,0x2
    8900:	00059123          	sh	zero,2(a1)
    8904:	00f59023          	sh	a5,0(a1)
    8908:	01040613          	add	a2,s0,16
    890c:	01c58e33          	add	t3,a1,t3
    8910:	00840713          	add	a4,s0,8
    8914:	00458693          	add	a3,a1,4
    8918:	26b67a63          	bgeu	a2,a1,8b8c <core_list_init+0x2d4>
    891c:	00858813          	add	a6,a1,8
    8920:	27c87663          	bgeu	a6,t3,8b8c <core_list_init+0x2d4>
    8924:	ffff87b7          	lui	a5,0xffff8
    8928:	00e42023          	sw	a4,0(s0)
    892c:	00d42623          	sw	a3,12(s0)
    8930:	00042423          	sw	zero,8(s0)
    8934:	00070493          	mv	s1,a4
    8938:	fff7c793          	not	a5,a5
    893c:	fff00713          	li	a4,-1
    8940:	00e59223          	sh	a4,4(a1)
    8944:	00f59323          	sh	a5,6(a1)
    8948:	00080693          	mv	a3,a6
    894c:	00060713          	mv	a4,a2
    8950:	06050e63          	beqz	a0,89cc <core_list_init+0x114>
    8954:	01099f13          	sll	t5,s3,0x10
    8958:	ffff8eb7          	lui	t4,0xffff8
    895c:	00870893          	add	a7,a4,8
    8960:	010f5f13          	srl	t5,t5,0x10
    8964:	00000613          	li	a2,0
    8968:	fffece93          	not	t4,t4
    896c:	06b8f063          	bgeu	a7,a1,89cc <core_list_init+0x114>
    8970:	00468313          	add	t1,a3,4
    8974:	23c37063          	bgeu	t1,t3,8b94 <core_list_init+0x2dc>
    8978:	01061813          	sll	a6,a2,0x10
    897c:	01085813          	srl	a6,a6,0x10
    8980:	01e847b3          	xor	a5,a6,t5
    8984:	00379793          	sll	a5,a5,0x3
    8988:	00787813          	and	a6,a6,7
    898c:	0787f793          	and	a5,a5,120
    8990:	00972023          	sw	s1,0(a4)
    8994:	0107e7b3          	or	a5,a5,a6
    8998:	00e42023          	sw	a4,0(s0)
    899c:	00879813          	sll	a6,a5,0x8
    89a0:	00d72223          	sw	a3,4(a4)
    89a4:	010787b3          	add	a5,a5,a6
    89a8:	00f69023          	sh	a5,0(a3)
    89ac:	01d69123          	sh	t4,2(a3)
    89b0:	00160613          	add	a2,a2,1
    89b4:	1cc50863          	beq	a0,a2,8b84 <core_list_init+0x2cc>
    89b8:	00070493          	mv	s1,a4
    89bc:	00088713          	mv	a4,a7
    89c0:	00870893          	add	a7,a4,8
    89c4:	00030693          	mv	a3,t1
    89c8:	fab8e4e3          	bltu	a7,a1,8970 <core_list_init+0xb8>
    89cc:	0004a903          	lw	s2,0(s1)
    89d0:	06090c63          	beqz	s2,8a48 <core_list_init+0x190>
    89d4:	00500593          	li	a1,5
    89d8:	198040ef          	jal	cb70 <__hidden___udivsi3>
    89dc:	00004837          	lui	a6,0x4
    89e0:	20000793          	li	a5,512
    89e4:	00100713          	li	a4,1
    89e8:	fff80813          	add	a6,a6,-1 # 3fff <_start-0x4001>
    89ec:	0280006f          	j	8a14 <core_list_init+0x15c>
    89f0:	00092683          	lw	a3,0(s2)
    89f4:	10078793          	add	a5,a5,256 # ffff8100 <stack_top+0xfffd8100>
    89f8:	00e59123          	sh	a4,2(a1)
    89fc:	01079793          	sll	a5,a5,0x10
    8a00:	00170713          	add	a4,a4,1
    8a04:	0107d793          	srl	a5,a5,0x10
    8a08:	04068063          	beqz	a3,8a48 <core_list_init+0x190>
    8a0c:	00090493          	mv	s1,s2
    8a10:	00068913          	mv	s2,a3
    8a14:	0044a583          	lw	a1,4(s1)
    8a18:	fca76ce3          	bltu	a4,a0,89f0 <core_list_init+0x138>
    8a1c:	013746b3          	xor	a3,a4,s3
    8a20:	7007f613          	and	a2,a5,1792
    8a24:	00d66633          	or	a2,a2,a3
    8a28:	00092683          	lw	a3,0(s2)
    8a2c:	01067633          	and	a2,a2,a6
    8a30:	10078793          	add	a5,a5,256
    8a34:	01079793          	sll	a5,a5,0x10
    8a38:	00c59123          	sh	a2,2(a1)
    8a3c:	00170713          	add	a4,a4,1
    8a40:	0107d793          	srl	a5,a5,0x10
    8a44:	fc0694e3          	bnez	a3,8a0c <core_list_init+0x154>
    8a48:	00100f13          	li	t5,1
    8a4c:	00000593          	li	a1,0
    8a50:	00000513          	li	a0,0
    8a54:	00000f93          	li	t6,0
    8a58:	00100293          	li	t0,1
    8a5c:	001f8f93          	add	t6,t6,1
    8a60:	00040793          	mv	a5,s0
    8a64:	00000713          	li	a4,0
    8a68:	01e75863          	bge	a4,t5,8a78 <core_list_init+0x1c0>
    8a6c:	0007a783          	lw	a5,0(a5)
    8a70:	00170713          	add	a4,a4,1
    8a74:	fe079ae3          	bnez	a5,8a68 <core_list_init+0x1b0>
    8a78:	000f0613          	mv	a2,t5
    8a7c:	02e05263          	blez	a4,8aa0 <core_list_init+0x1e8>
    8a80:	04061463          	bnez	a2,8ac8 <core_list_init+0x210>
    8a84:	00042683          	lw	a3,0(s0)
    8a88:	fff70713          	add	a4,a4,-1
    8a8c:	02058a63          	beqz	a1,8ac0 <core_list_init+0x208>
    8a90:	0085a023          	sw	s0,0(a1)
    8a94:	00040593          	mv	a1,s0
    8a98:	00068413          	mv	s0,a3
    8a9c:	fee042e3          	bgtz	a4,8a80 <core_list_init+0x1c8>
    8aa0:	08c05663          	blez	a2,8b2c <core_list_init+0x274>
    8aa4:	08078a63          	beqz	a5,8b38 <core_list_init+0x280>
    8aa8:	02071263          	bnez	a4,8acc <core_list_init+0x214>
    8aac:	00040693          	mv	a3,s0
    8ab0:	fff60613          	add	a2,a2,-1
    8ab4:	00078413          	mv	s0,a5
    8ab8:	0007a783          	lw	a5,0(a5)
    8abc:	fc059ae3          	bnez	a1,8a90 <core_list_init+0x1d8>
    8ac0:	00040513          	mv	a0,s0
    8ac4:	fd1ff06f          	j	8a94 <core_list_init+0x1dc>
    8ac8:	fa078ee3          	beqz	a5,8a84 <core_list_init+0x1cc>
    8acc:	00442883          	lw	a7,4(s0)
    8ad0:	0047a803          	lw	a6,4(a5)
    8ad4:	00089683          	lh	a3,0(a7)
    8ad8:	00281e03          	lh	t3,2(a6)
    8adc:	00289e83          	lh	t4,2(a7)
    8ae0:	01069313          	sll	t1,a3,0x10
    8ae4:	01035313          	srl	t1,t1,0x10
    8ae8:	f006f693          	and	a3,a3,-256
    8aec:	00835313          	srl	t1,t1,0x8
    8af0:	0066e6b3          	or	a3,a3,t1
    8af4:	00d89023          	sh	a3,0(a7)
    8af8:	00081683          	lh	a3,0(a6)
    8afc:	01069893          	sll	a7,a3,0x10
    8b00:	0108d893          	srl	a7,a7,0x10
    8b04:	f006f693          	and	a3,a3,-256
    8b08:	0088d893          	srl	a7,a7,0x8
    8b0c:	0116e6b3          	or	a3,a3,a7
    8b10:	00d81023          	sh	a3,0(a6)
    8b14:	f7de58e3          	bge	t3,t4,8a84 <core_list_init+0x1cc>
    8b18:	00040693          	mv	a3,s0
    8b1c:	fff60613          	add	a2,a2,-1
    8b20:	00078413          	mv	s0,a5
    8b24:	0007a783          	lw	a5,0(a5)
    8b28:	f65ff06f          	j	8a8c <core_list_init+0x1d4>
    8b2c:	00078663          	beqz	a5,8b38 <core_list_init+0x280>
    8b30:	00078413          	mv	s0,a5
    8b34:	f29ff06f          	j	8a5c <core_list_init+0x1a4>
    8b38:	0005a023          	sw	zero,0(a1)
    8b3c:	025f8263          	beq	t6,t0,8b60 <core_list_init+0x2a8>
    8b40:	001f1f13          	sll	t5,t5,0x1
    8b44:	02050c63          	beqz	a0,8b7c <core_list_init+0x2c4>
    8b48:	00050793          	mv	a5,a0
    8b4c:	00000593          	li	a1,0
    8b50:	00000513          	li	a0,0
    8b54:	00000f93          	li	t6,0
    8b58:	00078413          	mv	s0,a5
    8b5c:	f01ff06f          	j	8a5c <core_list_init+0x1a4>
    8b60:	01c12083          	lw	ra,28(sp)
    8b64:	01812403          	lw	s0,24(sp)
    8b68:	01412483          	lw	s1,20(sp)
    8b6c:	01012903          	lw	s2,16(sp)
    8b70:	00c12983          	lw	s3,12(sp)
    8b74:	02010113          	add	sp,sp,32
    8b78:	00008067          	ret
    8b7c:	00002023          	sw	zero,0(zero) # 0 <_start-0x8000>
    8b80:	00100073          	ebreak
    8b84:	00070493          	mv	s1,a4
    8b88:	e45ff06f          	j	89cc <core_list_init+0x114>
    8b8c:	00000493          	li	s1,0
    8b90:	dc1ff06f          	j	8950 <core_list_init+0x98>
    8b94:	00160613          	add	a2,a2,1
    8b98:	e2c50ae3          	beq	a0,a2,89cc <core_list_init+0x114>
    8b9c:	00070893          	mv	a7,a4
    8ba0:	00068313          	mv	t1,a3
    8ba4:	00048713          	mv	a4,s1
    8ba8:	e11ff06f          	j	89b8 <core_list_init+0x100>

00008bac <core_list_insert_new>:
    8bac:	00062803          	lw	a6,0(a2)
    8bb0:	00880893          	add	a7,a6,8
    8bb4:	04e8f663          	bgeu	a7,a4,8c00 <core_list_insert_new+0x54>
    8bb8:	0006a703          	lw	a4,0(a3)
    8bbc:	00470313          	add	t1,a4,4
    8bc0:	04f37063          	bgeu	t1,a5,8c00 <core_list_insert_new+0x54>
    8bc4:	01162023          	sw	a7,0(a2)
    8bc8:	00052783          	lw	a5,0(a0)
    8bcc:	00059883          	lh	a7,0(a1)
    8bd0:	00259603          	lh	a2,2(a1)
    8bd4:	00f82023          	sw	a5,0(a6)
    8bd8:	01052023          	sw	a6,0(a0)
    8bdc:	00e82223          	sw	a4,4(a6)
    8be0:	0006a783          	lw	a5,0(a3)
    8be4:	00080513          	mv	a0,a6
    8be8:	00478793          	add	a5,a5,4
    8bec:	00f6a023          	sw	a5,0(a3)
    8bf0:	00482783          	lw	a5,4(a6)
    8bf4:	01179023          	sh	a7,0(a5)
    8bf8:	00c79123          	sh	a2,2(a5)
    8bfc:	00008067          	ret
    8c00:	00000813          	li	a6,0
    8c04:	00080513          	mv	a0,a6
    8c08:	00008067          	ret

00008c0c <core_list_remove>:
    8c0c:	00050793          	mv	a5,a0
    8c10:	00052503          	lw	a0,0(a0)
    8c14:	0047a683          	lw	a3,4(a5)
    8c18:	00452603          	lw	a2,4(a0)
    8c1c:	00052703          	lw	a4,0(a0)
    8c20:	00c7a223          	sw	a2,4(a5)
    8c24:	00d52223          	sw	a3,4(a0)
    8c28:	00e7a023          	sw	a4,0(a5)
    8c2c:	00052023          	sw	zero,0(a0)
    8c30:	00008067          	ret

00008c34 <core_list_undo_remove>:
    8c34:	0045a603          	lw	a2,4(a1)
    8c38:	00452683          	lw	a3,4(a0)
    8c3c:	0005a703          	lw	a4,0(a1)
    8c40:	00c52223          	sw	a2,4(a0)
    8c44:	00d5a223          	sw	a3,4(a1)
    8c48:	00e52023          	sw	a4,0(a0)
    8c4c:	00a5a023          	sw	a0,0(a1)
    8c50:	00008067          	ret

00008c54 <core_list_find>:
    8c54:	00259703          	lh	a4,2(a1)
    8c58:	02074263          	bltz	a4,8c7c <core_list_find+0x28>
    8c5c:	00051863          	bnez	a0,8c6c <core_list_find+0x18>
    8c60:	00008067          	ret
    8c64:	00052503          	lw	a0,0(a0)
    8c68:	02050c63          	beqz	a0,8ca0 <core_list_find+0x4c>
    8c6c:	00452783          	lw	a5,4(a0)
    8c70:	00279783          	lh	a5,2(a5)
    8c74:	fee798e3          	bne	a5,a4,8c64 <core_list_find+0x10>
    8c78:	00008067          	ret
    8c7c:	02050263          	beqz	a0,8ca0 <core_list_find+0x4c>
    8c80:	00059703          	lh	a4,0(a1)
    8c84:	00c0006f          	j	8c90 <core_list_find+0x3c>
    8c88:	00052503          	lw	a0,0(a0)
    8c8c:	00050c63          	beqz	a0,8ca4 <core_list_find+0x50>
    8c90:	00452783          	lw	a5,4(a0)
    8c94:	0007c783          	lbu	a5,0(a5)
    8c98:	fee798e3          	bne	a5,a4,8c88 <core_list_find+0x34>
    8c9c:	00008067          	ret
    8ca0:	00000513          	li	a0,0
    8ca4:	00008067          	ret

00008ca8 <core_list_reverse>:
    8ca8:	02050063          	beqz	a0,8cc8 <core_list_reverse+0x20>
    8cac:	00000713          	li	a4,0
    8cb0:	0080006f          	j	8cb8 <core_list_reverse+0x10>
    8cb4:	00078513          	mv	a0,a5
    8cb8:	00052783          	lw	a5,0(a0)
    8cbc:	00e52023          	sw	a4,0(a0)
    8cc0:	00050713          	mv	a4,a0
    8cc4:	fe0798e3          	bnez	a5,8cb4 <core_list_reverse+0xc>
    8cc8:	00008067          	ret

00008ccc <core_list_mergesort>:
    8ccc:	fd010113          	add	sp,sp,-48
    8cd0:	01312e23          	sw	s3,28(sp)
    8cd4:	01512a23          	sw	s5,20(sp)
    8cd8:	01712623          	sw	s7,12(sp)
    8cdc:	01812423          	sw	s8,8(sp)
    8ce0:	01a12023          	sw	s10,0(sp)
    8ce4:	02112623          	sw	ra,44(sp)
    8ce8:	02812423          	sw	s0,40(sp)
    8cec:	02912223          	sw	s1,36(sp)
    8cf0:	03212023          	sw	s2,32(sp)
    8cf4:	01412c23          	sw	s4,24(sp)
    8cf8:	01612823          	sw	s6,16(sp)
    8cfc:	01912223          	sw	s9,4(sp)
    8d00:	00050993          	mv	s3,a0
    8d04:	00058c13          	mv	s8,a1
    8d08:	00060b93          	mv	s7,a2
    8d0c:	00100a93          	li	s5,1
    8d10:	00100d13          	li	s10,1
    8d14:	0c098263          	beqz	s3,8dd8 <core_list_mergesort+0x10c>
    8d18:	00000c93          	li	s9,0
    8d1c:	00000493          	li	s1,0
    8d20:	00000b13          	li	s6,0
    8d24:	001c8c93          	add	s9,s9,1
    8d28:	00098793          	mv	a5,s3
    8d2c:	00000413          	li	s0,0
    8d30:	01545863          	bge	s0,s5,8d40 <core_list_mergesort+0x74>
    8d34:	0007a783          	lw	a5,0(a5)
    8d38:	00140413          	add	s0,s0,1
    8d3c:	fe079ae3          	bnez	a5,8d30 <core_list_mergesort+0x64>
    8d40:	00098913          	mv	s2,s3
    8d44:	000a8a13          	mv	s4,s5
    8d48:	00078993          	mv	s3,a5
    8d4c:	02805263          	blez	s0,8d70 <core_list_mergesort+0xa4>
    8d50:	040a1463          	bnez	s4,8d98 <core_list_mergesort+0xcc>
    8d54:	00090793          	mv	a5,s2
    8d58:	00092903          	lw	s2,0(s2)
    8d5c:	fff40413          	add	s0,s0,-1
    8d60:	02048663          	beqz	s1,8d8c <core_list_mergesort+0xc0>
    8d64:	00f4a023          	sw	a5,0(s1)
    8d68:	00078493          	mv	s1,a5
    8d6c:	fe8042e3          	bgtz	s0,8d50 <core_list_mergesort+0x84>
    8d70:	05405863          	blez	s4,8dc0 <core_list_mergesort+0xf4>
    8d74:	04098863          	beqz	s3,8dc4 <core_list_mergesort+0xf8>
    8d78:	02041263          	bnez	s0,8d9c <core_list_mergesort+0xd0>
    8d7c:	00098793          	mv	a5,s3
    8d80:	fffa0a13          	add	s4,s4,-1
    8d84:	0009a983          	lw	s3,0(s3)
    8d88:	fc049ee3          	bnez	s1,8d64 <core_list_mergesort+0x98>
    8d8c:	00078b13          	mv	s6,a5
    8d90:	00078493          	mv	s1,a5
    8d94:	fd9ff06f          	j	8d6c <core_list_mergesort+0xa0>
    8d98:	fa098ee3          	beqz	s3,8d54 <core_list_mergesort+0x88>
    8d9c:	0049a583          	lw	a1,4(s3)
    8da0:	00492503          	lw	a0,4(s2)
    8da4:	000b8613          	mv	a2,s7
    8da8:	000c00e7          	jalr	s8
    8dac:	faa054e3          	blez	a0,8d54 <core_list_mergesort+0x88>
    8db0:	00098793          	mv	a5,s3
    8db4:	fffa0a13          	add	s4,s4,-1
    8db8:	0009a983          	lw	s3,0(s3)
    8dbc:	fa5ff06f          	j	8d60 <core_list_mergesort+0x94>
    8dc0:	f60992e3          	bnez	s3,8d24 <core_list_mergesort+0x58>
    8dc4:	0004a023          	sw	zero,0(s1)
    8dc8:	01ac8c63          	beq	s9,s10,8de0 <core_list_mergesort+0x114>
    8dcc:	000b0993          	mv	s3,s6
    8dd0:	001a9a93          	sll	s5,s5,0x1
    8dd4:	f40992e3          	bnez	s3,8d18 <core_list_mergesort+0x4c>
    8dd8:	00002023          	sw	zero,0(zero) # 0 <_start-0x8000>
    8ddc:	00100073          	ebreak
    8de0:	02c12083          	lw	ra,44(sp)
    8de4:	02812403          	lw	s0,40(sp)
    8de8:	02412483          	lw	s1,36(sp)
    8dec:	02012903          	lw	s2,32(sp)
    8df0:	01c12983          	lw	s3,28(sp)
    8df4:	01812a03          	lw	s4,24(sp)
    8df8:	01412a83          	lw	s5,20(sp)
    8dfc:	00c12b83          	lw	s7,12(sp)
    8e00:	00812c03          	lw	s8,8(sp)
    8e04:	00412c83          	lw	s9,4(sp)
    8e08:	00012d03          	lw	s10,0(sp)
    8e0c:	000b0513          	mv	a0,s6
    8e10:	01012b03          	lw	s6,16(sp)
    8e14:	03010113          	add	sp,sp,48
    8e18:	00008067          	ret

00008e1c <iterate>:
    8e1c:	ff010113          	add	sp,sp,-16
    8e20:	01212023          	sw	s2,0(sp)
    8e24:	01c52903          	lw	s2,28(a0)
    8e28:	00112623          	sw	ra,12(sp)
    8e2c:	02052c23          	sw	zero,56(a0)
    8e30:	02052e23          	sw	zero,60(a0)
    8e34:	04090c63          	beqz	s2,8e8c <iterate+0x70>
    8e38:	00812423          	sw	s0,8(sp)
    8e3c:	00912223          	sw	s1,4(sp)
    8e40:	00050413          	mv	s0,a0
    8e44:	00000493          	li	s1,0
    8e48:	00100593          	li	a1,1
    8e4c:	00040513          	mv	a0,s0
    8e50:	dc8ff0ef          	jal	8418 <core_bench_list>
    8e54:	03845583          	lhu	a1,56(s0)
    8e58:	5e8010ef          	jal	a440 <crcu16>
    8e5c:	02a41c23          	sh	a0,56(s0)
    8e60:	fff00593          	li	a1,-1
    8e64:	00040513          	mv	a0,s0
    8e68:	db0ff0ef          	jal	8418 <core_bench_list>
    8e6c:	03845583          	lhu	a1,56(s0)
    8e70:	5d0010ef          	jal	a440 <crcu16>
    8e74:	02a41c23          	sh	a0,56(s0)
    8e78:	02048463          	beqz	s1,8ea0 <iterate+0x84>
    8e7c:	00148493          	add	s1,s1,1
    8e80:	fc9914e3          	bne	s2,s1,8e48 <iterate+0x2c>
    8e84:	00812403          	lw	s0,8(sp)
    8e88:	00412483          	lw	s1,4(sp)
    8e8c:	00c12083          	lw	ra,12(sp)
    8e90:	00012903          	lw	s2,0(sp)
    8e94:	00000513          	li	a0,0
    8e98:	01010113          	add	sp,sp,16
    8e9c:	00008067          	ret
    8ea0:	02a41d23          	sh	a0,58(s0)
    8ea4:	00100793          	li	a5,1
    8ea8:	fcf90ee3          	beq	s2,a5,8e84 <iterate+0x68>
    8eac:	00100493          	li	s1,1
    8eb0:	f99ff06f          	j	8e48 <iterate+0x2c>

00008eb4 <matrix_test>:
    8eb4:	fa010113          	add	sp,sp,-96
    8eb8:	04112e23          	sw	ra,92(sp)
    8ebc:	00b12423          	sw	a1,8(sp)
    8ec0:	00c12a23          	sw	a2,20(sp)
    8ec4:	00d12623          	sw	a3,12(sp)
    8ec8:	52050263          	beqz	a0,93ec <matrix_test+0x538>
    8ecc:	04912a23          	sw	s1,84(sp)
    8ed0:	03812c23          	sw	s8,56(sp)
    8ed4:	00151493          	sll	s1,a0,0x1
    8ed8:	40a00c33          	neg	s8,a0
    8edc:	05312623          	sw	s3,76(sp)
    8ee0:	05612023          	sw	s6,64(sp)
    8ee4:	009609b3          	add	s3,a2,s1
    8ee8:	01071b13          	sll	s6,a4,0x10
    8eec:	002c1793          	sll	a5,s8,0x2
    8ef0:	05212823          	sw	s2,80(sp)
    8ef4:	05412423          	sw	s4,72(sp)
    8ef8:	04812c23          	sw	s0,88(sp)
    8efc:	05512223          	sw	s5,68(sp)
    8f00:	03712e23          	sw	s7,60(sp)
    8f04:	03912a23          	sw	s9,52(sp)
    8f08:	03a12823          	sw	s10,48(sp)
    8f0c:	03b12623          	sw	s11,44(sp)
    8f10:	00050813          	mv	a6,a0
    8f14:	00070913          	mv	s2,a4
    8f18:	010b5b13          	srl	s6,s6,0x10
    8f1c:	00098693          	mv	a3,s3
    8f20:	00000a13          	li	s4,0
    8f24:	00f12223          	sw	a5,4(sp)
    8f28:	40968633          	sub	a2,a3,s1
    8f2c:	00060793          	mv	a5,a2
    8f30:	0007d703          	lhu	a4,0(a5)
    8f34:	00278793          	add	a5,a5,2
    8f38:	00eb0733          	add	a4,s6,a4
    8f3c:	fee79f23          	sh	a4,-2(a5)
    8f40:	fed798e3          	bne	a5,a3,8f30 <matrix_test+0x7c>
    8f44:	00412783          	lw	a5,4(sp)
    8f48:	001a0413          	add	s0,s4,1
    8f4c:	40f606b3          	sub	a3,a2,a5
    8f50:	00880663          	beq	a6,s0,8f5c <matrix_test+0xa8>
    8f54:	00040a13          	mv	s4,s0
    8f58:	fd1ff06f          	j	8f28 <matrix_test+0x74>
    8f5c:	00000a93          	li	s5,0
    8f60:	00000d93          	li	s11,0
    8f64:	00812783          	lw	a5,8(sp)
    8f68:	40998bb3          	sub	s7,s3,s1
    8f6c:	002a9713          	sll	a4,s5,0x2
    8f70:	00f70cb3          	add	s9,a4,a5
    8f74:	000b8c13          	mv	s8,s7
    8f78:	000c1503          	lh	a0,0(s8)
    8f7c:	00090593          	mv	a1,s2
    8f80:	002c0c13          	add	s8,s8,2
    8f84:	3c1030ef          	jal	cb44 <__mulsi3>
    8f88:	00aca023          	sw	a0,0(s9)
    8f8c:	004c8c93          	add	s9,s9,4
    8f90:	ff8994e3          	bne	s3,s8,8f78 <matrix_test+0xc4>
    8f94:	00412703          	lw	a4,4(sp)
    8f98:	001d8793          	add	a5,s11,1
    8f9c:	008a8ab3          	add	s5,s5,s0
    8fa0:	40eb89b3          	sub	s3,s7,a4
    8fa4:	014d8663          	beq	s11,s4,8fb0 <matrix_test+0xfc>
    8fa8:	00078d93          	mv	s11,a5
    8fac:	fb9ff06f          	j	8f64 <matrix_test+0xb0>
    8fb0:	00812783          	lw	a5,8(sp)
    8fb4:	40800e33          	neg	t3,s0
    8fb8:	00000513          	li	a0,0
    8fbc:	40e78ab3          	sub	s5,a5,a4
    8fc0:	fffff7b7          	lui	a5,0xfffff
    8fc4:	00f96933          	or	s2,s2,a5
    8fc8:	000a8813          	mv	a6,s5
    8fcc:	00000713          	li	a4,0
    8fd0:	00000613          	li	a2,0
    8fd4:	00000313          	li	t1,0
    8fd8:	003e1e13          	sll	t3,t3,0x3
    8fdc:	00412783          	lw	a5,4(sp)
    8fe0:	00f808b3          	add	a7,a6,a5
    8fe4:	00088793          	mv	a5,a7
    8fe8:	0140006f          	j	8ffc <matrix_test+0x148>
    8fec:	01051513          	sll	a0,a0,0x10
    8ff0:	00478793          	add	a5,a5,4 # fffff004 <stack_top+0xfffdf004>
    8ff4:	41055513          	sra	a0,a0,0x10
    8ff8:	02f80e63          	beq	a6,a5,9034 <matrix_test+0x180>
    8ffc:	00070693          	mv	a3,a4
    9000:	0007a703          	lw	a4,0(a5)
    9004:	01051513          	sll	a0,a0,0x10
    9008:	01055513          	srl	a0,a0,0x10
    900c:	00e6a6b3          	slt	a3,a3,a4
    9010:	00e60633          	add	a2,a2,a4
    9014:	00a50593          	add	a1,a0,10
    9018:	00d50533          	add	a0,a0,a3
    901c:	fcc958e3          	bge	s2,a2,8fec <matrix_test+0x138>
    9020:	01059513          	sll	a0,a1,0x10
    9024:	00478793          	add	a5,a5,4
    9028:	41055513          	sra	a0,a0,0x10
    902c:	00000613          	li	a2,0
    9030:	fcf816e3          	bne	a6,a5,8ffc <matrix_test+0x148>
    9034:	00130793          	add	a5,t1,1
    9038:	41c88833          	sub	a6,a7,t3
    903c:	006a0663          	beq	s4,t1,9048 <matrix_test+0x194>
    9040:	00078313          	mv	t1,a5
    9044:	f99ff06f          	j	8fdc <matrix_test+0x128>
    9048:	00000593          	li	a1,0
    904c:	2d9010ef          	jal	ab24 <crc16>
    9050:	00c12783          	lw	a5,12(sp)
    9054:	00812a03          	lw	s4,8(sp)
    9058:	00050d93          	mv	s11,a0
    905c:	009789b3          	add	s3,a5,s1
    9060:	00000b93          	li	s7,0
    9064:	01412783          	lw	a5,20(sp)
    9068:	00c12c83          	lw	s9,12(sp)
    906c:	001b9713          	sll	a4,s7,0x1
    9070:	00e78d33          	add	s10,a5,a4
    9074:	00000c13          	li	s8,0
    9078:	000c9583          	lh	a1,0(s9)
    907c:	000d1503          	lh	a0,0(s10)
    9080:	002c8c93          	add	s9,s9,2
    9084:	002d0d13          	add	s10,s10,2
    9088:	2bd030ef          	jal	cb44 <__mulsi3>
    908c:	00ac0c33          	add	s8,s8,a0
    9090:	ff3c94e3          	bne	s9,s3,9078 <matrix_test+0x1c4>
    9094:	018a2023          	sw	s8,0(s4)
    9098:	004a0a13          	add	s4,s4,4
    909c:	008b8bb3          	add	s7,s7,s0
    90a0:	fd5a12e3          	bne	s4,s5,9064 <matrix_test+0x1b0>
    90a4:	00000893          	li	a7,0
    90a8:	00000513          	li	a0,0
    90ac:	00000793          	li	a5,0
    90b0:	00000693          	li	a3,0
    90b4:	00000313          	li	t1,0
    90b8:	00812703          	lw	a4,8(sp)
    90bc:	00289613          	sll	a2,a7,0x2
    90c0:	00000593          	li	a1,0
    90c4:	00c70633          	add	a2,a4,a2
    90c8:	0180006f          	j	90e0 <matrix_test+0x22c>
    90cc:	01051513          	sll	a0,a0,0x10
    90d0:	00158593          	add	a1,a1,1
    90d4:	41055513          	sra	a0,a0,0x10
    90d8:	00460613          	add	a2,a2,4
    90dc:	0485f063          	bgeu	a1,s0,911c <matrix_test+0x268>
    90e0:	00078713          	mv	a4,a5
    90e4:	00062783          	lw	a5,0(a2)
    90e8:	01051513          	sll	a0,a0,0x10
    90ec:	01055513          	srl	a0,a0,0x10
    90f0:	00f72733          	slt	a4,a4,a5
    90f4:	00f686b3          	add	a3,a3,a5
    90f8:	00a50813          	add	a6,a0,10
    90fc:	00e50533          	add	a0,a0,a4
    9100:	fcd956e3          	bge	s2,a3,90cc <matrix_test+0x218>
    9104:	01081513          	sll	a0,a6,0x10
    9108:	00158593          	add	a1,a1,1
    910c:	41055513          	sra	a0,a0,0x10
    9110:	00000693          	li	a3,0
    9114:	00460613          	add	a2,a2,4
    9118:	fc85e4e3          	bltu	a1,s0,90e0 <matrix_test+0x22c>
    911c:	00130313          	add	t1,t1,1
    9120:	008888b3          	add	a7,a7,s0
    9124:	f8836ae3          	bltu	t1,s0,90b8 <matrix_test+0x204>
    9128:	000d8593          	mv	a1,s11
    912c:	1f9010ef          	jal	ab24 <crc16>
    9130:	00812783          	lw	a5,8(sp)
    9134:	01412b83          	lw	s7,20(sp)
    9138:	00a12e23          	sw	a0,28(sp)
    913c:	00f12823          	sw	a5,16(sp)
    9140:	00012c23          	sw	zero,24(sp)
    9144:	00c12983          	lw	s3,12(sp)
    9148:	01012a83          	lw	s5,16(sp)
    914c:	00000a13          	li	s4,0
    9150:	00098d93          	mv	s11,s3
    9154:	000b8d13          	mv	s10,s7
    9158:	00000c13          	li	s8,0
    915c:	00000c93          	li	s9,0
    9160:	000d9583          	lh	a1,0(s11)
    9164:	000d1503          	lh	a0,0(s10)
    9168:	001c8c93          	add	s9,s9,1
    916c:	002d0d13          	add	s10,s10,2
    9170:	1d5030ef          	jal	cb44 <__mulsi3>
    9174:	00ac0c33          	add	s8,s8,a0
    9178:	009d8db3          	add	s11,s11,s1
    917c:	fe8ce2e3          	bltu	s9,s0,9160 <matrix_test+0x2ac>
    9180:	018aa023          	sw	s8,0(s5)
    9184:	001a0a13          	add	s4,s4,1
    9188:	004a8a93          	add	s5,s5,4
    918c:	00298993          	add	s3,s3,2
    9190:	fc8a60e3          	bltu	s4,s0,9150 <matrix_test+0x29c>
    9194:	01812783          	lw	a5,24(sp)
    9198:	01012703          	lw	a4,16(sp)
    919c:	00412683          	lw	a3,4(sp)
    91a0:	00178793          	add	a5,a5,1
    91a4:	00f12c23          	sw	a5,24(sp)
    91a8:	40d70733          	sub	a4,a4,a3
    91ac:	00e12823          	sw	a4,16(sp)
    91b0:	009b8bb3          	add	s7,s7,s1
    91b4:	f887e8e3          	bltu	a5,s0,9144 <matrix_test+0x290>
    91b8:	00000893          	li	a7,0
    91bc:	00000513          	li	a0,0
    91c0:	00000793          	li	a5,0
    91c4:	00000693          	li	a3,0
    91c8:	00000313          	li	t1,0
    91cc:	00812703          	lw	a4,8(sp)
    91d0:	00289613          	sll	a2,a7,0x2
    91d4:	00000593          	li	a1,0
    91d8:	00c70633          	add	a2,a4,a2
    91dc:	0180006f          	j	91f4 <matrix_test+0x340>
    91e0:	01051513          	sll	a0,a0,0x10
    91e4:	00158593          	add	a1,a1,1
    91e8:	41055513          	sra	a0,a0,0x10
    91ec:	00460613          	add	a2,a2,4
    91f0:	0485f063          	bgeu	a1,s0,9230 <matrix_test+0x37c>
    91f4:	00078713          	mv	a4,a5
    91f8:	00062783          	lw	a5,0(a2)
    91fc:	01051513          	sll	a0,a0,0x10
    9200:	01055513          	srl	a0,a0,0x10
    9204:	00f72733          	slt	a4,a4,a5
    9208:	00f686b3          	add	a3,a3,a5
    920c:	00a50813          	add	a6,a0,10
    9210:	00e50533          	add	a0,a0,a4
    9214:	fcd956e3          	bge	s2,a3,91e0 <matrix_test+0x32c>
    9218:	01081513          	sll	a0,a6,0x10
    921c:	00158593          	add	a1,a1,1
    9220:	41055513          	sra	a0,a0,0x10
    9224:	00000693          	li	a3,0
    9228:	00460613          	add	a2,a2,4
    922c:	fc85e4e3          	bltu	a1,s0,91f4 <matrix_test+0x340>
    9230:	00130313          	add	t1,t1,1
    9234:	008888b3          	add	a7,a7,s0
    9238:	f8836ae3          	bltu	t1,s0,91cc <matrix_test+0x318>
    923c:	01c12583          	lw	a1,28(sp)
    9240:	0e5010ef          	jal	ab24 <crc16>
    9244:	00812783          	lw	a5,8(sp)
    9248:	01412b83          	lw	s7,20(sp)
    924c:	00a12e23          	sw	a0,28(sp)
    9250:	00f12823          	sw	a5,16(sp)
    9254:	00012c23          	sw	zero,24(sp)
    9258:	00c12983          	lw	s3,12(sp)
    925c:	01012a83          	lw	s5,16(sp)
    9260:	00000a13          	li	s4,0
    9264:	00098c13          	mv	s8,s3
    9268:	000b8c93          	mv	s9,s7
    926c:	00000d93          	li	s11,0
    9270:	00000d13          	li	s10,0
    9274:	000c1583          	lh	a1,0(s8)
    9278:	000c9503          	lh	a0,0(s9)
    927c:	001d0d13          	add	s10,s10,1
    9280:	002c8c93          	add	s9,s9,2
    9284:	0c1030ef          	jal	cb44 <__mulsi3>
    9288:	40255813          	sra	a6,a0,0x2
    928c:	40555593          	sra	a1,a0,0x5
    9290:	07f5f593          	and	a1,a1,127
    9294:	00f87513          	and	a0,a6,15
    9298:	0ad030ef          	jal	cb44 <__mulsi3>
    929c:	00ad8db3          	add	s11,s11,a0
    92a0:	009c0c33          	add	s8,s8,s1
    92a4:	fc8d68e3          	bltu	s10,s0,9274 <matrix_test+0x3c0>
    92a8:	01baa023          	sw	s11,0(s5)
    92ac:	001a0a13          	add	s4,s4,1
    92b0:	004a8a93          	add	s5,s5,4
    92b4:	00298993          	add	s3,s3,2
    92b8:	fa8a66e3          	bltu	s4,s0,9264 <matrix_test+0x3b0>
    92bc:	01812783          	lw	a5,24(sp)
    92c0:	01012703          	lw	a4,16(sp)
    92c4:	00412683          	lw	a3,4(sp)
    92c8:	00178793          	add	a5,a5,1
    92cc:	00f12c23          	sw	a5,24(sp)
    92d0:	40d70733          	sub	a4,a4,a3
    92d4:	00e12823          	sw	a4,16(sp)
    92d8:	009b8bb3          	add	s7,s7,s1
    92dc:	f687eee3          	bltu	a5,s0,9258 <matrix_test+0x3a4>
    92e0:	00000893          	li	a7,0
    92e4:	00000513          	li	a0,0
    92e8:	00000793          	li	a5,0
    92ec:	00000693          	li	a3,0
    92f0:	00000313          	li	t1,0
    92f4:	00812703          	lw	a4,8(sp)
    92f8:	00289613          	sll	a2,a7,0x2
    92fc:	00000593          	li	a1,0
    9300:	00c70633          	add	a2,a4,a2
    9304:	0180006f          	j	931c <matrix_test+0x468>
    9308:	01051513          	sll	a0,a0,0x10
    930c:	00158593          	add	a1,a1,1
    9310:	41055513          	sra	a0,a0,0x10
    9314:	00460613          	add	a2,a2,4
    9318:	0485f063          	bgeu	a1,s0,9358 <matrix_test+0x4a4>
    931c:	00078713          	mv	a4,a5
    9320:	00062783          	lw	a5,0(a2)
    9324:	01051513          	sll	a0,a0,0x10
    9328:	01055513          	srl	a0,a0,0x10
    932c:	00f72733          	slt	a4,a4,a5
    9330:	00f686b3          	add	a3,a3,a5
    9334:	00a50813          	add	a6,a0,10
    9338:	00e50533          	add	a0,a0,a4
    933c:	fcd956e3          	bge	s2,a3,9308 <matrix_test+0x454>
    9340:	01081513          	sll	a0,a6,0x10
    9344:	00158593          	add	a1,a1,1
    9348:	41055513          	sra	a0,a0,0x10
    934c:	00000693          	li	a3,0
    9350:	00460613          	add	a2,a2,4
    9354:	fc85e4e3          	bltu	a1,s0,931c <matrix_test+0x468>
    9358:	00130313          	add	t1,t1,1
    935c:	008888b3          	add	a7,a7,s0
    9360:	f8836ae3          	bltu	t1,s0,92f4 <matrix_test+0x440>
    9364:	01c12583          	lw	a1,28(sp)
    9368:	7bc010ef          	jal	ab24 <crc16>
    936c:	00000613          	li	a2,0
    9370:	00000593          	li	a1,0
    9374:	01412703          	lw	a4,20(sp)
    9378:	00161793          	sll	a5,a2,0x1
    937c:	00000693          	li	a3,0
    9380:	00f707b3          	add	a5,a4,a5
    9384:	0007d703          	lhu	a4,0(a5)
    9388:	00278793          	add	a5,a5,2
    938c:	00168693          	add	a3,a3,1
    9390:	41670733          	sub	a4,a4,s6
    9394:	fee79f23          	sh	a4,-2(a5)
    9398:	fe86e6e3          	bltu	a3,s0,9384 <matrix_test+0x4d0>
    939c:	00158593          	add	a1,a1,1
    93a0:	00860633          	add	a2,a2,s0
    93a4:	fc85e8e3          	bltu	a1,s0,9374 <matrix_test+0x4c0>
    93a8:	05812403          	lw	s0,88(sp)
    93ac:	05c12083          	lw	ra,92(sp)
    93b0:	01051513          	sll	a0,a0,0x10
    93b4:	05412483          	lw	s1,84(sp)
    93b8:	05012903          	lw	s2,80(sp)
    93bc:	04c12983          	lw	s3,76(sp)
    93c0:	04812a03          	lw	s4,72(sp)
    93c4:	04412a83          	lw	s5,68(sp)
    93c8:	04012b03          	lw	s6,64(sp)
    93cc:	03c12b83          	lw	s7,60(sp)
    93d0:	03812c03          	lw	s8,56(sp)
    93d4:	03412c83          	lw	s9,52(sp)
    93d8:	03012d03          	lw	s10,48(sp)
    93dc:	02c12d83          	lw	s11,44(sp)
    93e0:	41055513          	sra	a0,a0,0x10
    93e4:	06010113          	add	sp,sp,96
    93e8:	00008067          	ret
    93ec:	00000593          	li	a1,0
    93f0:	734010ef          	jal	ab24 <crc16>
    93f4:	00050593          	mv	a1,a0
    93f8:	00000513          	li	a0,0
    93fc:	728010ef          	jal	ab24 <crc16>
    9400:	00050593          	mv	a1,a0
    9404:	00000513          	li	a0,0
    9408:	71c010ef          	jal	ab24 <crc16>
    940c:	00050593          	mv	a1,a0
    9410:	00000513          	li	a0,0
    9414:	710010ef          	jal	ab24 <crc16>
    9418:	05c12083          	lw	ra,92(sp)
    941c:	01051513          	sll	a0,a0,0x10
    9420:	41055513          	sra	a0,a0,0x10
    9424:	06010113          	add	sp,sp,96
    9428:	00008067          	ret

0000942c <core_bench_matrix>:
    942c:	ff010113          	add	sp,sp,-16
    9430:	00812423          	sw	s0,8(sp)
    9434:	00852683          	lw	a3,8(a0)
    9438:	00060413          	mv	s0,a2
    943c:	00058713          	mv	a4,a1
    9440:	00452603          	lw	a2,4(a0)
    9444:	00c52583          	lw	a1,12(a0)
    9448:	00052503          	lw	a0,0(a0)
    944c:	00112623          	sw	ra,12(sp)
    9450:	a65ff0ef          	jal	8eb4 <matrix_test>
    9454:	00040593          	mv	a1,s0
    9458:	00812403          	lw	s0,8(sp)
    945c:	00c12083          	lw	ra,12(sp)
    9460:	01010113          	add	sp,sp,16
    9464:	6c00106f          	j	ab24 <crc16>

00009468 <core_init_matrix>:
    9468:	fb010113          	add	sp,sp,-80
    946c:	04912223          	sw	s1,68(sp)
    9470:	03712623          	sw	s7,44(sp)
    9474:	03a12023          	sw	s10,32(sp)
    9478:	01b12e23          	sw	s11,28(sp)
    947c:	04112623          	sw	ra,76(sp)
    9480:	04812423          	sw	s0,72(sp)
    9484:	03312e23          	sw	s3,60(sp)
    9488:	00050493          	mv	s1,a0
    948c:	00058b93          	mv	s7,a1
    9490:	00068d13          	mv	s10,a3
    9494:	00060d93          	mv	s11,a2
    9498:	00061463          	bnez	a2,94a0 <core_init_matrix+0x38>
    949c:	00100d93          	li	s11,1
    94a0:	00000413          	li	s0,0
    94a4:	16048e63          	beqz	s1,9620 <core_init_matrix+0x1b8>
    94a8:	00040993          	mv	s3,s0
    94ac:	00140413          	add	s0,s0,1
    94b0:	00040593          	mv	a1,s0
    94b4:	00040513          	mv	a0,s0
    94b8:	68c030ef          	jal	cb44 <__mulsi3>
    94bc:	00351513          	sll	a0,a0,0x3
    94c0:	fe9564e3          	bltu	a0,s1,94a8 <core_init_matrix+0x40>
    94c4:	00098593          	mv	a1,s3
    94c8:	00098513          	mv	a0,s3
    94cc:	678030ef          	jal	cb44 <__mulsi3>
    94d0:	fffb8793          	add	a5,s7,-1
    94d4:	ffc7f793          	and	a5,a5,-4
    94d8:	00478793          	add	a5,a5,4
    94dc:	00151713          	sll	a4,a0,0x1
    94e0:	00f12423          	sw	a5,8(sp)
    94e4:	00078493          	mv	s1,a5
    94e8:	00e787b3          	add	a5,a5,a4
    94ec:	00e12223          	sw	a4,4(sp)
    94f0:	01312623          	sw	s3,12(sp)
    94f4:	00f12023          	sw	a5,0(sp)
    94f8:	12098063          	beqz	s3,9618 <core_init_matrix+0x1b0>
    94fc:	05212023          	sw	s2,64(sp)
    9500:	03412c23          	sw	s4,56(sp)
    9504:	03512a23          	sw	s5,52(sp)
    9508:	03612823          	sw	s6,48(sp)
    950c:	03812423          	sw	s8,40(sp)
    9510:	03912223          	sw	s9,36(sp)
    9514:	00012783          	lw	a5,0(sp)
    9518:	00010937          	lui	s2,0x10
    951c:	00198413          	add	s0,s3,1
    9520:	00199c93          	sll	s9,s3,0x1
    9524:	00078a13          	mv	s4,a5
    9528:	00000a93          	li	s5,0
    952c:	00100c13          	li	s8,1
    9530:	40f484b3          	sub	s1,s1,a5
    9534:	fff90913          	add	s2,s2,-1 # ffff <main+0x33e3>
    9538:	000c0b13          	mv	s6,s8
    953c:	000a0b93          	mv	s7,s4
    9540:	000c0593          	mv	a1,s8
    9544:	000d8513          	mv	a0,s11
    9548:	5fc030ef          	jal	cb44 <__mulsi3>
    954c:	41f55713          	sra	a4,a0,0x1f
    9550:	01075713          	srl	a4,a4,0x10
    9554:	00e50633          	add	a2,a0,a4
    9558:	010c1793          	sll	a5,s8,0x10
    955c:	01267633          	and	a2,a2,s2
    9560:	0107d793          	srl	a5,a5,0x10
    9564:	40e60db3          	sub	s11,a2,a4
    9568:	01b78733          	add	a4,a5,s11
    956c:	01071713          	sll	a4,a4,0x10
    9570:	01075713          	srl	a4,a4,0x10
    9574:	00f707b3          	add	a5,a4,a5
    9578:	00eb9023          	sh	a4,0(s7)
    957c:	0ff7f793          	zext.b	a5,a5
    9580:	01748733          	add	a4,s1,s7
    9584:	00f71023          	sh	a5,0(a4)
    9588:	001c0c13          	add	s8,s8,1
    958c:	002b8b93          	add	s7,s7,2
    9590:	fa8c18e3          	bne	s8,s0,9540 <core_init_matrix+0xd8>
    9594:	001a8a93          	add	s5,s5,1
    9598:	01698c33          	add	s8,s3,s6
    959c:	01340433          	add	s0,s0,s3
    95a0:	019a0a33          	add	s4,s4,s9
    95a4:	f93a9ae3          	bne	s5,s3,9538 <core_init_matrix+0xd0>
    95a8:	04012903          	lw	s2,64(sp)
    95ac:	03812a03          	lw	s4,56(sp)
    95b0:	03412a83          	lw	s5,52(sp)
    95b4:	03012b03          	lw	s6,48(sp)
    95b8:	02812c03          	lw	s8,40(sp)
    95bc:	02412c83          	lw	s9,36(sp)
    95c0:	00012703          	lw	a4,0(sp)
    95c4:	00412783          	lw	a5,4(sp)
    95c8:	00812683          	lw	a3,8(sp)
    95cc:	04c12083          	lw	ra,76(sp)
    95d0:	00f707b3          	add	a5,a4,a5
    95d4:	fff78793          	add	a5,a5,-1
    95d8:	ffc7f793          	and	a5,a5,-4
    95dc:	00478793          	add	a5,a5,4
    95e0:	00fd2623          	sw	a5,12(s10)
    95e4:	00c12783          	lw	a5,12(sp)
    95e8:	04812403          	lw	s0,72(sp)
    95ec:	00dd2223          	sw	a3,4(s10)
    95f0:	00ed2423          	sw	a4,8(s10)
    95f4:	00fd2023          	sw	a5,0(s10)
    95f8:	04412483          	lw	s1,68(sp)
    95fc:	02c12b83          	lw	s7,44(sp)
    9600:	02012d03          	lw	s10,32(sp)
    9604:	01c12d83          	lw	s11,28(sp)
    9608:	00098513          	mv	a0,s3
    960c:	03c12983          	lw	s3,60(sp)
    9610:	05010113          	add	sp,sp,80
    9614:	00008067          	ret
    9618:	00012223          	sw	zero,4(sp)
    961c:	fa5ff06f          	j	95c0 <core_init_matrix+0x158>
    9620:	fffb8b93          	add	s7,s7,-1
    9624:	ffcbfb93          	and	s7,s7,-4
    9628:	006b8793          	add	a5,s7,6
    962c:	00f12023          	sw	a5,0(sp)
    9630:	fff00793          	li	a5,-1
    9634:	004b8493          	add	s1,s7,4
    9638:	00f12623          	sw	a5,12(sp)
    963c:	00200793          	li	a5,2
    9640:	05212023          	sw	s2,64(sp)
    9644:	03412c23          	sw	s4,56(sp)
    9648:	03512a23          	sw	s5,52(sp)
    964c:	03612823          	sw	s6,48(sp)
    9650:	03812423          	sw	s8,40(sp)
    9654:	03912223          	sw	s9,36(sp)
    9658:	00912423          	sw	s1,8(sp)
    965c:	00f12223          	sw	a5,4(sp)
    9660:	fff00993          	li	s3,-1
    9664:	eb1ff06f          	j	9514 <core_init_matrix+0xac>

00009668 <matrix_sum>:
    9668:	00050e93          	mv	t4,a0
    966c:	08050463          	beqz	a0,96f4 <matrix_sum+0x8c>
    9670:	00251f93          	sll	t6,a0,0x2
    9674:	40a00f33          	neg	t5,a0
    9678:	01f588b3          	add	a7,a1,t6
    967c:	00000e13          	li	t3,0
    9680:	00000513          	li	a0,0
    9684:	00000713          	li	a4,0
    9688:	00000593          	li	a1,0
    968c:	003f1f13          	sll	t5,t5,0x3
    9690:	41f88333          	sub	t1,a7,t6
    9694:	00030793          	mv	a5,t1
    9698:	0140006f          	j	96ac <matrix_sum+0x44>
    969c:	01051513          	sll	a0,a0,0x10
    96a0:	00478793          	add	a5,a5,4
    96a4:	41055513          	sra	a0,a0,0x10
    96a8:	02f88e63          	beq	a7,a5,96e4 <matrix_sum+0x7c>
    96ac:	00070693          	mv	a3,a4
    96b0:	0007a703          	lw	a4,0(a5)
    96b4:	01051513          	sll	a0,a0,0x10
    96b8:	01055513          	srl	a0,a0,0x10
    96bc:	00e6a6b3          	slt	a3,a3,a4
    96c0:	00e585b3          	add	a1,a1,a4
    96c4:	00a50813          	add	a6,a0,10
    96c8:	00d50533          	add	a0,a0,a3
    96cc:	fcb658e3          	bge	a2,a1,969c <matrix_sum+0x34>
    96d0:	01081513          	sll	a0,a6,0x10
    96d4:	00478793          	add	a5,a5,4
    96d8:	41055513          	sra	a0,a0,0x10
    96dc:	00000593          	li	a1,0
    96e0:	fcf896e3          	bne	a7,a5,96ac <matrix_sum+0x44>
    96e4:	001e0e13          	add	t3,t3,1
    96e8:	41e308b3          	sub	a7,t1,t5
    96ec:	fbce92e3          	bne	t4,t3,9690 <matrix_sum+0x28>
    96f0:	00008067          	ret
    96f4:	00000513          	li	a0,0
    96f8:	00008067          	ret

000096fc <matrix_mul_const>:
    96fc:	0c050863          	beqz	a0,97cc <matrix_mul_const+0xd0>
    9700:	fd010113          	add	sp,sp,-48
    9704:	01812423          	sw	s8,8(sp)
    9708:	01a12023          	sw	s10,0(sp)
    970c:	40a00c33          	neg	s8,a0
    9710:	00151d13          	sll	s10,a0,0x1
    9714:	03212023          	sw	s2,32(sp)
    9718:	01312e23          	sw	s3,28(sp)
    971c:	01512a23          	sw	s5,20(sp)
    9720:	01612823          	sw	s6,16(sp)
    9724:	01712623          	sw	s7,12(sp)
    9728:	01912223          	sw	s9,4(sp)
    972c:	02112623          	sw	ra,44(sp)
    9730:	02812423          	sw	s0,40(sp)
    9734:	02912223          	sw	s1,36(sp)
    9738:	01412c23          	sw	s4,24(sp)
    973c:	00050b93          	mv	s7,a0
    9740:	00058c93          	mv	s9,a1
    9744:	00068993          	mv	s3,a3
    9748:	01a60933          	add	s2,a2,s10
    974c:	00000a93          	li	s5,0
    9750:	00000b13          	li	s6,0
    9754:	002c1c13          	sll	s8,s8,0x2
    9758:	41a90a33          	sub	s4,s2,s10
    975c:	002a9493          	sll	s1,s5,0x2
    9760:	009c84b3          	add	s1,s9,s1
    9764:	000a0413          	mv	s0,s4
    9768:	00041503          	lh	a0,0(s0)
    976c:	00098593          	mv	a1,s3
    9770:	00240413          	add	s0,s0,2
    9774:	3d0030ef          	jal	cb44 <__mulsi3>
    9778:	00a4a023          	sw	a0,0(s1)
    977c:	00448493          	add	s1,s1,4
    9780:	fe8914e3          	bne	s2,s0,9768 <matrix_mul_const+0x6c>
    9784:	001b0b13          	add	s6,s6,1
    9788:	017a8ab3          	add	s5,s5,s7
    978c:	418a0933          	sub	s2,s4,s8
    9790:	fd6b94e3          	bne	s7,s6,9758 <matrix_mul_const+0x5c>
    9794:	02c12083          	lw	ra,44(sp)
    9798:	02812403          	lw	s0,40(sp)
    979c:	02412483          	lw	s1,36(sp)
    97a0:	02012903          	lw	s2,32(sp)
    97a4:	01c12983          	lw	s3,28(sp)
    97a8:	01812a03          	lw	s4,24(sp)
    97ac:	01412a83          	lw	s5,20(sp)
    97b0:	01012b03          	lw	s6,16(sp)
    97b4:	00c12b83          	lw	s7,12(sp)
    97b8:	00812c03          	lw	s8,8(sp)
    97bc:	00412c83          	lw	s9,4(sp)
    97c0:	00012d03          	lw	s10,0(sp)
    97c4:	03010113          	add	sp,sp,48
    97c8:	00008067          	ret
    97cc:	00008067          	ret

000097d0 <matrix_add_const>:
    97d0:	04050463          	beqz	a0,9818 <matrix_add_const+0x48>
    97d4:	00151313          	sll	t1,a0,0x1
    97d8:	40a008b3          	neg	a7,a0
    97dc:	01061613          	sll	a2,a2,0x10
    97e0:	01065613          	srl	a2,a2,0x10
    97e4:	006586b3          	add	a3,a1,t1
    97e8:	00000813          	li	a6,0
    97ec:	00289893          	sll	a7,a7,0x2
    97f0:	406685b3          	sub	a1,a3,t1
    97f4:	00058793          	mv	a5,a1
    97f8:	0007d703          	lhu	a4,0(a5)
    97fc:	00278793          	add	a5,a5,2
    9800:	00e60733          	add	a4,a2,a4
    9804:	fee79f23          	sh	a4,-2(a5)
    9808:	fef698e3          	bne	a3,a5,97f8 <matrix_add_const+0x28>
    980c:	00180813          	add	a6,a6,1
    9810:	411586b3          	sub	a3,a1,a7
    9814:	fd051ee3          	bne	a0,a6,97f0 <matrix_add_const+0x20>
    9818:	00008067          	ret

0000981c <matrix_mul_vect>:
    981c:	0c050463          	beqz	a0,98e4 <matrix_mul_vect+0xc8>
    9820:	fd010113          	add	sp,sp,-48
    9824:	01312e23          	sw	s3,28(sp)
    9828:	01712623          	sw	s7,12(sp)
    982c:	00151993          	sll	s3,a0,0x1
    9830:	00251b93          	sll	s7,a0,0x2
    9834:	01412c23          	sw	s4,24(sp)
    9838:	01512a23          	sw	s5,20(sp)
    983c:	01612823          	sw	s6,16(sp)
    9840:	01812423          	sw	s8,8(sp)
    9844:	01912223          	sw	s9,4(sp)
    9848:	02112623          	sw	ra,44(sp)
    984c:	02812423          	sw	s0,40(sp)
    9850:	02912223          	sw	s1,36(sp)
    9854:	03212023          	sw	s2,32(sp)
    9858:	00050a93          	mv	s5,a0
    985c:	00060c13          	mv	s8,a2
    9860:	00068b13          	mv	s6,a3
    9864:	00058a13          	mv	s4,a1
    9868:	01758bb3          	add	s7,a1,s7
    986c:	013689b3          	add	s3,a3,s3
    9870:	00000c93          	li	s9,0
    9874:	001c9493          	sll	s1,s9,0x1
    9878:	009c04b3          	add	s1,s8,s1
    987c:	000b0413          	mv	s0,s6
    9880:	00000913          	li	s2,0
    9884:	00041583          	lh	a1,0(s0)
    9888:	00049503          	lh	a0,0(s1)
    988c:	00240413          	add	s0,s0,2
    9890:	00248493          	add	s1,s1,2
    9894:	2b0030ef          	jal	cb44 <__mulsi3>
    9898:	00a90933          	add	s2,s2,a0
    989c:	fe8994e3          	bne	s3,s0,9884 <matrix_mul_vect+0x68>
    98a0:	012a2023          	sw	s2,0(s4)
    98a4:	004a0a13          	add	s4,s4,4
    98a8:	015c8cb3          	add	s9,s9,s5
    98ac:	fd4b94e3          	bne	s7,s4,9874 <matrix_mul_vect+0x58>
    98b0:	02c12083          	lw	ra,44(sp)
    98b4:	02812403          	lw	s0,40(sp)
    98b8:	02412483          	lw	s1,36(sp)
    98bc:	02012903          	lw	s2,32(sp)
    98c0:	01c12983          	lw	s3,28(sp)
    98c4:	01812a03          	lw	s4,24(sp)
    98c8:	01412a83          	lw	s5,20(sp)
    98cc:	01012b03          	lw	s6,16(sp)
    98d0:	00c12b83          	lw	s7,12(sp)
    98d4:	00812c03          	lw	s8,8(sp)
    98d8:	00412c83          	lw	s9,4(sp)
    98dc:	03010113          	add	sp,sp,48
    98e0:	00008067          	ret
    98e4:	00008067          	ret

000098e8 <matrix_mul_matrix>:
    98e8:	fb010113          	add	sp,sp,-80
    98ec:	04112623          	sw	ra,76(sp)
    98f0:	00b12423          	sw	a1,8(sp)
    98f4:	00d12623          	sw	a3,12(sp)
    98f8:	0e050863          	beqz	a0,99e8 <matrix_mul_matrix+0x100>
    98fc:	04912223          	sw	s1,68(sp)
    9900:	00151493          	sll	s1,a0,0x1
    9904:	05212023          	sw	s2,64(sp)
    9908:	03612823          	sw	s6,48(sp)
    990c:	03712623          	sw	s7,44(sp)
    9910:	03812423          	sw	s8,40(sp)
    9914:	03912223          	sw	s9,36(sp)
    9918:	04812423          	sw	s0,72(sp)
    991c:	03312e23          	sw	s3,60(sp)
    9920:	03412c23          	sw	s4,56(sp)
    9924:	03512a23          	sw	s5,52(sp)
    9928:	03a12023          	sw	s10,32(sp)
    992c:	01b12e23          	sw	s11,28(sp)
    9930:	00050b93          	mv	s7,a0
    9934:	00060b13          	mv	s6,a2
    9938:	00960933          	add	s2,a2,s1
    993c:	00000c13          	li	s8,0
    9940:	00000c93          	li	s9,0
    9944:	00812783          	lw	a5,8(sp)
    9948:	00c12a03          	lw	s4,12(sp)
    994c:	002c1993          	sll	s3,s8,0x2
    9950:	013789b3          	add	s3,a5,s3
    9954:	00000a93          	li	s5,0
    9958:	000a0d93          	mv	s11,s4
    995c:	000b0413          	mv	s0,s6
    9960:	00000d13          	li	s10,0
    9964:	000d9583          	lh	a1,0(s11)
    9968:	00041503          	lh	a0,0(s0)
    996c:	00240413          	add	s0,s0,2
    9970:	009d8db3          	add	s11,s11,s1
    9974:	1d0030ef          	jal	cb44 <__mulsi3>
    9978:	00ad0d33          	add	s10,s10,a0
    997c:	fe8914e3          	bne	s2,s0,9964 <matrix_mul_matrix+0x7c>
    9980:	01a9a023          	sw	s10,0(s3)
    9984:	001a8793          	add	a5,s5,1
    9988:	00498993          	add	s3,s3,4
    998c:	002a0a13          	add	s4,s4,2
    9990:	00fb8663          	beq	s7,a5,999c <matrix_mul_matrix+0xb4>
    9994:	00078a93          	mv	s5,a5
    9998:	fc1ff06f          	j	9958 <matrix_mul_matrix+0x70>
    999c:	001c8793          	add	a5,s9,1
    99a0:	009b0b33          	add	s6,s6,s1
    99a4:	017c0c33          	add	s8,s8,s7
    99a8:	00990933          	add	s2,s2,s1
    99ac:	015c8663          	beq	s9,s5,99b8 <matrix_mul_matrix+0xd0>
    99b0:	00078c93          	mv	s9,a5
    99b4:	f91ff06f          	j	9944 <matrix_mul_matrix+0x5c>
    99b8:	04812403          	lw	s0,72(sp)
    99bc:	04412483          	lw	s1,68(sp)
    99c0:	04012903          	lw	s2,64(sp)
    99c4:	03c12983          	lw	s3,60(sp)
    99c8:	03812a03          	lw	s4,56(sp)
    99cc:	03412a83          	lw	s5,52(sp)
    99d0:	03012b03          	lw	s6,48(sp)
    99d4:	02c12b83          	lw	s7,44(sp)
    99d8:	02812c03          	lw	s8,40(sp)
    99dc:	02412c83          	lw	s9,36(sp)
    99e0:	02012d03          	lw	s10,32(sp)
    99e4:	01c12d83          	lw	s11,28(sp)
    99e8:	04c12083          	lw	ra,76(sp)
    99ec:	05010113          	add	sp,sp,80
    99f0:	00008067          	ret

000099f4 <matrix_mul_matrix_bitextract>:
    99f4:	fb010113          	add	sp,sp,-80
    99f8:	04112623          	sw	ra,76(sp)
    99fc:	00b12423          	sw	a1,8(sp)
    9a00:	00d12623          	sw	a3,12(sp)
    9a04:	10050263          	beqz	a0,9b08 <matrix_mul_matrix_bitextract+0x114>
    9a08:	04812423          	sw	s0,72(sp)
    9a0c:	00151413          	sll	s0,a0,0x1
    9a10:	04912223          	sw	s1,68(sp)
    9a14:	03512a23          	sw	s5,52(sp)
    9a18:	03612823          	sw	s6,48(sp)
    9a1c:	03712623          	sw	s7,44(sp)
    9a20:	03812423          	sw	s8,40(sp)
    9a24:	05212023          	sw	s2,64(sp)
    9a28:	03312e23          	sw	s3,60(sp)
    9a2c:	03412c23          	sw	s4,56(sp)
    9a30:	03912223          	sw	s9,36(sp)
    9a34:	03a12023          	sw	s10,32(sp)
    9a38:	01b12e23          	sw	s11,28(sp)
    9a3c:	00050b13          	mv	s6,a0
    9a40:	00060a93          	mv	s5,a2
    9a44:	008604b3          	add	s1,a2,s0
    9a48:	00000b93          	li	s7,0
    9a4c:	00000c13          	li	s8,0
    9a50:	00812783          	lw	a5,8(sp)
    9a54:	00c12983          	lw	s3,12(sp)
    9a58:	002b9913          	sll	s2,s7,0x2
    9a5c:	01278933          	add	s2,a5,s2
    9a60:	00000a13          	li	s4,0
    9a64:	00098d13          	mv	s10,s3
    9a68:	000a8d93          	mv	s11,s5
    9a6c:	00000c93          	li	s9,0
    9a70:	000d1583          	lh	a1,0(s10)
    9a74:	000d9503          	lh	a0,0(s11)
    9a78:	002d8d93          	add	s11,s11,2
    9a7c:	008d0d33          	add	s10,s10,s0
    9a80:	0c4030ef          	jal	cb44 <__mulsi3>
    9a84:	40255693          	sra	a3,a0,0x2
    9a88:	40555593          	sra	a1,a0,0x5
    9a8c:	07f5f593          	and	a1,a1,127
    9a90:	00f6f513          	and	a0,a3,15
    9a94:	0b0030ef          	jal	cb44 <__mulsi3>
    9a98:	00ac8cb3          	add	s9,s9,a0
    9a9c:	fdb49ae3          	bne	s1,s11,9a70 <matrix_mul_matrix_bitextract+0x7c>
    9aa0:	01992023          	sw	s9,0(s2)
    9aa4:	001a0793          	add	a5,s4,1
    9aa8:	00490913          	add	s2,s2,4
    9aac:	00298993          	add	s3,s3,2
    9ab0:	00fb0663          	beq	s6,a5,9abc <matrix_mul_matrix_bitextract+0xc8>
    9ab4:	00078a13          	mv	s4,a5
    9ab8:	fadff06f          	j	9a64 <matrix_mul_matrix_bitextract+0x70>
    9abc:	001c0793          	add	a5,s8,1
    9ac0:	008a8ab3          	add	s5,s5,s0
    9ac4:	016b8bb3          	add	s7,s7,s6
    9ac8:	008484b3          	add	s1,s1,s0
    9acc:	014c0663          	beq	s8,s4,9ad8 <matrix_mul_matrix_bitextract+0xe4>
    9ad0:	00078c13          	mv	s8,a5
    9ad4:	f7dff06f          	j	9a50 <matrix_mul_matrix_bitextract+0x5c>
    9ad8:	04812403          	lw	s0,72(sp)
    9adc:	04412483          	lw	s1,68(sp)
    9ae0:	04012903          	lw	s2,64(sp)
    9ae4:	03c12983          	lw	s3,60(sp)
    9ae8:	03812a03          	lw	s4,56(sp)
    9aec:	03412a83          	lw	s5,52(sp)
    9af0:	03012b03          	lw	s6,48(sp)
    9af4:	02c12b83          	lw	s7,44(sp)
    9af8:	02812c03          	lw	s8,40(sp)
    9afc:	02412c83          	lw	s9,36(sp)
    9b00:	02012d03          	lw	s10,32(sp)
    9b04:	01c12d83          	lw	s11,28(sp)
    9b08:	04c12083          	lw	ra,76(sp)
    9b0c:	05010113          	add	sp,sp,80
    9b10:	00008067          	ret

00009b14 <core_init_state>:
    9b14:	fff50313          	add	t1,a0,-1
    9b18:	00100793          	li	a5,1
    9b1c:	2667fc63          	bgeu	a5,t1,9d94 <core_init_state+0x280>
    9b20:	00158593          	add	a1,a1,1
    9b24:	01059713          	sll	a4,a1,0x10
    9b28:	01075713          	srl	a4,a4,0x10
    9b2c:	000108b7          	lui	a7,0x10
    9b30:	00375793          	srl	a5,a4,0x3
    9b34:	00700e13          	li	t3,7
    9b38:	00777693          	and	a3,a4,7
    9b3c:	00000593          	li	a1,0
    9b40:	00088893          	mv	a7,a7
    9b44:	00400e93          	li	t4,4
    9b48:	00100f13          	li	t5,1
    9b4c:	02c00f93          	li	t6,44
    9b50:	0037f793          	and	a5,a5,3
    9b54:	09c68463          	beq	a3,t3,9bdc <core_init_state+0xc8>
    9b58:	20dee263          	bltu	t4,a3,9d5c <core_init_state+0x248>
    9b5c:	ffd68693          	add	a3,a3,-3
    9b60:	01069693          	sll	a3,a3,0x10
    9b64:	00279793          	sll	a5,a5,0x2
    9b68:	0106d693          	srl	a3,a3,0x10
    9b6c:	00f887b3          	add	a5,a7,a5
    9b70:	16df6c63          	bltu	t5,a3,9ce8 <core_init_state+0x1d4>
    9b74:	0107a683          	lw	a3,16(a5)
    9b78:	00170713          	add	a4,a4,1
    9b7c:	01071713          	sll	a4,a4,0x10
    9b80:	00958293          	add	t0,a1,9
    9b84:	01075713          	srl	a4,a4,0x10
    9b88:	0662fa63          	bgeu	t0,t1,9bfc <core_init_state+0xe8>
    9b8c:	00b607b3          	add	a5,a2,a1
    9b90:	00d7e833          	or	a6,a5,a3
    9b94:	00387813          	and	a6,a6,3
    9b98:	1e081063          	bnez	a6,9d78 <core_init_state+0x264>
    9b9c:	00168813          	add	a6,a3,1
    9ba0:	41078833          	sub	a6,a5,a6
    9ba4:	00383813          	sltiu	a6,a6,3
    9ba8:	1c081863          	bnez	a6,9d78 <core_init_state+0x264>
    9bac:	0006a803          	lw	a6,0(a3)
    9bb0:	00800593          	li	a1,8
    9bb4:	0107a023          	sw	a6,0(a5)
    9bb8:	0046a683          	lw	a3,4(a3)
    9bbc:	00d7a223          	sw	a3,4(a5)
    9bc0:	00b785b3          	add	a1,a5,a1
    9bc4:	01f58023          	sb	t6,0(a1)
    9bc8:	00375793          	srl	a5,a4,0x3
    9bcc:	00777693          	and	a3,a4,7
    9bd0:	00028593          	mv	a1,t0
    9bd4:	0037f793          	and	a5,a5,3
    9bd8:	f9c690e3          	bne	a3,t3,9b58 <core_init_state+0x44>
    9bdc:	00279793          	sll	a5,a5,0x2
    9be0:	00170713          	add	a4,a4,1
    9be4:	00f887b3          	add	a5,a7,a5
    9be8:	01071713          	sll	a4,a4,0x10
    9bec:	00958293          	add	t0,a1,9
    9bf0:	0307a683          	lw	a3,48(a5)
    9bf4:	01075713          	srl	a4,a4,0x10
    9bf8:	f862eae3          	bltu	t0,t1,9b8c <core_init_state+0x78>
    9bfc:	16a5f863          	bgeu	a1,a0,9d6c <core_init_state+0x258>
    9c00:	00158693          	add	a3,a1,1
    9c04:	00068e13          	mv	t3,a3
    9c08:	40b50733          	sub	a4,a0,a1
    9c0c:	00d53eb3          	sltu	t4,a0,a3
    9c10:	00100893          	li	a7,1
    9c14:	14d57e63          	bgeu	a0,a3,9d70 <core_init_state+0x25c>
    9c18:	fff70713          	add	a4,a4,-1
    9c1c:	00b607b3          	add	a5,a2,a1
    9c20:	40f00333          	neg	t1,a5
    9c24:	00673813          	sltiu	a6,a4,6
    9c28:	00337713          	and	a4,t1,3
    9c2c:	06081463          	bnez	a6,9c94 <core_init_state+0x180>
    9c30:	060e9263          	bnez	t4,9c94 <core_init_state+0x180>
    9c34:	14070c63          	beqz	a4,9d8c <core_init_state+0x278>
    9c38:	00078023          	sb	zero,0(a5)
    9c3c:	00237313          	and	t1,t1,2
    9c40:	02030263          	beqz	t1,9c64 <core_init_state+0x150>
    9c44:	00d606b3          	add	a3,a2,a3
    9c48:	00068023          	sb	zero,0(a3)
    9c4c:	00300793          	li	a5,3
    9c50:	00258e13          	add	t3,a1,2
    9c54:	00f71863          	bne	a4,a5,9c64 <core_init_state+0x150>
    9c58:	01c60e33          	add	t3,a2,t3
    9c5c:	000e0023          	sb	zero,0(t3)
    9c60:	00358e13          	add	t3,a1,3
    9c64:	40e886b3          	sub	a3,a7,a4
    9c68:	00e587b3          	add	a5,a1,a4
    9c6c:	00f607b3          	add	a5,a2,a5
    9c70:	ffc6f813          	and	a6,a3,-4
    9c74:	01078733          	add	a4,a5,a6
    9c78:	0007a023          	sw	zero,0(a5)
    9c7c:	00478793          	add	a5,a5,4
    9c80:	fef71ce3          	bne	a4,a5,9c78 <core_init_state+0x164>
    9c84:	01c805b3          	add	a1,a6,t3
    9c88:	0ed80263          	beq	a6,a3,9d6c <core_init_state+0x258>
    9c8c:	00158693          	add	a3,a1,1
    9c90:	00b607b3          	add	a5,a2,a1
    9c94:	00078023          	sb	zero,0(a5)
    9c98:	0ca6fa63          	bgeu	a3,a0,9d6c <core_init_state+0x258>
    9c9c:	00d606b3          	add	a3,a2,a3
    9ca0:	00068023          	sb	zero,0(a3)
    9ca4:	00258793          	add	a5,a1,2
    9ca8:	0ca7f263          	bgeu	a5,a0,9d6c <core_init_state+0x258>
    9cac:	00f607b3          	add	a5,a2,a5
    9cb0:	00078023          	sb	zero,0(a5)
    9cb4:	00358793          	add	a5,a1,3
    9cb8:	0aa7fa63          	bgeu	a5,a0,9d6c <core_init_state+0x258>
    9cbc:	00f607b3          	add	a5,a2,a5
    9cc0:	00078023          	sb	zero,0(a5)
    9cc4:	00458793          	add	a5,a1,4
    9cc8:	0aa7f263          	bgeu	a5,a0,9d6c <core_init_state+0x258>
    9ccc:	00f607b3          	add	a5,a2,a5
    9cd0:	00078023          	sb	zero,0(a5)
    9cd4:	00558593          	add	a1,a1,5
    9cd8:	08a5fa63          	bgeu	a1,a0,9d6c <core_init_state+0x258>
    9cdc:	00b605b3          	add	a1,a2,a1
    9ce0:	00058023          	sb	zero,0(a1)
    9ce4:	00008067          	ret
    9ce8:	00170713          	add	a4,a4,1
    9cec:	01071713          	sll	a4,a4,0x10
    9cf0:	00558293          	add	t0,a1,5
    9cf4:	0007a683          	lw	a3,0(a5)
    9cf8:	00158813          	add	a6,a1,1
    9cfc:	01075713          	srl	a4,a4,0x10
    9d00:	ee62fee3          	bgeu	t0,t1,9bfc <core_init_state+0xe8>
    9d04:	0006c383          	lbu	t2,0(a3)
    9d08:	00b607b3          	add	a5,a2,a1
    9d0c:	00400593          	li	a1,4
    9d10:	00778023          	sb	t2,0(a5)
    9d14:	0016c383          	lbu	t2,1(a3)
    9d18:	01060833          	add	a6,a2,a6
    9d1c:	00780023          	sb	t2,0(a6)
    9d20:	0026c803          	lbu	a6,2(a3)
    9d24:	01078123          	sb	a6,2(a5)
    9d28:	0036c803          	lbu	a6,3(a3)
    9d2c:	010781a3          	sb	a6,3(a5)
    9d30:	e9d588e3          	beq	a1,t4,9bc0 <core_init_state+0xac>
    9d34:	0046c803          	lbu	a6,4(a3)
    9d38:	00800593          	li	a1,8
    9d3c:	01078223          	sb	a6,4(a5)
    9d40:	0056c803          	lbu	a6,5(a3)
    9d44:	010782a3          	sb	a6,5(a5)
    9d48:	0066c803          	lbu	a6,6(a3)
    9d4c:	01078323          	sb	a6,6(a5)
    9d50:	0076c683          	lbu	a3,7(a3)
    9d54:	00d783a3          	sb	a3,7(a5)
    9d58:	e69ff06f          	j	9bc0 <core_init_state+0xac>
    9d5c:	00279793          	sll	a5,a5,0x2
    9d60:	00f887b3          	add	a5,a7,a5
    9d64:	0207a683          	lw	a3,32(a5)
    9d68:	e11ff06f          	j	9b78 <core_init_state+0x64>
    9d6c:	00008067          	ret
    9d70:	00070893          	mv	a7,a4
    9d74:	ea5ff06f          	j	9c18 <core_init_state+0x104>
    9d78:	0006c383          	lbu	t2,0(a3)
    9d7c:	00158813          	add	a6,a1,1
    9d80:	00800593          	li	a1,8
    9d84:	00778023          	sb	t2,0(a5)
    9d88:	f8dff06f          	j	9d14 <core_init_state+0x200>
    9d8c:	00058e13          	mv	t3,a1
    9d90:	ed5ff06f          	j	9c64 <core_init_state+0x150>
    9d94:	00000593          	li	a1,0
    9d98:	00100693          	li	a3,1
    9d9c:	00060793          	mv	a5,a2
    9da0:	ef5ff06f          	j	9c94 <core_init_state+0x180>

00009da4 <core_state_transition>:
    9da4:	00052783          	lw	a5,0(a0)
    9da8:	00050813          	mv	a6,a0
    9dac:	0007c703          	lbu	a4,0(a5)
    9db0:	28070263          	beqz	a4,a034 <core_state_transition+0x290>
    9db4:	02c00693          	li	a3,44
    9db8:	00000513          	li	a0,0
    9dbc:	20d70a63          	beq	a4,a3,9fd0 <core_state_transition+0x22c>
    9dc0:	02e00513          	li	a0,46
    9dc4:	22a70663          	beq	a4,a0,9ff0 <core_state_transition+0x24c>
    9dc8:	1ce56a63          	bltu	a0,a4,9f9c <core_state_transition+0x1f8>
    9dcc:	fd570713          	add	a4,a4,-43
    9dd0:	0fd77713          	and	a4,a4,253
    9dd4:	02070663          	beqz	a4,9e00 <core_state_transition+0x5c>
    9dd8:	0045a683          	lw	a3,4(a1)
    9ddc:	0005a703          	lw	a4,0(a1)
    9de0:	00178793          	add	a5,a5,1
    9de4:	00168693          	add	a3,a3,1
    9de8:	00170713          	add	a4,a4,1
    9dec:	00d5a223          	sw	a3,4(a1)
    9df0:	00e5a023          	sw	a4,0(a1)
    9df4:	00100513          	li	a0,1
    9df8:	00f82023          	sw	a5,0(a6)
    9dfc:	00008067          	ret
    9e00:	0005a703          	lw	a4,0(a1)
    9e04:	00178613          	add	a2,a5,1
    9e08:	00170713          	add	a4,a4,1
    9e0c:	00e5a023          	sw	a4,0(a1)
    9e10:	0017c883          	lbu	a7,1(a5)
    9e14:	26088663          	beqz	a7,a080 <core_state_transition+0x2dc>
    9e18:	20d88663          	beq	a7,a3,a024 <core_state_transition+0x280>
    9e1c:	0085a683          	lw	a3,8(a1)
    9e20:	fd088713          	add	a4,a7,-48 # ffd0 <main+0x33b4>
    9e24:	0ff77713          	zext.b	a4,a4
    9e28:	00900313          	li	t1,9
    9e2c:	00168693          	add	a3,a3,1
    9e30:	00e37e63          	bgeu	t1,a4,9e4c <core_state_transition+0xa8>
    9e34:	1ea88463          	beq	a7,a0,a01c <core_state_transition+0x278>
    9e38:	00d5a423          	sw	a3,8(a1)
    9e3c:	00278793          	add	a5,a5,2
    9e40:	00100513          	li	a0,1
    9e44:	00f82023          	sw	a5,0(a6)
    9e48:	00008067          	ret
    9e4c:	00d5a423          	sw	a3,8(a1)
    9e50:	00164783          	lbu	a5,1(a2)
    9e54:	00160613          	add	a2,a2,1
    9e58:	1e078263          	beqz	a5,a03c <core_state_transition+0x298>
    9e5c:	02c00713          	li	a4,44
    9e60:	16e78463          	beq	a5,a4,9fc8 <core_state_transition+0x224>
    9e64:	02e00713          	li	a4,46
    9e68:	02e78863          	beq	a5,a4,9e98 <core_state_transition+0xf4>
    9e6c:	fd078793          	add	a5,a5,-48
    9e70:	0ff7f793          	zext.b	a5,a5
    9e74:	00900713          	li	a4,9
    9e78:	fcf77ce3          	bgeu	a4,a5,9e50 <core_state_transition+0xac>
    9e7c:	0105a703          	lw	a4,16(a1)
    9e80:	00160793          	add	a5,a2,1
    9e84:	00100513          	li	a0,1
    9e88:	00170713          	add	a4,a4,1
    9e8c:	00e5a823          	sw	a4,16(a1)
    9e90:	00f82023          	sw	a5,0(a6)
    9e94:	00008067          	ret
    9e98:	0105a783          	lw	a5,16(a1)
    9e9c:	00178793          	add	a5,a5,1
    9ea0:	00f5a823          	sw	a5,16(a1)
    9ea4:	0140006f          	j	9eb8 <core_state_transition+0x114>
    9ea8:	fd078793          	add	a5,a5,-48
    9eac:	0ff7f793          	zext.b	a5,a5
    9eb0:	00900713          	li	a4,9
    9eb4:	12f76263          	bltu	a4,a5,9fd8 <core_state_transition+0x234>
    9eb8:	00164783          	lbu	a5,1(a2)
    9ebc:	00160613          	add	a2,a2,1
    9ec0:	1a078a63          	beqz	a5,a074 <core_state_transition+0x2d0>
    9ec4:	02c00713          	li	a4,44
    9ec8:	14e78263          	beq	a5,a4,a00c <core_state_transition+0x268>
    9ecc:	0df7f713          	and	a4,a5,223
    9ed0:	04500693          	li	a3,69
    9ed4:	fcd71ae3          	bne	a4,a3,9ea8 <core_state_transition+0x104>
    9ed8:	0145a703          	lw	a4,20(a1)
    9edc:	00160793          	add	a5,a2,1
    9ee0:	00300513          	li	a0,3
    9ee4:	00170713          	add	a4,a4,1
    9ee8:	00e5aa23          	sw	a4,20(a1)
    9eec:	00164703          	lbu	a4,1(a2)
    9ef0:	f00704e3          	beqz	a4,9df8 <core_state_transition+0x54>
    9ef4:	02c00693          	li	a3,44
    9ef8:	14d70863          	beq	a4,a3,a048 <core_state_transition+0x2a4>
    9efc:	00c5a783          	lw	a5,12(a1)
    9f00:	fd570713          	add	a4,a4,-43
    9f04:	0fd77713          	and	a4,a4,253
    9f08:	00178793          	add	a5,a5,1
    9f0c:	00f5a623          	sw	a5,12(a1)
    9f10:	00100513          	li	a0,1
    9f14:	00260793          	add	a5,a2,2
    9f18:	ee0710e3          	bnez	a4,9df8 <core_state_transition+0x54>
    9f1c:	00264703          	lbu	a4,2(a2)
    9f20:	00260793          	add	a5,a2,2
    9f24:	00600513          	li	a0,6
    9f28:	ec0708e3          	beqz	a4,9df8 <core_state_transition+0x54>
    9f2c:	12d70463          	beq	a4,a3,a054 <core_state_transition+0x2b0>
    9f30:	0185a683          	lw	a3,24(a1)
    9f34:	fd070713          	add	a4,a4,-48
    9f38:	0ff77713          	zext.b	a4,a4
    9f3c:	00168693          	add	a3,a3,1
    9f40:	00900513          	li	a0,9
    9f44:	00d5ac23          	sw	a3,24(a1)
    9f48:	00e57a63          	bgeu	a0,a4,9f5c <core_state_transition+0x1b8>
    9f4c:	00360793          	add	a5,a2,3
    9f50:	00100513          	li	a0,1
    9f54:	00f82023          	sw	a5,0(a6)
    9f58:	00008067          	ret
    9f5c:	00900613          	li	a2,9
    9f60:	0017c683          	lbu	a3,1(a5)
    9f64:	00078513          	mv	a0,a5
    9f68:	02c00893          	li	a7,44
    9f6c:	fd068713          	add	a4,a3,-48
    9f70:	00178793          	add	a5,a5,1
    9f74:	0ff77713          	zext.b	a4,a4
    9f78:	0e068463          	beqz	a3,a060 <core_state_transition+0x2bc>
    9f7c:	0f168663          	beq	a3,a7,a068 <core_state_transition+0x2c4>
    9f80:	fee670e3          	bgeu	a2,a4,9f60 <core_state_transition+0x1bc>
    9f84:	0045a703          	lw	a4,4(a1)
    9f88:	00250793          	add	a5,a0,2
    9f8c:	00100513          	li	a0,1
    9f90:	00170713          	add	a4,a4,1
    9f94:	00e5a223          	sw	a4,4(a1)
    9f98:	e61ff06f          	j	9df8 <core_state_transition+0x54>
    9f9c:	fd070713          	add	a4,a4,-48
    9fa0:	0ff77713          	zext.b	a4,a4
    9fa4:	00900613          	li	a2,9
    9fa8:	e2e668e3          	bltu	a2,a4,9dd8 <core_state_transition+0x34>
    9fac:	0005a703          	lw	a4,0(a1)
    9fb0:	00178613          	add	a2,a5,1
    9fb4:	00170713          	add	a4,a4,1
    9fb8:	00e5a023          	sw	a4,0(a1)
    9fbc:	0017c783          	lbu	a5,1(a5)
    9fc0:	06078e63          	beqz	a5,a03c <core_state_transition+0x298>
    9fc4:	ead790e3          	bne	a5,a3,9e64 <core_state_transition+0xc0>
    9fc8:	00060793          	mv	a5,a2
    9fcc:	00400513          	li	a0,4
    9fd0:	00178793          	add	a5,a5,1
    9fd4:	e25ff06f          	j	9df8 <core_state_transition+0x54>
    9fd8:	0145a703          	lw	a4,20(a1)
    9fdc:	00160793          	add	a5,a2,1
    9fe0:	00100513          	li	a0,1
    9fe4:	00170713          	add	a4,a4,1
    9fe8:	00e5aa23          	sw	a4,20(a1)
    9fec:	e0dff06f          	j	9df8 <core_state_transition+0x54>
    9ff0:	0005a703          	lw	a4,0(a1)
    9ff4:	00178613          	add	a2,a5,1
    9ff8:	00170713          	add	a4,a4,1
    9ffc:	00e5a023          	sw	a4,0(a1)
    a000:	0017c783          	lbu	a5,1(a5)
    a004:	06078863          	beqz	a5,a074 <core_state_transition+0x2d0>
    a008:	ecd792e3          	bne	a5,a3,9ecc <core_state_transition+0x128>
    a00c:	00060793          	mv	a5,a2
    a010:	00500513          	li	a0,5
    a014:	00178793          	add	a5,a5,1
    a018:	de1ff06f          	j	9df8 <core_state_transition+0x54>
    a01c:	00d5a423          	sw	a3,8(a1)
    a020:	e99ff06f          	j	9eb8 <core_state_transition+0x114>
    a024:	00060793          	mv	a5,a2
    a028:	00200513          	li	a0,2
    a02c:	00178793          	add	a5,a5,1
    a030:	dc9ff06f          	j	9df8 <core_state_transition+0x54>
    a034:	00000513          	li	a0,0
    a038:	dc1ff06f          	j	9df8 <core_state_transition+0x54>
    a03c:	00060793          	mv	a5,a2
    a040:	00400513          	li	a0,4
    a044:	db5ff06f          	j	9df8 <core_state_transition+0x54>
    a048:	00300513          	li	a0,3
    a04c:	00178793          	add	a5,a5,1
    a050:	da9ff06f          	j	9df8 <core_state_transition+0x54>
    a054:	00600513          	li	a0,6
    a058:	00178793          	add	a5,a5,1
    a05c:	d9dff06f          	j	9df8 <core_state_transition+0x54>
    a060:	00700513          	li	a0,7
    a064:	d95ff06f          	j	9df8 <core_state_transition+0x54>
    a068:	00700513          	li	a0,7
    a06c:	00178793          	add	a5,a5,1
    a070:	d89ff06f          	j	9df8 <core_state_transition+0x54>
    a074:	00060793          	mv	a5,a2
    a078:	00500513          	li	a0,5
    a07c:	d7dff06f          	j	9df8 <core_state_transition+0x54>
    a080:	00060793          	mv	a5,a2
    a084:	00200513          	li	a0,2
    a088:	d71ff06f          	j	9df8 <core_state_transition+0x54>

0000a08c <core_bench_state>:
    a08c:	f8010113          	add	sp,sp,-128
    a090:	06812c23          	sw	s0,120(sp)
    a094:	06912a23          	sw	s1,116(sp)
    a098:	07212823          	sw	s2,112(sp)
    a09c:	07312623          	sw	s3,108(sp)
    a0a0:	07412423          	sw	s4,104(sp)
    a0a4:	07512223          	sw	s5,100(sp)
    a0a8:	07612023          	sw	s6,96(sp)
    a0ac:	05712e23          	sw	s7,92(sp)
    a0b0:	06112e23          	sw	ra,124(sp)
    a0b4:	00058413          	mv	s0,a1
    a0b8:	0005c583          	lbu	a1,0(a1)
    a0bc:	00812623          	sw	s0,12(sp)
    a0c0:	02012823          	sw	zero,48(sp)
    a0c4:	00012823          	sw	zero,16(sp)
    a0c8:	02012a23          	sw	zero,52(sp)
    a0cc:	00012a23          	sw	zero,20(sp)
    a0d0:	02012c23          	sw	zero,56(sp)
    a0d4:	00012c23          	sw	zero,24(sp)
    a0d8:	02012e23          	sw	zero,60(sp)
    a0dc:	00012e23          	sw	zero,28(sp)
    a0e0:	04012023          	sw	zero,64(sp)
    a0e4:	02012023          	sw	zero,32(sp)
    a0e8:	04012223          	sw	zero,68(sp)
    a0ec:	02012223          	sw	zero,36(sp)
    a0f0:	04012423          	sw	zero,72(sp)
    a0f4:	02012423          	sw	zero,40(sp)
    a0f8:	04012623          	sw	zero,76(sp)
    a0fc:	02012623          	sw	zero,44(sp)
    a100:	00050b13          	mv	s6,a0
    a104:	00060b93          	mv	s7,a2
    a108:	00068a13          	mv	s4,a3
    a10c:	00070a93          	mv	s5,a4
    a110:	00078493          	mv	s1,a5
    a114:	03010913          	add	s2,sp,48
    a118:	00c10993          	add	s3,sp,12
    a11c:	18058663          	beqz	a1,a2a8 <core_bench_state+0x21c>
    a120:	00090593          	mv	a1,s2
    a124:	00098513          	mv	a0,s3
    a128:	c7dff0ef          	jal	9da4 <core_state_transition>
    a12c:	00251813          	sll	a6,a0,0x2
    a130:	05080793          	add	a5,a6,80
    a134:	00278833          	add	a6,a5,sp
    a138:	00c12703          	lw	a4,12(sp)
    a13c:	fc082783          	lw	a5,-64(a6)
    a140:	00074703          	lbu	a4,0(a4)
    a144:	00178793          	add	a5,a5,1
    a148:	fcf82023          	sw	a5,-64(a6)
    a14c:	fc071ae3          	bnez	a4,a120 <core_bench_state+0x94>
    a150:	00812623          	sw	s0,12(sp)
    a154:	01640b33          	add	s6,s0,s6
    a158:	03647c63          	bgeu	s0,s6,a190 <core_bench_state+0x104>
    a15c:	00100713          	li	a4,1
    a160:	00040793          	mv	a5,s0
    a164:	02c00613          	li	a2,44
    a168:	0eea9263          	bne	s5,a4,a24c <core_bench_state+0x1c0>
    a16c:	0007c703          	lbu	a4,0(a5)
    a170:	017746b3          	xor	a3,a4,s7
    a174:	00c70463          	beq	a4,a2,a17c <core_bench_state+0xf0>
    a178:	00d78023          	sb	a3,0(a5)
    a17c:	00178793          	add	a5,a5,1
    a180:	ff67e6e3          	bltu	a5,s6,a16c <core_bench_state+0xe0>
    a184:	00044783          	lbu	a5,0(s0)
    a188:	00c10993          	add	s3,sp,12
    a18c:	10078863          	beqz	a5,a29c <core_bench_state+0x210>
    a190:	00090593          	mv	a1,s2
    a194:	00098513          	mv	a0,s3
    a198:	c0dff0ef          	jal	9da4 <core_state_transition>
    a19c:	00251613          	sll	a2,a0,0x2
    a1a0:	05060793          	add	a5,a2,80
    a1a4:	00278633          	add	a2,a5,sp
    a1a8:	00c12703          	lw	a4,12(sp)
    a1ac:	fc062783          	lw	a5,-64(a2)
    a1b0:	00074703          	lbu	a4,0(a4)
    a1b4:	00178793          	add	a5,a5,1
    a1b8:	fcf62023          	sw	a5,-64(a2)
    a1bc:	fc071ae3          	bnez	a4,a190 <core_bench_state+0x104>
    a1c0:	00812623          	sw	s0,12(sp)
    a1c4:	03647663          	bgeu	s0,s6,a1f0 <core_bench_state+0x164>
    a1c8:	00100793          	li	a5,1
    a1cc:	0afa9663          	bne	s5,a5,a278 <core_bench_state+0x1ec>
    a1d0:	00040713          	mv	a4,s0
    a1d4:	02c00613          	li	a2,44
    a1d8:	00074783          	lbu	a5,0(a4)
    a1dc:	0147c6b3          	xor	a3,a5,s4
    a1e0:	00c78463          	beq	a5,a2,a1e8 <core_bench_state+0x15c>
    a1e4:	00d70023          	sb	a3,0(a4)
    a1e8:	00170713          	add	a4,a4,1
    a1ec:	ff6766e3          	bltu	a4,s6,a1d8 <core_bench_state+0x14c>
    a1f0:	01010413          	add	s0,sp,16
    a1f4:	00090993          	mv	s3,s2
    a1f8:	00042503          	lw	a0,0(s0)
    a1fc:	00048593          	mv	a1,s1
    a200:	00440413          	add	s0,s0,4
    a204:	488000ef          	jal	a68c <crcu32>
    a208:	00050593          	mv	a1,a0
    a20c:	0009a503          	lw	a0,0(s3)
    a210:	00498993          	add	s3,s3,4
    a214:	478000ef          	jal	a68c <crcu32>
    a218:	00050493          	mv	s1,a0
    a21c:	fd241ee3          	bne	s0,s2,a1f8 <core_bench_state+0x16c>
    a220:	07c12083          	lw	ra,124(sp)
    a224:	07812403          	lw	s0,120(sp)
    a228:	07412483          	lw	s1,116(sp)
    a22c:	07012903          	lw	s2,112(sp)
    a230:	06c12983          	lw	s3,108(sp)
    a234:	06812a03          	lw	s4,104(sp)
    a238:	06412a83          	lw	s5,100(sp)
    a23c:	06012b03          	lw	s6,96(sp)
    a240:	05c12b83          	lw	s7,92(sp)
    a244:	08010113          	add	sp,sp,128
    a248:	00008067          	ret
    a24c:	0007c703          	lbu	a4,0(a5)
    a250:	017746b3          	xor	a3,a4,s7
    a254:	00c70463          	beq	a4,a2,a25c <core_bench_state+0x1d0>
    a258:	00d78023          	sb	a3,0(a5)
    a25c:	015787b3          	add	a5,a5,s5
    a260:	ff67e6e3          	bltu	a5,s6,a24c <core_bench_state+0x1c0>
    a264:	00044783          	lbu	a5,0(s0)
    a268:	00c10993          	add	s3,sp,12
    a26c:	f20792e3          	bnez	a5,a190 <core_bench_state+0x104>
    a270:	00812623          	sw	s0,12(sp)
    a274:	f7647ee3          	bgeu	s0,s6,a1f0 <core_bench_state+0x164>
    a278:	00040713          	mv	a4,s0
    a27c:	02c00613          	li	a2,44
    a280:	00074783          	lbu	a5,0(a4)
    a284:	0147c6b3          	xor	a3,a5,s4
    a288:	00c78463          	beq	a5,a2,a290 <core_bench_state+0x204>
    a28c:	00d70023          	sb	a3,0(a4)
    a290:	01570733          	add	a4,a4,s5
    a294:	ff6766e3          	bltu	a4,s6,a280 <core_bench_state+0x1f4>
    a298:	f59ff06f          	j	a1f0 <core_bench_state+0x164>
    a29c:	00812623          	sw	s0,12(sp)
    a2a0:	f36468e3          	bltu	s0,s6,a1d0 <core_bench_state+0x144>
    a2a4:	f4dff06f          	j	a1f0 <core_bench_state+0x164>
    a2a8:	00a40b33          	add	s6,s0,a0
    a2ac:	eb6468e3          	bltu	s0,s6,a15c <core_bench_state+0xd0>
    a2b0:	f41ff06f          	j	a1f0 <core_bench_state+0x164>

0000a2b4 <get_seed_32>:
    a2b4:	00500793          	li	a5,5
    a2b8:	04a7ec63          	bltu	a5,a0,a310 <get_seed_32+0x5c>
    a2bc:	000107b7          	lui	a5,0x10
    a2c0:	04078793          	add	a5,a5,64 # 10040 <errpat+0x10>
    a2c4:	00251513          	sll	a0,a0,0x2
    a2c8:	00f50533          	add	a0,a0,a5
    a2cc:	00052783          	lw	a5,0(a0)
    a2d0:	00078067          	jr	a5
    a2d4:	000107b7          	lui	a5,0x10
    a2d8:	7707a503          	lw	a0,1904(a5) # 10770 <seed5_volatile>
    a2dc:	00008067          	ret
    a2e0:	000107b7          	lui	a5,0x10
    a2e4:	7807a503          	lw	a0,1920(a5) # 10780 <seed1_volatile>
    a2e8:	00008067          	ret
    a2ec:	000107b7          	lui	a5,0x10
    a2f0:	77c7a503          	lw	a0,1916(a5) # 1077c <seed2_volatile>
    a2f4:	00008067          	ret
    a2f8:	000107b7          	lui	a5,0x10
    a2fc:	7787a503          	lw	a0,1912(a5) # 10778 <seed3_volatile>
    a300:	00008067          	ret
    a304:	000107b7          	lui	a5,0x10
    a308:	7747a503          	lw	a0,1908(a5) # 10774 <seed4_volatile>
    a30c:	00008067          	ret
    a310:	00000513          	li	a0,0
    a314:	00008067          	ret

0000a318 <crcu8>:
    a318:	00b547b3          	xor	a5,a0,a1
    a31c:	0017f793          	and	a5,a5,1
    a320:	ffffa6b7          	lui	a3,0xffffa
    a324:	00168693          	add	a3,a3,1 # ffffa001 <stack_top+0xfffda001>
    a328:	40f007b3          	neg	a5,a5
    a32c:	00d7f7b3          	and	a5,a5,a3
    a330:	0015d593          	srl	a1,a1,0x1
    a334:	00b7c7b3          	xor	a5,a5,a1
    a338:	01079793          	sll	a5,a5,0x10
    a33c:	0107d793          	srl	a5,a5,0x10
    a340:	00155713          	srl	a4,a0,0x1
    a344:	00f74733          	xor	a4,a4,a5
    a348:	00177713          	and	a4,a4,1
    a34c:	40e00733          	neg	a4,a4
    a350:	00d77733          	and	a4,a4,a3
    a354:	0017d793          	srl	a5,a5,0x1
    a358:	00f74733          	xor	a4,a4,a5
    a35c:	01071713          	sll	a4,a4,0x10
    a360:	01075713          	srl	a4,a4,0x10
    a364:	00255793          	srl	a5,a0,0x2
    a368:	00e7c7b3          	xor	a5,a5,a4
    a36c:	0017f793          	and	a5,a5,1
    a370:	40f007b3          	neg	a5,a5
    a374:	00d7f7b3          	and	a5,a5,a3
    a378:	00175713          	srl	a4,a4,0x1
    a37c:	00e7c7b3          	xor	a5,a5,a4
    a380:	01079793          	sll	a5,a5,0x10
    a384:	0107d793          	srl	a5,a5,0x10
    a388:	00355713          	srl	a4,a0,0x3
    a38c:	00f74733          	xor	a4,a4,a5
    a390:	00177713          	and	a4,a4,1
    a394:	40e00733          	neg	a4,a4
    a398:	00d77733          	and	a4,a4,a3
    a39c:	0017d793          	srl	a5,a5,0x1
    a3a0:	00f74733          	xor	a4,a4,a5
    a3a4:	01071713          	sll	a4,a4,0x10
    a3a8:	01075713          	srl	a4,a4,0x10
    a3ac:	00455793          	srl	a5,a0,0x4
    a3b0:	00e7c7b3          	xor	a5,a5,a4
    a3b4:	0017f793          	and	a5,a5,1
    a3b8:	40f007b3          	neg	a5,a5
    a3bc:	00d7f7b3          	and	a5,a5,a3
    a3c0:	00175713          	srl	a4,a4,0x1
    a3c4:	00e7c7b3          	xor	a5,a5,a4
    a3c8:	01079793          	sll	a5,a5,0x10
    a3cc:	0107d793          	srl	a5,a5,0x10
    a3d0:	00555713          	srl	a4,a0,0x5
    a3d4:	00f74733          	xor	a4,a4,a5
    a3d8:	00177713          	and	a4,a4,1
    a3dc:	40e00733          	neg	a4,a4
    a3e0:	00d77733          	and	a4,a4,a3
    a3e4:	0017d793          	srl	a5,a5,0x1
    a3e8:	00f74733          	xor	a4,a4,a5
    a3ec:	01071713          	sll	a4,a4,0x10
    a3f0:	01075713          	srl	a4,a4,0x10
    a3f4:	00655793          	srl	a5,a0,0x6
    a3f8:	00e7c7b3          	xor	a5,a5,a4
    a3fc:	0017f793          	and	a5,a5,1
    a400:	40f007b3          	neg	a5,a5
    a404:	00d7f7b3          	and	a5,a5,a3
    a408:	00175713          	srl	a4,a4,0x1
    a40c:	00e7c7b3          	xor	a5,a5,a4
    a410:	01079793          	sll	a5,a5,0x10
    a414:	0107d793          	srl	a5,a5,0x10
    a418:	00755513          	srl	a0,a0,0x7
    a41c:	00f54533          	xor	a0,a0,a5
    a420:	00157513          	and	a0,a0,1
    a424:	40a00533          	neg	a0,a0
    a428:	00d57533          	and	a0,a0,a3
    a42c:	0017d793          	srl	a5,a5,0x1
    a430:	00f54533          	xor	a0,a0,a5
    a434:	01051513          	sll	a0,a0,0x10
    a438:	01055513          	srl	a0,a0,0x10
    a43c:	00008067          	ret

0000a440 <crcu16>:
    a440:	0ff57793          	zext.b	a5,a0
    a444:	00b7c6b3          	xor	a3,a5,a1
    a448:	0016f693          	and	a3,a3,1
    a44c:	ffffa737          	lui	a4,0xffffa
    a450:	00170713          	add	a4,a4,1 # ffffa001 <stack_top+0xfffda001>
    a454:	40d006b3          	neg	a3,a3
    a458:	00e6f6b3          	and	a3,a3,a4
    a45c:	0015d593          	srl	a1,a1,0x1
    a460:	00b6c6b3          	xor	a3,a3,a1
    a464:	01069693          	sll	a3,a3,0x10
    a468:	0106d693          	srl	a3,a3,0x10
    a46c:	0017d613          	srl	a2,a5,0x1
    a470:	00d64633          	xor	a2,a2,a3
    a474:	00167613          	and	a2,a2,1
    a478:	40c00633          	neg	a2,a2
    a47c:	00e67633          	and	a2,a2,a4
    a480:	0016d693          	srl	a3,a3,0x1
    a484:	00d64633          	xor	a2,a2,a3
    a488:	01061613          	sll	a2,a2,0x10
    a48c:	01065613          	srl	a2,a2,0x10
    a490:	0027d693          	srl	a3,a5,0x2
    a494:	00c6c6b3          	xor	a3,a3,a2
    a498:	0016f693          	and	a3,a3,1
    a49c:	40d006b3          	neg	a3,a3
    a4a0:	00e6f6b3          	and	a3,a3,a4
    a4a4:	00165613          	srl	a2,a2,0x1
    a4a8:	00c6c6b3          	xor	a3,a3,a2
    a4ac:	01069693          	sll	a3,a3,0x10
    a4b0:	0106d693          	srl	a3,a3,0x10
    a4b4:	0037d613          	srl	a2,a5,0x3
    a4b8:	00d64633          	xor	a2,a2,a3
    a4bc:	00167613          	and	a2,a2,1
    a4c0:	40c00633          	neg	a2,a2
    a4c4:	00e67633          	and	a2,a2,a4
    a4c8:	0016d693          	srl	a3,a3,0x1
    a4cc:	00d64633          	xor	a2,a2,a3
    a4d0:	01061613          	sll	a2,a2,0x10
    a4d4:	01065613          	srl	a2,a2,0x10
    a4d8:	0047d693          	srl	a3,a5,0x4
    a4dc:	00c6c6b3          	xor	a3,a3,a2
    a4e0:	0016f693          	and	a3,a3,1
    a4e4:	40d006b3          	neg	a3,a3
    a4e8:	00e6f6b3          	and	a3,a3,a4
    a4ec:	00165613          	srl	a2,a2,0x1
    a4f0:	00c6c6b3          	xor	a3,a3,a2
    a4f4:	01069693          	sll	a3,a3,0x10
    a4f8:	0106d693          	srl	a3,a3,0x10
    a4fc:	0057d613          	srl	a2,a5,0x5
    a500:	00d64633          	xor	a2,a2,a3
    a504:	00167613          	and	a2,a2,1
    a508:	40c00633          	neg	a2,a2
    a50c:	00e67633          	and	a2,a2,a4
    a510:	0016d693          	srl	a3,a3,0x1
    a514:	00d64633          	xor	a2,a2,a3
    a518:	01061613          	sll	a2,a2,0x10
    a51c:	01065613          	srl	a2,a2,0x10
    a520:	0067d693          	srl	a3,a5,0x6
    a524:	00c6c6b3          	xor	a3,a3,a2
    a528:	0016f693          	and	a3,a3,1
    a52c:	40d006b3          	neg	a3,a3
    a530:	00e6f6b3          	and	a3,a3,a4
    a534:	00165613          	srl	a2,a2,0x1
    a538:	00c6c6b3          	xor	a3,a3,a2
    a53c:	01069693          	sll	a3,a3,0x10
    a540:	0106d693          	srl	a3,a3,0x10
    a544:	0077d793          	srl	a5,a5,0x7
    a548:	00d7c7b3          	xor	a5,a5,a3
    a54c:	0017f793          	and	a5,a5,1
    a550:	40f007b3          	neg	a5,a5
    a554:	00e7f7b3          	and	a5,a5,a4
    a558:	0016d693          	srl	a3,a3,0x1
    a55c:	00d7c7b3          	xor	a5,a5,a3
    a560:	01079793          	sll	a5,a5,0x10
    a564:	00855513          	srl	a0,a0,0x8
    a568:	0107d793          	srl	a5,a5,0x10
    a56c:	00f546b3          	xor	a3,a0,a5
    a570:	0016f693          	and	a3,a3,1
    a574:	40d006b3          	neg	a3,a3
    a578:	00e6f6b3          	and	a3,a3,a4
    a57c:	0017d793          	srl	a5,a5,0x1
    a580:	00f6c7b3          	xor	a5,a3,a5
    a584:	01079793          	sll	a5,a5,0x10
    a588:	0107d793          	srl	a5,a5,0x10
    a58c:	00155693          	srl	a3,a0,0x1
    a590:	00f6c6b3          	xor	a3,a3,a5
    a594:	0016f693          	and	a3,a3,1
    a598:	40d006b3          	neg	a3,a3
    a59c:	00e6f6b3          	and	a3,a3,a4
    a5a0:	0017d793          	srl	a5,a5,0x1
    a5a4:	00f6c6b3          	xor	a3,a3,a5
    a5a8:	01069693          	sll	a3,a3,0x10
    a5ac:	0106d693          	srl	a3,a3,0x10
    a5b0:	00255793          	srl	a5,a0,0x2
    a5b4:	00d7c7b3          	xor	a5,a5,a3
    a5b8:	0017f793          	and	a5,a5,1
    a5bc:	40f007b3          	neg	a5,a5
    a5c0:	00e7f7b3          	and	a5,a5,a4
    a5c4:	0016d693          	srl	a3,a3,0x1
    a5c8:	00d7c7b3          	xor	a5,a5,a3
    a5cc:	01079793          	sll	a5,a5,0x10
    a5d0:	0107d793          	srl	a5,a5,0x10
    a5d4:	00355693          	srl	a3,a0,0x3
    a5d8:	00f6c6b3          	xor	a3,a3,a5
    a5dc:	0016f693          	and	a3,a3,1
    a5e0:	40d006b3          	neg	a3,a3
    a5e4:	00e6f6b3          	and	a3,a3,a4
    a5e8:	0017d793          	srl	a5,a5,0x1
    a5ec:	00f6c6b3          	xor	a3,a3,a5
    a5f0:	01069693          	sll	a3,a3,0x10
    a5f4:	0106d693          	srl	a3,a3,0x10
    a5f8:	00455793          	srl	a5,a0,0x4
    a5fc:	00d7c7b3          	xor	a5,a5,a3
    a600:	0017f793          	and	a5,a5,1
    a604:	40f007b3          	neg	a5,a5
    a608:	00e7f7b3          	and	a5,a5,a4
    a60c:	0016d693          	srl	a3,a3,0x1
    a610:	00d7c7b3          	xor	a5,a5,a3
    a614:	01079793          	sll	a5,a5,0x10
    a618:	0107d793          	srl	a5,a5,0x10
    a61c:	00555693          	srl	a3,a0,0x5
    a620:	00f6c6b3          	xor	a3,a3,a5
    a624:	0016f693          	and	a3,a3,1
    a628:	40d006b3          	neg	a3,a3
    a62c:	00e6f6b3          	and	a3,a3,a4
    a630:	0017d793          	srl	a5,a5,0x1
    a634:	00f6c6b3          	xor	a3,a3,a5
    a638:	01069693          	sll	a3,a3,0x10
    a63c:	0106d693          	srl	a3,a3,0x10
    a640:	00655793          	srl	a5,a0,0x6
    a644:	00d7c7b3          	xor	a5,a5,a3
    a648:	0017f793          	and	a5,a5,1
    a64c:	40f007b3          	neg	a5,a5
    a650:	00e7f7b3          	and	a5,a5,a4
    a654:	0016d693          	srl	a3,a3,0x1
    a658:	00d7c7b3          	xor	a5,a5,a3
    a65c:	01079793          	sll	a5,a5,0x10
    a660:	0107d793          	srl	a5,a5,0x10
    a664:	00755513          	srl	a0,a0,0x7
    a668:	00f54533          	xor	a0,a0,a5
    a66c:	00157513          	and	a0,a0,1
    a670:	40a00533          	neg	a0,a0
    a674:	00e57533          	and	a0,a0,a4
    a678:	0017d793          	srl	a5,a5,0x1
    a67c:	00f54533          	xor	a0,a0,a5
    a680:	01051513          	sll	a0,a0,0x10
    a684:	01055513          	srl	a0,a0,0x10
    a688:	00008067          	ret

0000a68c <crcu32>:
    a68c:	0ff57713          	zext.b	a4,a0
    a690:	00b74633          	xor	a2,a4,a1
    a694:	00167613          	and	a2,a2,1
    a698:	ffffa7b7          	lui	a5,0xffffa
    a69c:	00178793          	add	a5,a5,1 # ffffa001 <stack_top+0xfffda001>
    a6a0:	40c00633          	neg	a2,a2
    a6a4:	00f67633          	and	a2,a2,a5
    a6a8:	0015d593          	srl	a1,a1,0x1
    a6ac:	00b64633          	xor	a2,a2,a1
    a6b0:	01061613          	sll	a2,a2,0x10
    a6b4:	01065613          	srl	a2,a2,0x10
    a6b8:	00175693          	srl	a3,a4,0x1
    a6bc:	00c6c6b3          	xor	a3,a3,a2
    a6c0:	0016f693          	and	a3,a3,1
    a6c4:	40d006b3          	neg	a3,a3
    a6c8:	00f6f6b3          	and	a3,a3,a5
    a6cc:	00165613          	srl	a2,a2,0x1
    a6d0:	00c6c6b3          	xor	a3,a3,a2
    a6d4:	01069693          	sll	a3,a3,0x10
    a6d8:	0106d693          	srl	a3,a3,0x10
    a6dc:	00275613          	srl	a2,a4,0x2
    a6e0:	00d64633          	xor	a2,a2,a3
    a6e4:	00167613          	and	a2,a2,1
    a6e8:	40c00633          	neg	a2,a2
    a6ec:	00f67633          	and	a2,a2,a5
    a6f0:	0016d693          	srl	a3,a3,0x1
    a6f4:	00d64633          	xor	a2,a2,a3
    a6f8:	01061613          	sll	a2,a2,0x10
    a6fc:	01065613          	srl	a2,a2,0x10
    a700:	00375693          	srl	a3,a4,0x3
    a704:	00c6c6b3          	xor	a3,a3,a2
    a708:	0016f693          	and	a3,a3,1
    a70c:	40d006b3          	neg	a3,a3
    a710:	00f6f6b3          	and	a3,a3,a5
    a714:	00165613          	srl	a2,a2,0x1
    a718:	00c6c6b3          	xor	a3,a3,a2
    a71c:	01069693          	sll	a3,a3,0x10
    a720:	0106d693          	srl	a3,a3,0x10
    a724:	00475613          	srl	a2,a4,0x4
    a728:	00d64633          	xor	a2,a2,a3
    a72c:	00167613          	and	a2,a2,1
    a730:	40c00633          	neg	a2,a2
    a734:	00f67633          	and	a2,a2,a5
    a738:	0016d693          	srl	a3,a3,0x1
    a73c:	00d64633          	xor	a2,a2,a3
    a740:	01061613          	sll	a2,a2,0x10
    a744:	01065613          	srl	a2,a2,0x10
    a748:	00575693          	srl	a3,a4,0x5
    a74c:	00c6c6b3          	xor	a3,a3,a2
    a750:	0016f693          	and	a3,a3,1
    a754:	40d006b3          	neg	a3,a3
    a758:	00f6f6b3          	and	a3,a3,a5
    a75c:	00165613          	srl	a2,a2,0x1
    a760:	00c6c6b3          	xor	a3,a3,a2
    a764:	01069693          	sll	a3,a3,0x10
    a768:	0106d693          	srl	a3,a3,0x10
    a76c:	00675613          	srl	a2,a4,0x6
    a770:	00d64633          	xor	a2,a2,a3
    a774:	00167613          	and	a2,a2,1
    a778:	40c00633          	neg	a2,a2
    a77c:	00f67633          	and	a2,a2,a5
    a780:	0016d693          	srl	a3,a3,0x1
    a784:	00d64633          	xor	a2,a2,a3
    a788:	01061613          	sll	a2,a2,0x10
    a78c:	01065613          	srl	a2,a2,0x10
    a790:	00775693          	srl	a3,a4,0x7
    a794:	00c6c6b3          	xor	a3,a3,a2
    a798:	0016f693          	and	a3,a3,1
    a79c:	40d006b3          	neg	a3,a3
    a7a0:	00f6f6b3          	and	a3,a3,a5
    a7a4:	00165613          	srl	a2,a2,0x1
    a7a8:	00c6c6b3          	xor	a3,a3,a2
    a7ac:	01051713          	sll	a4,a0,0x10
    a7b0:	01075713          	srl	a4,a4,0x10
    a7b4:	01069693          	sll	a3,a3,0x10
    a7b8:	00875713          	srl	a4,a4,0x8
    a7bc:	0106d693          	srl	a3,a3,0x10
    a7c0:	00d74633          	xor	a2,a4,a3
    a7c4:	00167613          	and	a2,a2,1
    a7c8:	40c00633          	neg	a2,a2
    a7cc:	00f67633          	and	a2,a2,a5
    a7d0:	0016d693          	srl	a3,a3,0x1
    a7d4:	00d64633          	xor	a2,a2,a3
    a7d8:	01061613          	sll	a2,a2,0x10
    a7dc:	01065613          	srl	a2,a2,0x10
    a7e0:	00175693          	srl	a3,a4,0x1
    a7e4:	00c6c6b3          	xor	a3,a3,a2
    a7e8:	0016f693          	and	a3,a3,1
    a7ec:	40d006b3          	neg	a3,a3
    a7f0:	00f6f6b3          	and	a3,a3,a5
    a7f4:	00165613          	srl	a2,a2,0x1
    a7f8:	00c6c6b3          	xor	a3,a3,a2
    a7fc:	01069693          	sll	a3,a3,0x10
    a800:	0106d693          	srl	a3,a3,0x10
    a804:	00275613          	srl	a2,a4,0x2
    a808:	00d64633          	xor	a2,a2,a3
    a80c:	00167613          	and	a2,a2,1
    a810:	40c00633          	neg	a2,a2
    a814:	00f67633          	and	a2,a2,a5
    a818:	0016d693          	srl	a3,a3,0x1
    a81c:	00d64633          	xor	a2,a2,a3
    a820:	01061613          	sll	a2,a2,0x10
    a824:	01065613          	srl	a2,a2,0x10
    a828:	00375693          	srl	a3,a4,0x3
    a82c:	00c6c6b3          	xor	a3,a3,a2
    a830:	0016f693          	and	a3,a3,1
    a834:	40d006b3          	neg	a3,a3
    a838:	00f6f6b3          	and	a3,a3,a5
    a83c:	00165613          	srl	a2,a2,0x1
    a840:	00c6c6b3          	xor	a3,a3,a2
    a844:	01069693          	sll	a3,a3,0x10
    a848:	0106d693          	srl	a3,a3,0x10
    a84c:	00475613          	srl	a2,a4,0x4
    a850:	00d64633          	xor	a2,a2,a3
    a854:	00167613          	and	a2,a2,1
    a858:	40c00633          	neg	a2,a2
    a85c:	00f67633          	and	a2,a2,a5
    a860:	0016d693          	srl	a3,a3,0x1
    a864:	00d64633          	xor	a2,a2,a3
    a868:	01061613          	sll	a2,a2,0x10
    a86c:	01065613          	srl	a2,a2,0x10
    a870:	00575693          	srl	a3,a4,0x5
    a874:	00c6c6b3          	xor	a3,a3,a2
    a878:	0016f693          	and	a3,a3,1
    a87c:	40d006b3          	neg	a3,a3
    a880:	00f6f6b3          	and	a3,a3,a5
    a884:	00165613          	srl	a2,a2,0x1
    a888:	00c6c6b3          	xor	a3,a3,a2
    a88c:	01069693          	sll	a3,a3,0x10
    a890:	0106d693          	srl	a3,a3,0x10
    a894:	00675613          	srl	a2,a4,0x6
    a898:	00d64633          	xor	a2,a2,a3
    a89c:	00167613          	and	a2,a2,1
    a8a0:	40c00633          	neg	a2,a2
    a8a4:	00f67633          	and	a2,a2,a5
    a8a8:	0016d693          	srl	a3,a3,0x1
    a8ac:	00d64633          	xor	a2,a2,a3
    a8b0:	01061613          	sll	a2,a2,0x10
    a8b4:	01065613          	srl	a2,a2,0x10
    a8b8:	00775693          	srl	a3,a4,0x7
    a8bc:	00c6c6b3          	xor	a3,a3,a2
    a8c0:	0016f693          	and	a3,a3,1
    a8c4:	40d006b3          	neg	a3,a3
    a8c8:	00f6f6b3          	and	a3,a3,a5
    a8cc:	00165613          	srl	a2,a2,0x1
    a8d0:	00c6c6b3          	xor	a3,a3,a2
    a8d4:	01055513          	srl	a0,a0,0x10
    a8d8:	01069693          	sll	a3,a3,0x10
    a8dc:	0ff57713          	zext.b	a4,a0
    a8e0:	0106d693          	srl	a3,a3,0x10
    a8e4:	00d74633          	xor	a2,a4,a3
    a8e8:	00167613          	and	a2,a2,1
    a8ec:	40c00633          	neg	a2,a2
    a8f0:	00f67633          	and	a2,a2,a5
    a8f4:	0016d693          	srl	a3,a3,0x1
    a8f8:	00d646b3          	xor	a3,a2,a3
    a8fc:	01069693          	sll	a3,a3,0x10
    a900:	0106d693          	srl	a3,a3,0x10
    a904:	00175613          	srl	a2,a4,0x1
    a908:	00d64633          	xor	a2,a2,a3
    a90c:	00167613          	and	a2,a2,1
    a910:	40c00633          	neg	a2,a2
    a914:	00f67633          	and	a2,a2,a5
    a918:	0016d693          	srl	a3,a3,0x1
    a91c:	00d64633          	xor	a2,a2,a3
    a920:	01061613          	sll	a2,a2,0x10
    a924:	01065613          	srl	a2,a2,0x10
    a928:	00275693          	srl	a3,a4,0x2
    a92c:	00c6c6b3          	xor	a3,a3,a2
    a930:	0016f693          	and	a3,a3,1
    a934:	40d006b3          	neg	a3,a3
    a938:	00f6f6b3          	and	a3,a3,a5
    a93c:	00165613          	srl	a2,a2,0x1
    a940:	00c6c6b3          	xor	a3,a3,a2
    a944:	01069693          	sll	a3,a3,0x10
    a948:	0106d693          	srl	a3,a3,0x10
    a94c:	00375613          	srl	a2,a4,0x3
    a950:	00d64633          	xor	a2,a2,a3
    a954:	00167613          	and	a2,a2,1
    a958:	40c00633          	neg	a2,a2
    a95c:	00f67633          	and	a2,a2,a5
    a960:	0016d693          	srl	a3,a3,0x1
    a964:	00d64633          	xor	a2,a2,a3
    a968:	01061613          	sll	a2,a2,0x10
    a96c:	01065613          	srl	a2,a2,0x10
    a970:	00475693          	srl	a3,a4,0x4
    a974:	00c6c6b3          	xor	a3,a3,a2
    a978:	0016f693          	and	a3,a3,1
    a97c:	40d006b3          	neg	a3,a3
    a980:	00f6f6b3          	and	a3,a3,a5
    a984:	00165613          	srl	a2,a2,0x1
    a988:	00c6c6b3          	xor	a3,a3,a2
    a98c:	01069693          	sll	a3,a3,0x10
    a990:	0106d693          	srl	a3,a3,0x10
    a994:	00575613          	srl	a2,a4,0x5
    a998:	00d64633          	xor	a2,a2,a3
    a99c:	00167613          	and	a2,a2,1
    a9a0:	40c00633          	neg	a2,a2
    a9a4:	00f67633          	and	a2,a2,a5
    a9a8:	0016d693          	srl	a3,a3,0x1
    a9ac:	00d64633          	xor	a2,a2,a3
    a9b0:	01061613          	sll	a2,a2,0x10
    a9b4:	01065613          	srl	a2,a2,0x10
    a9b8:	00675693          	srl	a3,a4,0x6
    a9bc:	00c6c6b3          	xor	a3,a3,a2
    a9c0:	0016f693          	and	a3,a3,1
    a9c4:	40d006b3          	neg	a3,a3
    a9c8:	00f6f6b3          	and	a3,a3,a5
    a9cc:	00165613          	srl	a2,a2,0x1
    a9d0:	00c6c6b3          	xor	a3,a3,a2
    a9d4:	01069693          	sll	a3,a3,0x10
    a9d8:	0106d693          	srl	a3,a3,0x10
    a9dc:	00775713          	srl	a4,a4,0x7
    a9e0:	00d74733          	xor	a4,a4,a3
    a9e4:	00177713          	and	a4,a4,1
    a9e8:	40e00733          	neg	a4,a4
    a9ec:	00f77733          	and	a4,a4,a5
    a9f0:	0016d693          	srl	a3,a3,0x1
    a9f4:	00d74733          	xor	a4,a4,a3
    a9f8:	01071713          	sll	a4,a4,0x10
    a9fc:	00855513          	srl	a0,a0,0x8
    aa00:	01075713          	srl	a4,a4,0x10
    aa04:	00e546b3          	xor	a3,a0,a4
    aa08:	0016f693          	and	a3,a3,1
    aa0c:	40d006b3          	neg	a3,a3
    aa10:	00f6f6b3          	and	a3,a3,a5
    aa14:	00175713          	srl	a4,a4,0x1
    aa18:	00e6c733          	xor	a4,a3,a4
    aa1c:	01071713          	sll	a4,a4,0x10
    aa20:	01075713          	srl	a4,a4,0x10
    aa24:	00155693          	srl	a3,a0,0x1
    aa28:	00e6c6b3          	xor	a3,a3,a4
    aa2c:	0016f693          	and	a3,a3,1
    aa30:	40d006b3          	neg	a3,a3
    aa34:	00f6f6b3          	and	a3,a3,a5
    aa38:	00175713          	srl	a4,a4,0x1
    aa3c:	00e6c6b3          	xor	a3,a3,a4
    aa40:	01069693          	sll	a3,a3,0x10
    aa44:	0106d693          	srl	a3,a3,0x10
    aa48:	00255713          	srl	a4,a0,0x2
    aa4c:	00d74733          	xor	a4,a4,a3
    aa50:	00177713          	and	a4,a4,1
    aa54:	40e00733          	neg	a4,a4
    aa58:	00f77733          	and	a4,a4,a5
    aa5c:	0016d693          	srl	a3,a3,0x1
    aa60:	00d74733          	xor	a4,a4,a3
    aa64:	01071713          	sll	a4,a4,0x10
    aa68:	01075713          	srl	a4,a4,0x10
    aa6c:	00355693          	srl	a3,a0,0x3
    aa70:	00e6c6b3          	xor	a3,a3,a4
    aa74:	0016f693          	and	a3,a3,1
    aa78:	40d006b3          	neg	a3,a3
    aa7c:	00f6f6b3          	and	a3,a3,a5
    aa80:	00175713          	srl	a4,a4,0x1
    aa84:	00e6c6b3          	xor	a3,a3,a4
    aa88:	01069693          	sll	a3,a3,0x10
    aa8c:	0106d693          	srl	a3,a3,0x10
    aa90:	00455713          	srl	a4,a0,0x4
    aa94:	00d74733          	xor	a4,a4,a3
    aa98:	00177713          	and	a4,a4,1
    aa9c:	40e00733          	neg	a4,a4
    aaa0:	00f77733          	and	a4,a4,a5
    aaa4:	0016d693          	srl	a3,a3,0x1
    aaa8:	00d74733          	xor	a4,a4,a3
    aaac:	01071713          	sll	a4,a4,0x10
    aab0:	01075713          	srl	a4,a4,0x10
    aab4:	00555693          	srl	a3,a0,0x5
    aab8:	00e6c6b3          	xor	a3,a3,a4
    aabc:	0016f693          	and	a3,a3,1
    aac0:	40d006b3          	neg	a3,a3
    aac4:	00f6f6b3          	and	a3,a3,a5
    aac8:	00175713          	srl	a4,a4,0x1
    aacc:	00e6c6b3          	xor	a3,a3,a4
    aad0:	01069693          	sll	a3,a3,0x10
    aad4:	0106d693          	srl	a3,a3,0x10
    aad8:	00655713          	srl	a4,a0,0x6
    aadc:	00d74733          	xor	a4,a4,a3
    aae0:	00177713          	and	a4,a4,1
    aae4:	40e00733          	neg	a4,a4
    aae8:	00f77733          	and	a4,a4,a5
    aaec:	0016d693          	srl	a3,a3,0x1
    aaf0:	00d74733          	xor	a4,a4,a3
    aaf4:	01071713          	sll	a4,a4,0x10
    aaf8:	01075713          	srl	a4,a4,0x10
    aafc:	00755513          	srl	a0,a0,0x7
    ab00:	00e54533          	xor	a0,a0,a4
    ab04:	00157513          	and	a0,a0,1
    ab08:	40a00533          	neg	a0,a0
    ab0c:	00f57533          	and	a0,a0,a5
    ab10:	00175713          	srl	a4,a4,0x1
    ab14:	00e54533          	xor	a0,a0,a4
    ab18:	01051513          	sll	a0,a0,0x10
    ab1c:	01055513          	srl	a0,a0,0x10
    ab20:	00008067          	ret

0000ab24 <crc16>:
    ab24:	0ff57793          	zext.b	a5,a0
    ab28:	00b7c6b3          	xor	a3,a5,a1
    ab2c:	0016f693          	and	a3,a3,1
    ab30:	ffffa737          	lui	a4,0xffffa
    ab34:	00170713          	add	a4,a4,1 # ffffa001 <stack_top+0xfffda001>
    ab38:	40d006b3          	neg	a3,a3
    ab3c:	00e6f6b3          	and	a3,a3,a4
    ab40:	0015d593          	srl	a1,a1,0x1
    ab44:	00b6c6b3          	xor	a3,a3,a1
    ab48:	01069693          	sll	a3,a3,0x10
    ab4c:	0106d693          	srl	a3,a3,0x10
    ab50:	0017d613          	srl	a2,a5,0x1
    ab54:	00d64633          	xor	a2,a2,a3
    ab58:	00167613          	and	a2,a2,1
    ab5c:	40c00633          	neg	a2,a2
    ab60:	00e67633          	and	a2,a2,a4
    ab64:	0016d693          	srl	a3,a3,0x1
    ab68:	00d64633          	xor	a2,a2,a3
    ab6c:	01061613          	sll	a2,a2,0x10
    ab70:	01065613          	srl	a2,a2,0x10
    ab74:	0027d693          	srl	a3,a5,0x2
    ab78:	00c6c6b3          	xor	a3,a3,a2
    ab7c:	0016f693          	and	a3,a3,1
    ab80:	40d006b3          	neg	a3,a3
    ab84:	00e6f6b3          	and	a3,a3,a4
    ab88:	00165613          	srl	a2,a2,0x1
    ab8c:	00c6c6b3          	xor	a3,a3,a2
    ab90:	01069693          	sll	a3,a3,0x10
    ab94:	0106d693          	srl	a3,a3,0x10
    ab98:	0037d613          	srl	a2,a5,0x3
    ab9c:	00d64633          	xor	a2,a2,a3
    aba0:	00167613          	and	a2,a2,1
    aba4:	40c00633          	neg	a2,a2
    aba8:	00e67633          	and	a2,a2,a4
    abac:	0016d693          	srl	a3,a3,0x1
    abb0:	00d64633          	xor	a2,a2,a3
    abb4:	01061613          	sll	a2,a2,0x10
    abb8:	01065613          	srl	a2,a2,0x10
    abbc:	0047d693          	srl	a3,a5,0x4
    abc0:	00c6c6b3          	xor	a3,a3,a2
    abc4:	0016f693          	and	a3,a3,1
    abc8:	40d006b3          	neg	a3,a3
    abcc:	00e6f6b3          	and	a3,a3,a4
    abd0:	00165613          	srl	a2,a2,0x1
    abd4:	00c6c6b3          	xor	a3,a3,a2
    abd8:	01069693          	sll	a3,a3,0x10
    abdc:	0106d693          	srl	a3,a3,0x10
    abe0:	0057d613          	srl	a2,a5,0x5
    abe4:	00d64633          	xor	a2,a2,a3
    abe8:	00167613          	and	a2,a2,1
    abec:	40c00633          	neg	a2,a2
    abf0:	00e67633          	and	a2,a2,a4
    abf4:	0016d693          	srl	a3,a3,0x1
    abf8:	00d64633          	xor	a2,a2,a3
    abfc:	01061613          	sll	a2,a2,0x10
    ac00:	01065613          	srl	a2,a2,0x10
    ac04:	0067d693          	srl	a3,a5,0x6
    ac08:	00c6c6b3          	xor	a3,a3,a2
    ac0c:	0016f693          	and	a3,a3,1
    ac10:	40d006b3          	neg	a3,a3
    ac14:	00e6f6b3          	and	a3,a3,a4
    ac18:	00165613          	srl	a2,a2,0x1
    ac1c:	00c6c6b3          	xor	a3,a3,a2
    ac20:	01069693          	sll	a3,a3,0x10
    ac24:	0106d693          	srl	a3,a3,0x10
    ac28:	0077d793          	srl	a5,a5,0x7
    ac2c:	00d7c7b3          	xor	a5,a5,a3
    ac30:	0017f793          	and	a5,a5,1
    ac34:	40f007b3          	neg	a5,a5
    ac38:	00e7f7b3          	and	a5,a5,a4
    ac3c:	0016d693          	srl	a3,a3,0x1
    ac40:	00d7c7b3          	xor	a5,a5,a3
    ac44:	01051513          	sll	a0,a0,0x10
    ac48:	01055513          	srl	a0,a0,0x10
    ac4c:	01079793          	sll	a5,a5,0x10
    ac50:	00855513          	srl	a0,a0,0x8
    ac54:	0107d793          	srl	a5,a5,0x10
    ac58:	00f546b3          	xor	a3,a0,a5
    ac5c:	0016f693          	and	a3,a3,1
    ac60:	40d006b3          	neg	a3,a3
    ac64:	00e6f6b3          	and	a3,a3,a4
    ac68:	0017d793          	srl	a5,a5,0x1
    ac6c:	00f6c7b3          	xor	a5,a3,a5
    ac70:	01079793          	sll	a5,a5,0x10
    ac74:	0107d793          	srl	a5,a5,0x10
    ac78:	00155693          	srl	a3,a0,0x1
    ac7c:	00f6c6b3          	xor	a3,a3,a5
    ac80:	0016f693          	and	a3,a3,1
    ac84:	40d006b3          	neg	a3,a3
    ac88:	00e6f6b3          	and	a3,a3,a4
    ac8c:	0017d793          	srl	a5,a5,0x1
    ac90:	00f6c6b3          	xor	a3,a3,a5
    ac94:	01069693          	sll	a3,a3,0x10
    ac98:	0106d693          	srl	a3,a3,0x10
    ac9c:	00255793          	srl	a5,a0,0x2
    aca0:	00d7c7b3          	xor	a5,a5,a3
    aca4:	0017f793          	and	a5,a5,1
    aca8:	40f007b3          	neg	a5,a5
    acac:	00e7f7b3          	and	a5,a5,a4
    acb0:	0016d693          	srl	a3,a3,0x1
    acb4:	00d7c7b3          	xor	a5,a5,a3
    acb8:	01079793          	sll	a5,a5,0x10
    acbc:	0107d793          	srl	a5,a5,0x10
    acc0:	00355693          	srl	a3,a0,0x3
    acc4:	00f6c6b3          	xor	a3,a3,a5
    acc8:	0016f693          	and	a3,a3,1
    accc:	40d006b3          	neg	a3,a3
    acd0:	00e6f6b3          	and	a3,a3,a4
    acd4:	0017d793          	srl	a5,a5,0x1
    acd8:	00f6c6b3          	xor	a3,a3,a5
    acdc:	01069693          	sll	a3,a3,0x10
    ace0:	0106d693          	srl	a3,a3,0x10
    ace4:	00455793          	srl	a5,a0,0x4
    ace8:	00d7c7b3          	xor	a5,a5,a3
    acec:	0017f793          	and	a5,a5,1
    acf0:	40f007b3          	neg	a5,a5
    acf4:	00e7f7b3          	and	a5,a5,a4
    acf8:	0016d693          	srl	a3,a3,0x1
    acfc:	00d7c7b3          	xor	a5,a5,a3
    ad00:	01079793          	sll	a5,a5,0x10
    ad04:	0107d793          	srl	a5,a5,0x10
    ad08:	00555693          	srl	a3,a0,0x5
    ad0c:	00f6c6b3          	xor	a3,a3,a5
    ad10:	0016f693          	and	a3,a3,1
    ad14:	40d006b3          	neg	a3,a3
    ad18:	00e6f6b3          	and	a3,a3,a4
    ad1c:	0017d793          	srl	a5,a5,0x1
    ad20:	00f6c6b3          	xor	a3,a3,a5
    ad24:	01069693          	sll	a3,a3,0x10
    ad28:	0106d693          	srl	a3,a3,0x10
    ad2c:	00655793          	srl	a5,a0,0x6
    ad30:	00d7c7b3          	xor	a5,a5,a3
    ad34:	0017f793          	and	a5,a5,1
    ad38:	40f007b3          	neg	a5,a5
    ad3c:	00e7f7b3          	and	a5,a5,a4
    ad40:	0016d693          	srl	a3,a3,0x1
    ad44:	00d7c7b3          	xor	a5,a5,a3
    ad48:	01079793          	sll	a5,a5,0x10
    ad4c:	0107d793          	srl	a5,a5,0x10
    ad50:	00755513          	srl	a0,a0,0x7
    ad54:	00f54533          	xor	a0,a0,a5
    ad58:	00157513          	and	a0,a0,1
    ad5c:	40a00533          	neg	a0,a0
    ad60:	00e57533          	and	a0,a0,a4
    ad64:	0017d793          	srl	a5,a5,0x1
    ad68:	00f54533          	xor	a0,a0,a5
    ad6c:	01051513          	sll	a0,a0,0x10
    ad70:	01055513          	srl	a0,a0,0x10
    ad74:	00008067          	ret

0000ad78 <check_data_types>:
    ad78:	00000513          	li	a0,0
    ad7c:	00008067          	ret

0000ad80 <barebones_clock>:
    ad80:	ff010113          	add	sp,sp,-16
    ad84:	00012623          	sw	zero,12(sp)
    ad88:	00c12783          	lw	a5,12(sp)
    ad8c:	00f12623          	sw	a5,12(sp)
    ad90:	00c12783          	lw	a5,12(sp)
    ad94:	00178793          	add	a5,a5,1
    ad98:	00f12623          	sw	a5,12(sp)
    ad9c:	00c12783          	lw	a5,12(sp)
    ada0:	00278793          	add	a5,a5,2
    ada4:	00f12623          	sw	a5,12(sp)
    ada8:	00c12783          	lw	a5,12(sp)
    adac:	00378793          	add	a5,a5,3
    adb0:	00f12623          	sw	a5,12(sp)
    adb4:	00c12783          	lw	a5,12(sp)
    adb8:	00478793          	add	a5,a5,4
    adbc:	00f12623          	sw	a5,12(sp)
    adc0:	00c12783          	lw	a5,12(sp)
    adc4:	00578793          	add	a5,a5,5
    adc8:	00f12623          	sw	a5,12(sp)
    adcc:	00c12783          	lw	a5,12(sp)
    add0:	00678793          	add	a5,a5,6
    add4:	00f12623          	sw	a5,12(sp)
    add8:	00c12783          	lw	a5,12(sp)
    addc:	00778793          	add	a5,a5,7
    ade0:	00f12623          	sw	a5,12(sp)
    ade4:	00c12783          	lw	a5,12(sp)
    ade8:	00878793          	add	a5,a5,8
    adec:	00f12623          	sw	a5,12(sp)
    adf0:	00c12783          	lw	a5,12(sp)
    adf4:	00978793          	add	a5,a5,9
    adf8:	00f12623          	sw	a5,12(sp)
    adfc:	f0002503          	lw	a0,-256(zero) # ffffff00 <stack_top+0xfffdff00>
    ae00:	01010113          	add	sp,sp,16
    ae04:	00008067          	ret

0000ae08 <start_time>:
    ae08:	ff010113          	add	sp,sp,-16
    ae0c:	00012623          	sw	zero,12(sp)
    ae10:	00c12783          	lw	a5,12(sp)
    ae14:	00f12623          	sw	a5,12(sp)
    ae18:	00c12783          	lw	a5,12(sp)
    ae1c:	00178793          	add	a5,a5,1
    ae20:	00f12623          	sw	a5,12(sp)
    ae24:	00c12783          	lw	a5,12(sp)
    ae28:	00278793          	add	a5,a5,2
    ae2c:	00f12623          	sw	a5,12(sp)
    ae30:	00c12783          	lw	a5,12(sp)
    ae34:	00378793          	add	a5,a5,3
    ae38:	00f12623          	sw	a5,12(sp)
    ae3c:	00c12783          	lw	a5,12(sp)
    ae40:	00478793          	add	a5,a5,4
    ae44:	00f12623          	sw	a5,12(sp)
    ae48:	00c12783          	lw	a5,12(sp)
    ae4c:	00578793          	add	a5,a5,5
    ae50:	00f12623          	sw	a5,12(sp)
    ae54:	00c12783          	lw	a5,12(sp)
    ae58:	00678793          	add	a5,a5,6
    ae5c:	00f12623          	sw	a5,12(sp)
    ae60:	00c12783          	lw	a5,12(sp)
    ae64:	00778793          	add	a5,a5,7
    ae68:	00f12623          	sw	a5,12(sp)
    ae6c:	00c12783          	lw	a5,12(sp)
    ae70:	00878793          	add	a5,a5,8
    ae74:	00f12623          	sw	a5,12(sp)
    ae78:	00c12783          	lw	a5,12(sp)
    ae7c:	00978793          	add	a5,a5,9
    ae80:	00f12623          	sw	a5,12(sp)
    ae84:	f0002703          	lw	a4,-256(zero) # ffffff00 <stack_top+0xfffdff00>
    ae88:	000107b7          	lui	a5,0x10
    ae8c:	78e7a423          	sw	a4,1928(a5) # 10788 <start_time_val>
    ae90:	01010113          	add	sp,sp,16
    ae94:	00008067          	ret

0000ae98 <stop_time>:
    ae98:	ff010113          	add	sp,sp,-16
    ae9c:	00012623          	sw	zero,12(sp)
    aea0:	00c12783          	lw	a5,12(sp)
    aea4:	00f12623          	sw	a5,12(sp)
    aea8:	00c12783          	lw	a5,12(sp)
    aeac:	00178793          	add	a5,a5,1
    aeb0:	00f12623          	sw	a5,12(sp)
    aeb4:	00c12783          	lw	a5,12(sp)
    aeb8:	00278793          	add	a5,a5,2
    aebc:	00f12623          	sw	a5,12(sp)
    aec0:	00c12783          	lw	a5,12(sp)
    aec4:	00378793          	add	a5,a5,3
    aec8:	00f12623          	sw	a5,12(sp)
    aecc:	00c12783          	lw	a5,12(sp)
    aed0:	00478793          	add	a5,a5,4
    aed4:	00f12623          	sw	a5,12(sp)
    aed8:	00c12783          	lw	a5,12(sp)
    aedc:	00578793          	add	a5,a5,5
    aee0:	00f12623          	sw	a5,12(sp)
    aee4:	00c12783          	lw	a5,12(sp)
    aee8:	00678793          	add	a5,a5,6
    aeec:	00f12623          	sw	a5,12(sp)
    aef0:	00c12783          	lw	a5,12(sp)
    aef4:	00778793          	add	a5,a5,7
    aef8:	00f12623          	sw	a5,12(sp)
    aefc:	00c12783          	lw	a5,12(sp)
    af00:	00878793          	add	a5,a5,8
    af04:	00f12623          	sw	a5,12(sp)
    af08:	00c12783          	lw	a5,12(sp)
    af0c:	00978793          	add	a5,a5,9
    af10:	00f12623          	sw	a5,12(sp)
    af14:	f0002703          	lw	a4,-256(zero) # ffffff00 <stack_top+0xfffdff00>
    af18:	000107b7          	lui	a5,0x10
    af1c:	78e7a223          	sw	a4,1924(a5) # 10784 <stop_time_val>
    af20:	01010113          	add	sp,sp,16
    af24:	00008067          	ret

0000af28 <get_time>:
    af28:	000107b7          	lui	a5,0x10
    af2c:	7847a503          	lw	a0,1924(a5) # 10784 <stop_time_val>
    af30:	000107b7          	lui	a5,0x10
    af34:	7887a783          	lw	a5,1928(a5) # 10788 <start_time_val>
    af38:	40f50533          	sub	a0,a0,a5
    af3c:	00008067          	ret

0000af40 <time_in_secs>:
    af40:	004c55b7          	lui	a1,0x4c5
    af44:	ff010113          	add	sp,sp,-16
    af48:	b4058593          	add	a1,a1,-1216 # 4c4b40 <stack_top+0x4a4b40>
    af4c:	00112623          	sw	ra,12(sp)
    af50:	421010ef          	jal	cb70 <__hidden___udivsi3>
    af54:	00c12083          	lw	ra,12(sp)
    af58:	01010113          	add	sp,sp,16
    af5c:	00008067          	ret

0000af60 <portable_init>:
    af60:	00100793          	li	a5,1
    af64:	00f50023          	sb	a5,0(a0)
    af68:	00008067          	ret

0000af6c <portable_fini>:
    af6c:	00050023          	sb	zero,0(a0)
    af70:	00008067          	ret

0000af74 <number>:
    af74:	f6010113          	add	sp,sp,-160
    af78:	08812c23          	sw	s0,152(sp)
    af7c:	09212823          	sw	s2,144(sp)
    af80:	09312623          	sw	s3,140(sp)
    af84:	07b12623          	sw	s11,108(sp)
    af88:	08112e23          	sw	ra,156(sp)
    af8c:	08912a23          	sw	s1,148(sp)
    af90:	09512223          	sw	s5,132(sp)
    af94:	07712e23          	sw	s7,124(sp)
    af98:	07812c23          	sw	s8,120(sp)
    af9c:	07912a23          	sw	s9,116(sp)
    afa0:	07a12823          	sw	s10,112(sp)
    afa4:	0407f813          	and	a6,a5,64
    afa8:	00e12423          	sw	a4,8(sp)
    afac:	00050413          	mv	s0,a0
    afb0:	00058d93          	mv	s11,a1
    afb4:	00060913          	mv	s2,a2
    afb8:	00068993          	mv	s3,a3
    afbc:	46081063          	bnez	a6,b41c <number+0x4a8>
    afc0:	00010ab7          	lui	s5,0x10
    afc4:	708a8a93          	add	s5,s5,1800 # 10708 <errpat+0x6d8>
    afc8:	0107fc93          	and	s9,a5,16
    afcc:	420c8663          	beqz	s9,b3f8 <number+0x484>
    afd0:	01000713          	li	a4,16
    afd4:	ffe7f793          	and	a5,a5,-2
    afd8:	00e12223          	sw	a4,4(sp)
    afdc:	02000b93          	li	s7,32
    afe0:	0027f713          	and	a4,a5,2
    afe4:	0207fc13          	and	s8,a5,32
    afe8:	44070063          	beqz	a4,b428 <number+0x4b4>
    afec:	4c0dc663          	bltz	s11,b4b8 <number+0x544>
    aff0:	0047f713          	and	a4,a5,4
    aff4:	48071863          	bnez	a4,b484 <number+0x510>
    aff8:	0087f793          	and	a5,a5,8
    affc:	00012623          	sw	zero,12(sp)
    b000:	00078863          	beqz	a5,b010 <number+0x9c>
    b004:	02000793          	li	a5,32
    b008:	fff98993          	add	s3,s3,-1
    b00c:	00f12623          	sw	a5,12(sp)
    b010:	000c0e63          	beqz	s8,b02c <number+0xb8>
    b014:	01000793          	li	a5,16
    b018:	4ef90463          	beq	s2,a5,b500 <number+0x58c>
    b01c:	ff890793          	add	a5,s2,-8
    b020:	0017b793          	seqz	a5,a5
    b024:	02000c13          	li	s8,32
    b028:	40f989b3          	sub	s3,s3,a5
    b02c:	400d9263          	bnez	s11,b430 <number+0x4bc>
    b030:	03000793          	li	a5,48
    b034:	00f10e23          	sb	a5,28(sp)
    b038:	00100493          	li	s1,1
    b03c:	01c10d13          	add	s10,sp,28
    b040:	00812783          	lw	a5,8(sp)
    b044:	00048613          	mv	a2,s1
    b048:	00f4d463          	bge	s1,a5,b050 <number+0xdc>
    b04c:	00078613          	mv	a2,a5
    b050:	00412783          	lw	a5,4(sp)
    b054:	40c989b3          	sub	s3,s3,a2
    b058:	0c079263          	bnez	a5,b11c <number+0x1a8>
    b05c:	fff98693          	add	a3,s3,-1
    b060:	4f305663          	blez	s3,b54c <number+0x5d8>
    b064:	40800733          	neg	a4,s0
    b068:	00500593          	li	a1,5
    b06c:	00377793          	and	a5,a4,3
    b070:	4ed5fa63          	bgeu	a1,a3,b564 <number+0x5f0>
    b074:	00040593          	mv	a1,s0
    b078:	02078663          	beqz	a5,b0a4 <number+0x130>
    b07c:	02000693          	li	a3,32
    b080:	00d40023          	sb	a3,0(s0)
    b084:	00277713          	and	a4,a4,2
    b088:	42070263          	beqz	a4,b4ac <number+0x538>
    b08c:	00d400a3          	sb	a3,1(s0)
    b090:	00300713          	li	a4,3
    b094:	4ae79663          	bne	a5,a4,b540 <number+0x5cc>
    b098:	00d40123          	sb	a3,2(s0)
    b09c:	00340593          	add	a1,s0,3
    b0a0:	ffc98693          	add	a3,s3,-4
    b0a4:	40f98e33          	sub	t3,s3,a5
    b0a8:	ffce7313          	and	t1,t3,-4
    b0ac:	00f407b3          	add	a5,s0,a5
    b0b0:	20202737          	lui	a4,0x20202
    b0b4:	00678533          	add	a0,a5,t1
    b0b8:	02070713          	add	a4,a4,32 # 20202020 <stack_top+0x201e2020>
    b0bc:	00e7a023          	sw	a4,0(a5)
    b0c0:	00478793          	add	a5,a5,4
    b0c4:	fea79ce3          	bne	a5,a0,b0bc <number+0x148>
    b0c8:	006587b3          	add	a5,a1,t1
    b0cc:	406686b3          	sub	a3,a3,t1
    b0d0:	046e0263          	beq	t3,t1,b114 <number+0x1a0>
    b0d4:	02000713          	li	a4,32
    b0d8:	00e78023          	sb	a4,0(a5)
    b0dc:	02d05c63          	blez	a3,b114 <number+0x1a0>
    b0e0:	00e780a3          	sb	a4,1(a5)
    b0e4:	00100593          	li	a1,1
    b0e8:	02b68663          	beq	a3,a1,b114 <number+0x1a0>
    b0ec:	00e78123          	sb	a4,2(a5)
    b0f0:	00200593          	li	a1,2
    b0f4:	02b68063          	beq	a3,a1,b114 <number+0x1a0>
    b0f8:	00e781a3          	sb	a4,3(a5)
    b0fc:	00300593          	li	a1,3
    b100:	00b68a63          	beq	a3,a1,b114 <number+0x1a0>
    b104:	00e78223          	sb	a4,4(a5)
    b108:	00400593          	li	a1,4
    b10c:	00b68463          	beq	a3,a1,b114 <number+0x1a0>
    b110:	00e782a3          	sb	a4,5(a5)
    b114:	01340433          	add	s0,s0,s3
    b118:	fff00993          	li	s3,-1
    b11c:	00c12783          	lw	a5,12(sp)
    b120:	00078663          	beqz	a5,b12c <number+0x1b8>
    b124:	00f40023          	sb	a5,0(s0)
    b128:	00140413          	add	s0,s0,1
    b12c:	000c0a63          	beqz	s8,b140 <number+0x1cc>
    b130:	00800793          	li	a5,8
    b134:	3af90e63          	beq	s2,a5,b4f0 <number+0x57c>
    b138:	01000793          	li	a5,16
    b13c:	34f90c63          	beq	s2,a5,b494 <number+0x520>
    b140:	0c0c9e63          	bnez	s9,b21c <number+0x2a8>
    b144:	fff98693          	add	a3,s3,-1
    b148:	41305663          	blez	s3,b554 <number+0x5e0>
    b14c:	40800733          	neg	a4,s0
    b150:	00500593          	li	a1,5
    b154:	00377793          	and	a5,a4,3
    b158:	40d5f263          	bgeu	a1,a3,b55c <number+0x5e8>
    b15c:	00040593          	mv	a1,s0
    b160:	02078c63          	beqz	a5,b198 <number+0x224>
    b164:	01740023          	sb	s7,0(s0)
    b168:	00277713          	and	a4,a4,2
    b16c:	00140593          	add	a1,s0,1
    b170:	ffe98693          	add	a3,s3,-2
    b174:	02070263          	beqz	a4,b198 <number+0x224>
    b178:	017400a3          	sb	s7,1(s0)
    b17c:	00300713          	li	a4,3
    b180:	00240593          	add	a1,s0,2
    b184:	ffd98693          	add	a3,s3,-3
    b188:	00e79863          	bne	a5,a4,b198 <number+0x224>
    b18c:	00340593          	add	a1,s0,3
    b190:	01740123          	sb	s7,2(s0)
    b194:	ffc98693          	add	a3,s3,-4
    b198:	008b9713          	sll	a4,s7,0x8
    b19c:	40f98e33          	sub	t3,s3,a5
    b1a0:	010b9313          	sll	t1,s7,0x10
    b1a4:	00ebe733          	or	a4,s7,a4
    b1a8:	018b9513          	sll	a0,s7,0x18
    b1ac:	00676733          	or	a4,a4,t1
    b1b0:	00f407b3          	add	a5,s0,a5
    b1b4:	ffce7313          	and	t1,t3,-4
    b1b8:	00a76733          	or	a4,a4,a0
    b1bc:	00f30533          	add	a0,t1,a5
    b1c0:	00e7a023          	sw	a4,0(a5)
    b1c4:	00478793          	add	a5,a5,4
    b1c8:	fef51ce3          	bne	a0,a5,b1c0 <number+0x24c>
    b1cc:	006587b3          	add	a5,a1,t1
    b1d0:	406686b3          	sub	a3,a3,t1
    b1d4:	046e0063          	beq	t3,t1,b214 <number+0x2a0>
    b1d8:	01778023          	sb	s7,0(a5)
    b1dc:	02d05c63          	blez	a3,b214 <number+0x2a0>
    b1e0:	017780a3          	sb	s7,1(a5)
    b1e4:	00100713          	li	a4,1
    b1e8:	02e68663          	beq	a3,a4,b214 <number+0x2a0>
    b1ec:	01778123          	sb	s7,2(a5)
    b1f0:	00200713          	li	a4,2
    b1f4:	02e68063          	beq	a3,a4,b214 <number+0x2a0>
    b1f8:	017781a3          	sb	s7,3(a5)
    b1fc:	00300713          	li	a4,3
    b200:	00e68a63          	beq	a3,a4,b214 <number+0x2a0>
    b204:	01778223          	sb	s7,4(a5)
    b208:	00400713          	li	a4,4
    b20c:	00e68463          	beq	a3,a4,b214 <number+0x2a0>
    b210:	017782a3          	sb	s7,5(a5)
    b214:	01340433          	add	s0,s0,s3
    b218:	fff00993          	li	s3,-1
    b21c:	fff60693          	add	a3,a2,-1
    b220:	0cc4d063          	bge	s1,a2,b2e0 <number+0x36c>
    b224:	40960333          	sub	t1,a2,s1
    b228:	40800733          	neg	a4,s0
    b22c:	fff30513          	add	a0,t1,-1
    b230:	00500593          	li	a1,5
    b234:	00377793          	and	a5,a4,3
    b238:	30a5f063          	bgeu	a1,a0,b538 <number+0x5c4>
    b23c:	00040593          	mv	a1,s0
    b240:	02078663          	beqz	a5,b26c <number+0x2f8>
    b244:	03000693          	li	a3,48
    b248:	00d40023          	sb	a3,0(s0)
    b24c:	00277713          	and	a4,a4,2
    b250:	28070a63          	beqz	a4,b4e4 <number+0x570>
    b254:	00d400a3          	sb	a3,1(s0)
    b258:	00300713          	li	a4,3
    b25c:	2ae79e63          	bne	a5,a4,b518 <number+0x5a4>
    b260:	00d40123          	sb	a3,2(s0)
    b264:	00340593          	add	a1,s0,3
    b268:	ffc60693          	add	a3,a2,-4
    b26c:	40f30e33          	sub	t3,t1,a5
    b270:	ffce7513          	and	a0,t3,-4
    b274:	00f407b3          	add	a5,s0,a5
    b278:	30303737          	lui	a4,0x30303
    b27c:	00a78633          	add	a2,a5,a0
    b280:	03070713          	add	a4,a4,48 # 30303030 <stack_top+0x302e3030>
    b284:	00e7a023          	sw	a4,0(a5)
    b288:	00478793          	add	a5,a5,4
    b28c:	fec79ce3          	bne	a5,a2,b284 <number+0x310>
    b290:	04ae0663          	beq	t3,a0,b2dc <number+0x368>
    b294:	00a587b3          	add	a5,a1,a0
    b298:	40a686b3          	sub	a3,a3,a0
    b29c:	03000713          	li	a4,48
    b2a0:	00e78023          	sb	a4,0(a5)
    b2a4:	fff68613          	add	a2,a3,-1
    b2a8:	02d4da63          	bge	s1,a3,b2dc <number+0x368>
    b2ac:	00e780a3          	sb	a4,1(a5)
    b2b0:	ffe68593          	add	a1,a3,-2
    b2b4:	02c4d463          	bge	s1,a2,b2dc <number+0x368>
    b2b8:	00e78123          	sb	a4,2(a5)
    b2bc:	ffd68613          	add	a2,a3,-3
    b2c0:	00b4de63          	bge	s1,a1,b2dc <number+0x368>
    b2c4:	00e781a3          	sb	a4,3(a5)
    b2c8:	ffc68693          	add	a3,a3,-4
    b2cc:	00c4d863          	bge	s1,a2,b2dc <number+0x368>
    b2d0:	00e78223          	sb	a4,4(a5)
    b2d4:	00d4d463          	bge	s1,a3,b2dc <number+0x368>
    b2d8:	00e782a3          	sb	a4,5(a5)
    b2dc:	00640433          	add	s0,s0,t1
    b2e0:	01bd07b3          	add	a5,s10,s11
    b2e4:	00040713          	mv	a4,s0
    b2e8:	0007c603          	lbu	a2,0(a5)
    b2ec:	00078693          	mv	a3,a5
    b2f0:	00170713          	add	a4,a4,1
    b2f4:	fec70fa3          	sb	a2,-1(a4)
    b2f8:	fff78793          	add	a5,a5,-1
    b2fc:	fedd16e3          	bne	s10,a3,b2e8 <number+0x374>
    b300:	001d8893          	add	a7,s11,1
    b304:	01140533          	add	a0,s0,a7
    b308:	fff98693          	add	a3,s3,-1
    b30c:	0b305c63          	blez	s3,b3c4 <number+0x450>
    b310:	40a00733          	neg	a4,a0
    b314:	00500613          	li	a2,5
    b318:	00377793          	and	a5,a4,3
    b31c:	20d67a63          	bgeu	a2,a3,b530 <number+0x5bc>
    b320:	00050613          	mv	a2,a0
    b324:	02078663          	beqz	a5,b350 <number+0x3dc>
    b328:	02000693          	li	a3,32
    b32c:	00d50023          	sb	a3,0(a0)
    b330:	00277713          	and	a4,a4,2
    b334:	1a070263          	beqz	a4,b4d8 <number+0x564>
    b338:	00d500a3          	sb	a3,1(a0)
    b33c:	00300713          	li	a4,3
    b340:	1ce79663          	bne	a5,a4,b50c <number+0x598>
    b344:	00d50123          	sb	a3,2(a0)
    b348:	00350613          	add	a2,a0,3
    b34c:	ffc98693          	add	a3,s3,-4
    b350:	40f988b3          	sub	a7,s3,a5
    b354:	ffc8f813          	and	a6,a7,-4
    b358:	00f507b3          	add	a5,a0,a5
    b35c:	20202737          	lui	a4,0x20202
    b360:	00f805b3          	add	a1,a6,a5
    b364:	02070713          	add	a4,a4,32 # 20202020 <stack_top+0x201e2020>
    b368:	00e7a023          	sw	a4,0(a5)
    b36c:	00478793          	add	a5,a5,4
    b370:	feb79ce3          	bne	a5,a1,b368 <number+0x3f4>
    b374:	05088663          	beq	a7,a6,b3c0 <number+0x44c>
    b378:	010607b3          	add	a5,a2,a6
    b37c:	410686b3          	sub	a3,a3,a6
    b380:	02000713          	li	a4,32
    b384:	00e78023          	sb	a4,0(a5)
    b388:	02d05c63          	blez	a3,b3c0 <number+0x44c>
    b38c:	00e780a3          	sb	a4,1(a5)
    b390:	00100613          	li	a2,1
    b394:	02c68663          	beq	a3,a2,b3c0 <number+0x44c>
    b398:	00e78123          	sb	a4,2(a5)
    b39c:	00200613          	li	a2,2
    b3a0:	02c68063          	beq	a3,a2,b3c0 <number+0x44c>
    b3a4:	00e781a3          	sb	a4,3(a5)
    b3a8:	00300613          	li	a2,3
    b3ac:	00c68a63          	beq	a3,a2,b3c0 <number+0x44c>
    b3b0:	00e78223          	sb	a4,4(a5)
    b3b4:	00400613          	li	a2,4
    b3b8:	00c68463          	beq	a3,a2,b3c0 <number+0x44c>
    b3bc:	00e782a3          	sb	a4,5(a5)
    b3c0:	01350533          	add	a0,a0,s3
    b3c4:	09c12083          	lw	ra,156(sp)
    b3c8:	09812403          	lw	s0,152(sp)
    b3cc:	09412483          	lw	s1,148(sp)
    b3d0:	09012903          	lw	s2,144(sp)
    b3d4:	08c12983          	lw	s3,140(sp)
    b3d8:	08412a83          	lw	s5,132(sp)
    b3dc:	07c12b83          	lw	s7,124(sp)
    b3e0:	07812c03          	lw	s8,120(sp)
    b3e4:	07412c83          	lw	s9,116(sp)
    b3e8:	07012d03          	lw	s10,112(sp)
    b3ec:	06c12d83          	lw	s11,108(sp)
    b3f0:	0a010113          	add	sp,sp,160
    b3f4:	00008067          	ret
    b3f8:	0117f693          	and	a3,a5,17
    b3fc:	0017f713          	and	a4,a5,1
    b400:	00d12223          	sw	a3,4(sp)
    b404:	16070463          	beqz	a4,b56c <number+0x5f8>
    b408:	0027f713          	and	a4,a5,2
    b40c:	03000b93          	li	s7,48
    b410:	0207fc13          	and	s8,a5,32
    b414:	00070a63          	beqz	a4,b428 <number+0x4b4>
    b418:	bd5ff06f          	j	afec <number+0x78>
    b41c:	00010ab7          	lui	s5,0x10
    b420:	730a8a93          	add	s5,s5,1840 # 10730 <errpat+0x700>
    b424:	ba5ff06f          	j	afc8 <number+0x54>
    b428:	00012623          	sw	zero,12(sp)
    b42c:	be5ff06f          	j	b010 <number+0x9c>
    b430:	09412423          	sw	s4,136(sp)
    b434:	09612023          	sw	s6,128(sp)
    b438:	000d8513          	mv	a0,s11
    b43c:	00000493          	li	s1,0
    b440:	01c10d13          	add	s10,sp,28
    b444:	00090593          	mv	a1,s2
    b448:	00050a13          	mv	s4,a0
    b44c:	76c010ef          	jal	cbb8 <__umodsi3>
    b450:	00aa8533          	add	a0,s5,a0
    b454:	00054703          	lbu	a4,0(a0)
    b458:	00048d93          	mv	s11,s1
    b45c:	00148493          	add	s1,s1,1
    b460:	009d0b33          	add	s6,s10,s1
    b464:	00090593          	mv	a1,s2
    b468:	000a0513          	mv	a0,s4
    b46c:	feeb0fa3          	sb	a4,-1(s6)
    b470:	700010ef          	jal	cb70 <__hidden___udivsi3>
    b474:	fd2a78e3          	bgeu	s4,s2,b444 <number+0x4d0>
    b478:	08812a03          	lw	s4,136(sp)
    b47c:	08012b03          	lw	s6,128(sp)
    b480:	bc1ff06f          	j	b040 <number+0xcc>
    b484:	02b00793          	li	a5,43
    b488:	fff98993          	add	s3,s3,-1
    b48c:	00f12623          	sw	a5,12(sp)
    b490:	b81ff06f          	j	b010 <number+0x9c>
    b494:	03000793          	li	a5,48
    b498:	00f40023          	sb	a5,0(s0)
    b49c:	07800793          	li	a5,120
    b4a0:	00f400a3          	sb	a5,1(s0)
    b4a4:	00240413          	add	s0,s0,2
    b4a8:	c99ff06f          	j	b140 <number+0x1cc>
    b4ac:	00140593          	add	a1,s0,1
    b4b0:	ffe98693          	add	a3,s3,-2
    b4b4:	bf1ff06f          	j	b0a4 <number+0x130>
    b4b8:	41b00db3          	neg	s11,s11
    b4bc:	fff98993          	add	s3,s3,-1
    b4c0:	060c1263          	bnez	s8,b524 <number+0x5b0>
    b4c4:	02d00793          	li	a5,45
    b4c8:	09412423          	sw	s4,136(sp)
    b4cc:	09612023          	sw	s6,128(sp)
    b4d0:	00f12623          	sw	a5,12(sp)
    b4d4:	f65ff06f          	j	b438 <number+0x4c4>
    b4d8:	00150613          	add	a2,a0,1
    b4dc:	ffe98693          	add	a3,s3,-2
    b4e0:	e71ff06f          	j	b350 <number+0x3dc>
    b4e4:	00140593          	add	a1,s0,1
    b4e8:	ffe60693          	add	a3,a2,-2
    b4ec:	d81ff06f          	j	b26c <number+0x2f8>
    b4f0:	03000793          	li	a5,48
    b4f4:	00f40023          	sb	a5,0(s0)
    b4f8:	00140413          	add	s0,s0,1
    b4fc:	c45ff06f          	j	b140 <number+0x1cc>
    b500:	ffe98993          	add	s3,s3,-2
    b504:	02000c13          	li	s8,32
    b508:	b25ff06f          	j	b02c <number+0xb8>
    b50c:	00250613          	add	a2,a0,2
    b510:	ffd98693          	add	a3,s3,-3
    b514:	e3dff06f          	j	b350 <number+0x3dc>
    b518:	00240593          	add	a1,s0,2
    b51c:	ffd60693          	add	a3,a2,-3
    b520:	d4dff06f          	j	b26c <number+0x2f8>
    b524:	02d00793          	li	a5,45
    b528:	00f12623          	sw	a5,12(sp)
    b52c:	ae9ff06f          	j	b014 <number+0xa0>
    b530:	00050793          	mv	a5,a0
    b534:	e4dff06f          	j	b380 <number+0x40c>
    b538:	00040793          	mv	a5,s0
    b53c:	d61ff06f          	j	b29c <number+0x328>
    b540:	00240593          	add	a1,s0,2
    b544:	ffd98693          	add	a3,s3,-3
    b548:	b5dff06f          	j	b0a4 <number+0x130>
    b54c:	00068993          	mv	s3,a3
    b550:	bcdff06f          	j	b11c <number+0x1a8>
    b554:	00068993          	mv	s3,a3
    b558:	cc5ff06f          	j	b21c <number+0x2a8>
    b55c:	00040793          	mv	a5,s0
    b560:	c79ff06f          	j	b1d8 <number+0x264>
    b564:	00040793          	mv	a5,s0
    b568:	b6dff06f          	j	b0d4 <number+0x160>
    b56c:	00012223          	sw	zero,4(sp)
    b570:	02000b93          	li	s7,32
    b574:	a6dff06f          	j	afe0 <number+0x6c>

0000b578 <uart_send_char>:
    b578:	ff010113          	add	sp,sp,-16
    b57c:	000026b7          	lui	a3,0x2
    b580:	00012623          	sw	zero,12(sp)
    b584:	00000793          	li	a5,0
    b588:	71068693          	add	a3,a3,1808 # 2710 <_start-0x58f0>
    b58c:	00c12703          	lw	a4,12(sp)
    b590:	00f70733          	add	a4,a4,a5
    b594:	00e12623          	sw	a4,12(sp)
    b598:	00178793          	add	a5,a5,1
    b59c:	fed798e3          	bne	a5,a3,b58c <uart_send_char+0x14>
    b5a0:	f6fff7b7          	lui	a5,0xf6fff
    b5a4:	06a78823          	sb	a0,112(a5) # f6fff070 <stack_top+0xf6fdf070>
    b5a8:	01010113          	add	sp,sp,16
    b5ac:	00008067          	ret

0000b5b0 <ee_printf>:
    b5b0:	e7010113          	add	sp,sp,-400
    b5b4:	15412c23          	sw	s4,344(sp)
    b5b8:	16112623          	sw	ra,364(sp)
    b5bc:	16812423          	sw	s0,360(sp)
    b5c0:	17212023          	sw	s2,352(sp)
    b5c4:	16b12a23          	sw	a1,372(sp)
    b5c8:	16c12c23          	sw	a2,376(sp)
    b5cc:	16d12e23          	sw	a3,380(sp)
    b5d0:	18e12023          	sw	a4,384(sp)
    b5d4:	18f12223          	sw	a5,388(sp)
    b5d8:	19012423          	sw	a6,392(sp)
    b5dc:	19112623          	sw	a7,396(sp)
    b5e0:	00054783          	lbu	a5,0(a0)
    b5e4:	17410a13          	add	s4,sp,372
    b5e8:	01412a23          	sw	s4,20(sp)
    b5ec:	00079463          	bnez	a5,b5f4 <ee_printf+0x44>
    b5f0:	2e40106f          	j	c8d4 <ee_printf+0x1324>
    b5f4:	03010913          	add	s2,sp,48
    b5f8:	15612823          	sw	s6,336(sp)
    b5fc:	00010b37          	lui	s6,0x10
    b600:	15512a23          	sw	s5,340(sp)
    b604:	15712623          	sw	s7,332(sp)
    b608:	15812423          	sw	s8,328(sp)
    b60c:	15912223          	sw	s9,324(sp)
    b610:	16912223          	sw	s1,356(sp)
    b614:	15312e23          	sw	s3,348(sp)
    b618:	15a12023          	sw	s10,320(sp)
    b61c:	00090413          	mv	s0,s2
    b620:	02500b93          	li	s7,37
    b624:	01000a93          	li	s5,16
    b628:	058b0b13          	add	s6,s6,88 # 10058 <errpat+0x28>
    b62c:	00900c93          	li	s9,9
    b630:	000a0c13          	mv	s8,s4
    b634:	01212023          	sw	s2,0(sp)
    b638:	09778a63          	beq	a5,s7,b6cc <ee_printf+0x11c>
    b63c:	00f40023          	sb	a5,0(s0)
    b640:	00154783          	lbu	a5,1(a0)
    b644:	00140413          	add	s0,s0,1
    b648:	00150513          	add	a0,a0,1
    b64c:	fe0796e3          	bnez	a5,b638 <ee_printf+0x88>
    b650:	16412483          	lw	s1,356(sp)
    b654:	15c12983          	lw	s3,348(sp)
    b658:	15412a83          	lw	s5,340(sp)
    b65c:	15012b03          	lw	s6,336(sp)
    b660:	14c12b83          	lw	s7,332(sp)
    b664:	14812c03          	lw	s8,328(sp)
    b668:	14412c83          	lw	s9,324(sp)
    b66c:	14012d03          	lw	s10,320(sp)
    b670:	00040023          	sb	zero,0(s0)
    b674:	03014583          	lbu	a1,48(sp)
    b678:	00012903          	lw	s2,0(sp)
    b67c:	00059463          	bnez	a1,b684 <ee_printf+0xd4>
    b680:	26c0106f          	j	c8ec <ee_printf+0x133c>
    b684:	000026b7          	lui	a3,0x2
    b688:	f6fff537          	lui	a0,0xf6fff
    b68c:	00090613          	mv	a2,s2
    b690:	71068693          	add	a3,a3,1808 # 2710 <_start-0x58f0>
    b694:	07050513          	add	a0,a0,112 # f6fff070 <stack_top+0xf6fdf070>
    b698:	00012c23          	sw	zero,24(sp)
    b69c:	00000793          	li	a5,0
    b6a0:	01812703          	lw	a4,24(sp)
    b6a4:	00f70733          	add	a4,a4,a5
    b6a8:	00e12c23          	sw	a4,24(sp)
    b6ac:	00178793          	add	a5,a5,1
    b6b0:	fed798e3          	bne	a5,a3,b6a0 <ee_printf+0xf0>
    b6b4:	00b50023          	sb	a1,0(a0)
    b6b8:	00164583          	lbu	a1,1(a2)
    b6bc:	00160793          	add	a5,a2,1
    b6c0:	12058863          	beqz	a1,b7f0 <ee_printf+0x240>
    b6c4:	00078613          	mv	a2,a5
    b6c8:	fd1ff06f          	j	b698 <ee_printf+0xe8>
    b6cc:	00000913          	li	s2,0
    b6d0:	00154683          	lbu	a3,1(a0)
    b6d4:	00150d13          	add	s10,a0,1
    b6d8:	fe068793          	add	a5,a3,-32
    b6dc:	0ff7f793          	zext.b	a5,a5
    b6e0:	00faea63          	bltu	s5,a5,b6f4 <ee_printf+0x144>
    b6e4:	00279793          	sll	a5,a5,0x2
    b6e8:	016787b3          	add	a5,a5,s6
    b6ec:	0007a783          	lw	a5,0(a5)
    b6f0:	00078067          	jr	a5
    b6f4:	fd068713          	add	a4,a3,-48
    b6f8:	0ff77713          	zext.b	a4,a4
    b6fc:	14ecf063          	bgeu	s9,a4,b83c <ee_printf+0x28c>
    b700:	02a00713          	li	a4,42
    b704:	fff00493          	li	s1,-1
    b708:	16e68463          	beq	a3,a4,b870 <ee_printf+0x2c0>
    b70c:	02e00793          	li	a5,46
    b710:	fff00713          	li	a4,-1
    b714:	0ef68e63          	beq	a3,a5,b810 <ee_printf+0x260>
    b718:	0df6f613          	and	a2,a3,223
    b71c:	04c00793          	li	a5,76
    b720:	08f60e63          	beq	a2,a5,b7bc <ee_printf+0x20c>
    b724:	fbf68613          	add	a2,a3,-65
    b728:	0ff67613          	zext.b	a2,a2
    b72c:	03700593          	li	a1,55
    b730:	04c5ec63          	bltu	a1,a2,b788 <ee_printf+0x1d8>
    b734:	000105b7          	lui	a1,0x10
    b738:	00261613          	sll	a2,a2,0x2
    b73c:	09c58593          	add	a1,a1,156 # 1009c <errpat+0x6c>
    b740:	00b60633          	add	a2,a2,a1
    b744:	00062603          	lw	a2,0(a2)
    b748:	00060067          	jr	a2
    b74c:	00196913          	or	s2,s2,1
    b750:	000d0513          	mv	a0,s10
    b754:	f7dff06f          	j	b6d0 <ee_printf+0x120>
    b758:	01096913          	or	s2,s2,16
    b75c:	000d0513          	mv	a0,s10
    b760:	f71ff06f          	j	b6d0 <ee_printf+0x120>
    b764:	00496913          	or	s2,s2,4
    b768:	000d0513          	mv	a0,s10
    b76c:	f65ff06f          	j	b6d0 <ee_printf+0x120>
    b770:	02096913          	or	s2,s2,32
    b774:	000d0513          	mv	a0,s10
    b778:	f59ff06f          	j	b6d0 <ee_printf+0x120>
    b77c:	00896913          	or	s2,s2,8
    b780:	000d0513          	mv	a0,s10
    b784:	f4dff06f          	j	b6d0 <ee_printf+0x120>
    b788:	000d0993          	mv	s3,s10
    b78c:	02500793          	li	a5,37
    b790:	00f68a63          	beq	a3,a5,b7a4 <ee_printf+0x1f4>
    b794:	00f40023          	sb	a5,0(s0)
    b798:	0009c683          	lbu	a3,0(s3)
    b79c:	00140413          	add	s0,s0,1
    b7a0:	ea0688e3          	beqz	a3,b650 <ee_printf+0xa0>
    b7a4:	00d40023          	sb	a3,0(s0)
    b7a8:	0019c783          	lbu	a5,1(s3)
    b7ac:	00140413          	add	s0,s0,1
    b7b0:	00198513          	add	a0,s3,1
    b7b4:	e80792e3          	bnez	a5,b638 <ee_printf+0x88>
    b7b8:	e99ff06f          	j	b650 <ee_printf+0xa0>
    b7bc:	00068593          	mv	a1,a3
    b7c0:	001d4683          	lbu	a3,1(s10)
    b7c4:	03700513          	li	a0,55
    b7c8:	001d0993          	add	s3,s10,1
    b7cc:	fbf68613          	add	a2,a3,-65
    b7d0:	0ff67613          	zext.b	a2,a2
    b7d4:	fac56ce3          	bltu	a0,a2,b78c <ee_printf+0x1dc>
    b7d8:	00010537          	lui	a0,0x10
    b7dc:	00261613          	sll	a2,a2,0x2
    b7e0:	17c50513          	add	a0,a0,380 # 1017c <errpat+0x14c>
    b7e4:	00a60633          	add	a2,a2,a0
    b7e8:	00062603          	lw	a2,0(a2)
    b7ec:	00060067          	jr	a2
    b7f0:	16c12083          	lw	ra,364(sp)
    b7f4:	16812403          	lw	s0,360(sp)
    b7f8:	41260633          	sub	a2,a2,s2
    b7fc:	15812a03          	lw	s4,344(sp)
    b800:	16012903          	lw	s2,352(sp)
    b804:	00160513          	add	a0,a2,1
    b808:	19010113          	add	sp,sp,400
    b80c:	00008067          	ret
    b810:	001d4683          	lbu	a3,1(s10)
    b814:	00900613          	li	a2,9
    b818:	001d0593          	add	a1,s10,1
    b81c:	fd068713          	add	a4,a3,-48
    b820:	0ff77713          	zext.b	a4,a4
    b824:	28e67a63          	bgeu	a2,a4,bab8 <ee_printf+0x508>
    b828:	02a00713          	li	a4,42
    b82c:	3ce68a63          	beq	a3,a4,bc00 <ee_printf+0x650>
    b830:	00058d13          	mv	s10,a1
    b834:	00000713          	li	a4,0
    b838:	ee1ff06f          	j	b718 <ee_printf+0x168>
    b83c:	00000493          	li	s1,0
    b840:	00900613          	li	a2,9
    b844:	00249793          	sll	a5,s1,0x2
    b848:	009787b3          	add	a5,a5,s1
    b84c:	001d0d13          	add	s10,s10,1
    b850:	00179793          	sll	a5,a5,0x1
    b854:	00d787b3          	add	a5,a5,a3
    b858:	000d4683          	lbu	a3,0(s10)
    b85c:	fd078493          	add	s1,a5,-48
    b860:	fd068793          	add	a5,a3,-48
    b864:	0ff7f793          	zext.b	a5,a5
    b868:	fcf67ee3          	bgeu	a2,a5,b844 <ee_printf+0x294>
    b86c:	ea1ff06f          	j	b70c <ee_printf+0x15c>
    b870:	000c2483          	lw	s1,0(s8)
    b874:	00254683          	lbu	a3,2(a0)
    b878:	00250d13          	add	s10,a0,2
    b87c:	004c0c13          	add	s8,s8,4
    b880:	e804d6e3          	bgez	s1,b70c <ee_printf+0x15c>
    b884:	409004b3          	neg	s1,s1
    b888:	01096913          	or	s2,s2,16
    b88c:	e81ff06f          	j	b70c <ee_printf+0x15c>
    b890:	000d0993          	mv	s3,s10
    b894:	00a00613          	li	a2,10
    b898:	000c2583          	lw	a1,0(s8)
    b89c:	004c0c13          	add	s8,s8,4
    b8a0:	00090793          	mv	a5,s2
    b8a4:	00040513          	mv	a0,s0
    b8a8:	00048693          	mv	a3,s1
    b8ac:	ec8ff0ef          	jal	af74 <number>
    b8b0:	0019c783          	lbu	a5,1(s3)
    b8b4:	00050413          	mv	s0,a0
    b8b8:	00198513          	add	a0,s3,1
    b8bc:	d6079ee3          	bnez	a5,b638 <ee_printf+0x88>
    b8c0:	d91ff06f          	j	b650 <ee_printf+0xa0>
    b8c4:	000d0993          	mv	s3,s10
    b8c8:	00800613          	li	a2,8
    b8cc:	fcdff06f          	j	b898 <ee_printf+0x2e8>
    b8d0:	00098d13          	mv	s10,s3
    b8d4:	000c2683          	lw	a3,0(s8)
    b8d8:	004c0c13          	add	s8,s8,4
    b8dc:	42068863          	beqz	a3,bd0c <ee_printf+0x75c>
    b8e0:	0006c603          	lbu	a2,0(a3)
    b8e4:	00061463          	bnez	a2,b8ec <ee_printf+0x33c>
    b8e8:	1500106f          	j	ca38 <ee_printf+0x1488>
    b8ec:	00071463          	bnez	a4,b8f4 <ee_printf+0x344>
    b8f0:	1480106f          	j	ca38 <ee_printf+0x1488>
    b8f4:	00068613          	mv	a2,a3
    b8f8:	00c0006f          	j	b904 <ee_printf+0x354>
    b8fc:	40e607b3          	sub	a5,a2,a4
    b900:	00d78863          	beq	a5,a3,b910 <ee_printf+0x360>
    b904:	00164783          	lbu	a5,1(a2)
    b908:	00160613          	add	a2,a2,1
    b90c:	fe0798e3          	bnez	a5,b8fc <ee_printf+0x34c>
    b910:	01097793          	and	a5,s2,16
    b914:	40d60733          	sub	a4,a2,a3
    b918:	32078463          	beqz	a5,bc40 <ee_printf+0x690>
    b91c:	08e05063          	blez	a4,b99c <ee_printf+0x3ec>
    b920:	fff70793          	add	a5,a4,-1
    b924:	00600613          	li	a2,6
    b928:	78f670e3          	bgeu	a2,a5,c8a8 <ee_printf+0x12f8>
    b92c:	00d467b3          	or	a5,s0,a3
    b930:	0037f793          	and	a5,a5,3
    b934:	76079ae3          	bnez	a5,c8a8 <ee_printf+0x12f8>
    b938:	00168793          	add	a5,a3,1
    b93c:	40f40633          	sub	a2,s0,a5
    b940:	00363613          	sltiu	a2,a2,3
    b944:	760614e3          	bnez	a2,c8ac <ee_printf+0x12fc>
    b948:	ffc77793          	and	a5,a4,-4
    b94c:	00040593          	mv	a1,s0
    b950:	00f68633          	add	a2,a3,a5
    b954:	0006a503          	lw	a0,0(a3)
    b958:	00468693          	add	a3,a3,4
    b95c:	00458593          	add	a1,a1,4
    b960:	fea5ae23          	sw	a0,-4(a1)
    b964:	fed618e3          	bne	a2,a3,b954 <ee_printf+0x3a4>
    b968:	02f70863          	beq	a4,a5,b998 <ee_printf+0x3e8>
    b96c:	00064503          	lbu	a0,0(a2)
    b970:	00f406b3          	add	a3,s0,a5
    b974:	00178593          	add	a1,a5,1
    b978:	00a68023          	sb	a0,0(a3)
    b97c:	00e5de63          	bge	a1,a4,b998 <ee_printf+0x3e8>
    b980:	00164583          	lbu	a1,1(a2)
    b984:	00278793          	add	a5,a5,2
    b988:	00b680a3          	sb	a1,1(a3)
    b98c:	00e7d663          	bge	a5,a4,b998 <ee_printf+0x3e8>
    b990:	00264783          	lbu	a5,2(a2)
    b994:	00f68123          	sb	a5,2(a3)
    b998:	00e40433          	add	s0,s0,a4
    b99c:	fff48693          	add	a3,s1,-1
    b9a0:	001d0513          	add	a0,s10,1
    b9a4:	00974463          	blt	a4,s1,b9ac <ee_printf+0x3fc>
    b9a8:	0500106f          	j	c9f8 <ee_printf+0x1448>
    b9ac:	40e48833          	sub	a6,s1,a4
    b9b0:	408005b3          	neg	a1,s0
    b9b4:	fff80893          	add	a7,a6,-1
    b9b8:	00500793          	li	a5,5
    b9bc:	0035f613          	and	a2,a1,3
    b9c0:	0117e463          	bltu	a5,a7,b9c8 <ee_printf+0x418>
    b9c4:	7990006f          	j	c95c <ee_printf+0x13ac>
    b9c8:	00040793          	mv	a5,s0
    b9cc:	02060863          	beqz	a2,b9fc <ee_printf+0x44c>
    b9d0:	02000693          	li	a3,32
    b9d4:	00d40023          	sb	a3,0(s0)
    b9d8:	0025f593          	and	a1,a1,2
    b9dc:	760580e3          	beqz	a1,c93c <ee_printf+0x138c>
    b9e0:	00d400a3          	sb	a3,1(s0)
    b9e4:	00300793          	li	a5,3
    b9e8:	00f60463          	beq	a2,a5,b9f0 <ee_printf+0x440>
    b9ec:	7a90006f          	j	c994 <ee_printf+0x13e4>
    b9f0:	00d40123          	sb	a3,2(s0)
    b9f4:	00340793          	add	a5,s0,3
    b9f8:	ffc48693          	add	a3,s1,-4
    b9fc:	40c80333          	sub	t1,a6,a2
    ba00:	ffc37593          	and	a1,t1,-4
    ba04:	00c40633          	add	a2,s0,a2
    ba08:	202028b7          	lui	a7,0x20202
    ba0c:	00b60e33          	add	t3,a2,a1
    ba10:	02088893          	add	a7,a7,32 # 20202020 <stack_top+0x201e2020>
    ba14:	01162023          	sw	a7,0(a2)
    ba18:	00460613          	add	a2,a2,4
    ba1c:	ffc61ce3          	bne	a2,t3,ba14 <ee_printf+0x464>
    ba20:	00b787b3          	add	a5,a5,a1
    ba24:	40b686b3          	sub	a3,a3,a1
    ba28:	04b30263          	beq	t1,a1,ba6c <ee_printf+0x4bc>
    ba2c:	02000613          	li	a2,32
    ba30:	00c78023          	sb	a2,0(a5)
    ba34:	fff68593          	add	a1,a3,-1
    ba38:	02d75a63          	bge	a4,a3,ba6c <ee_printf+0x4bc>
    ba3c:	00c780a3          	sb	a2,1(a5)
    ba40:	ffe68893          	add	a7,a3,-2
    ba44:	02b75463          	bge	a4,a1,ba6c <ee_printf+0x4bc>
    ba48:	00c78123          	sb	a2,2(a5)
    ba4c:	ffd68593          	add	a1,a3,-3
    ba50:	01175e63          	bge	a4,a7,ba6c <ee_printf+0x4bc>
    ba54:	00c781a3          	sb	a2,3(a5)
    ba58:	ffc68693          	add	a3,a3,-4
    ba5c:	00b75863          	bge	a4,a1,ba6c <ee_printf+0x4bc>
    ba60:	00c78223          	sb	a2,4(a5)
    ba64:	00d75463          	bge	a4,a3,ba6c <ee_printf+0x4bc>
    ba68:	00c782a3          	sb	a2,5(a5)
    ba6c:	001d4783          	lbu	a5,1(s10)
    ba70:	01040433          	add	s0,s0,a6
    ba74:	bc0792e3          	bnez	a5,b638 <ee_printf+0x88>
    ba78:	bd9ff06f          	j	b650 <ee_printf+0xa0>
    ba7c:	00098d13          	mv	s10,s3
    ba80:	fff00693          	li	a3,-1
    ba84:	38d48463          	beq	s1,a3,be0c <ee_printf+0x85c>
    ba88:	000c2583          	lw	a1,0(s8)
    ba8c:	00090793          	mv	a5,s2
    ba90:	00040513          	mv	a0,s0
    ba94:	00048693          	mv	a3,s1
    ba98:	01000613          	li	a2,16
    ba9c:	cd8ff0ef          	jal	af74 <number>
    baa0:	001d4783          	lbu	a5,1(s10)
    baa4:	00050413          	mv	s0,a0
    baa8:	004c0c13          	add	s8,s8,4
    baac:	001d0513          	add	a0,s10,1
    bab0:	b80794e3          	bnez	a5,b638 <ee_printf+0x88>
    bab4:	b9dff06f          	j	b650 <ee_printf+0xa0>
    bab8:	00000713          	li	a4,0
    babc:	00900513          	li	a0,9
    bac0:	00271793          	sll	a5,a4,0x2
    bac4:	00e787b3          	add	a5,a5,a4
    bac8:	00158593          	add	a1,a1,1
    bacc:	00179793          	sll	a5,a5,0x1
    bad0:	00d787b3          	add	a5,a5,a3
    bad4:	0005c683          	lbu	a3,0(a1)
    bad8:	fd078713          	add	a4,a5,-48
    badc:	fd068793          	add	a5,a3,-48
    bae0:	0ff7f793          	zext.b	a5,a5
    bae4:	fcf57ee3          	bgeu	a0,a5,bac0 <ee_printf+0x510>
    bae8:	fff74613          	not	a2,a4
    baec:	41f65613          	sra	a2,a2,0x1f
    baf0:	00c77733          	and	a4,a4,a2
    baf4:	00058d13          	mv	s10,a1
    baf8:	c21ff06f          	j	b718 <ee_printf+0x168>
    bafc:	000d0993          	mv	s3,s10
    bb00:	01000613          	li	a2,16
    bb04:	d95ff06f          	j	b898 <ee_printf+0x2e8>
    bb08:	00098d13          	mv	s10,s3
    bb0c:	01097793          	and	a5,s2,16
    bb10:	004c0813          	add	a6,s8,4
    bb14:	001d0513          	add	a0,s10,1
    bb18:	20078063          	beqz	a5,bd18 <ee_printf+0x768>
    bb1c:	000c2683          	lw	a3,0(s8)
    bb20:	fff48793          	add	a5,s1,-1
    bb24:	00140713          	add	a4,s0,1
    bb28:	00d40023          	sb	a3,0(s0)
    bb2c:	2cf05663          	blez	a5,bdf8 <ee_printf+0x848>
    bb30:	40e00633          	neg	a2,a4
    bb34:	ffe48893          	add	a7,s1,-2
    bb38:	00500313          	li	t1,5
    bb3c:	00078593          	mv	a1,a5
    bb40:	00367693          	and	a3,a2,3
    bb44:	07135263          	bge	t1,a7,bba8 <ee_printf+0x5f8>
    bb48:	02068663          	beqz	a3,bb74 <ee_printf+0x5c4>
    bb4c:	02000793          	li	a5,32
    bb50:	00f400a3          	sb	a5,1(s0)
    bb54:	00267613          	and	a2,a2,2
    bb58:	5e0608e3          	beqz	a2,c948 <ee_printf+0x1398>
    bb5c:	00f40123          	sb	a5,2(s0)
    bb60:	00300713          	li	a4,3
    bb64:	6ee692e3          	bne	a3,a4,ca48 <ee_printf+0x1498>
    bb68:	00f401a3          	sb	a5,3(s0)
    bb6c:	00440713          	add	a4,s0,4
    bb70:	ffc48793          	add	a5,s1,-4
    bb74:	40d585b3          	sub	a1,a1,a3
    bb78:	00168693          	add	a3,a3,1
    bb7c:	00d406b3          	add	a3,s0,a3
    bb80:	ffc5f613          	and	a2,a1,-4
    bb84:	202028b7          	lui	a7,0x20202
    bb88:	00c68333          	add	t1,a3,a2
    bb8c:	02088893          	add	a7,a7,32 # 20202020 <stack_top+0x201e2020>
    bb90:	0116a023          	sw	a7,0(a3)
    bb94:	00468693          	add	a3,a3,4
    bb98:	fe669ce3          	bne	a3,t1,bb90 <ee_printf+0x5e0>
    bb9c:	04c58863          	beq	a1,a2,bbec <ee_printf+0x63c>
    bba0:	00c70733          	add	a4,a4,a2
    bba4:	40c787b3          	sub	a5,a5,a2
    bba8:	02000693          	li	a3,32
    bbac:	00d70023          	sb	a3,0(a4)
    bbb0:	00100613          	li	a2,1
    bbb4:	02f65c63          	bge	a2,a5,bbec <ee_printf+0x63c>
    bbb8:	00d700a3          	sb	a3,1(a4)
    bbbc:	00200613          	li	a2,2
    bbc0:	02c78663          	beq	a5,a2,bbec <ee_printf+0x63c>
    bbc4:	00d70123          	sb	a3,2(a4)
    bbc8:	00300613          	li	a2,3
    bbcc:	02c78063          	beq	a5,a2,bbec <ee_printf+0x63c>
    bbd0:	00d701a3          	sb	a3,3(a4)
    bbd4:	00400613          	li	a2,4
    bbd8:	00c78a63          	beq	a5,a2,bbec <ee_printf+0x63c>
    bbdc:	00d70223          	sb	a3,4(a4)
    bbe0:	00500613          	li	a2,5
    bbe4:	00c78463          	beq	a5,a2,bbec <ee_printf+0x63c>
    bbe8:	00d702a3          	sb	a3,5(a4)
    bbec:	001d4783          	lbu	a5,1(s10)
    bbf0:	00940433          	add	s0,s0,s1
    bbf4:	00080c13          	mv	s8,a6
    bbf8:	a40790e3          	bnez	a5,b638 <ee_printf+0x88>
    bbfc:	a55ff06f          	j	b650 <ee_printf+0xa0>
    bc00:	000c2703          	lw	a4,0(s8)
    bc04:	002d4683          	lbu	a3,2(s10)
    bc08:	004c0c13          	add	s8,s8,4
    bc0c:	fff74613          	not	a2,a4
    bc10:	41f65613          	sra	a2,a2,0x1f
    bc14:	00c77733          	and	a4,a4,a2
    bc18:	002d0d13          	add	s10,s10,2
    bc1c:	afdff06f          	j	b718 <ee_printf+0x168>
    bc20:	06c00693          	li	a3,108
    bc24:	00296913          	or	s2,s2,2
    bc28:	c6d586e3          	beq	a1,a3,b894 <ee_printf+0x2e4>
    bc2c:	004c0693          	add	a3,s8,4
    bc30:	000c2583          	lw	a1,0(s8)
    bc34:	00a00613          	li	a2,10
    bc38:	00068c13          	mv	s8,a3
    bc3c:	c65ff06f          	j	b8a0 <ee_printf+0x2f0>
    bc40:	fff48793          	add	a5,s1,-1
    bc44:	5e9756e3          	bge	a4,s1,ca30 <ee_printf+0x1480>
    bc48:	40e48333          	sub	t1,s1,a4
    bc4c:	40800533          	neg	a0,s0
    bc50:	fff30813          	add	a6,t1,-1
    bc54:	00500613          	li	a2,5
    bc58:	00357593          	and	a1,a0,3
    bc5c:	5d0676e3          	bgeu	a2,a6,ca28 <ee_printf+0x1478>
    bc60:	00040613          	mv	a2,s0
    bc64:	02058663          	beqz	a1,bc90 <ee_printf+0x6e0>
    bc68:	02000793          	li	a5,32
    bc6c:	00f40023          	sb	a5,0(s0)
    bc70:	00257513          	and	a0,a0,2
    bc74:	500506e3          	beqz	a0,c980 <ee_printf+0x13d0>
    bc78:	00f400a3          	sb	a5,1(s0)
    bc7c:	00300613          	li	a2,3
    bc80:	4ec59ae3          	bne	a1,a2,c974 <ee_printf+0x13c4>
    bc84:	00f40123          	sb	a5,2(s0)
    bc88:	00340613          	add	a2,s0,3
    bc8c:	ffc48793          	add	a5,s1,-4
    bc90:	40b308b3          	sub	a7,t1,a1
    bc94:	ffc8f513          	and	a0,a7,-4
    bc98:	00b405b3          	add	a1,s0,a1
    bc9c:	20202837          	lui	a6,0x20202
    bca0:	00a58e33          	add	t3,a1,a0
    bca4:	02080813          	add	a6,a6,32 # 20202020 <stack_top+0x201e2020>
    bca8:	0105a023          	sw	a6,0(a1)
    bcac:	00458593          	add	a1,a1,4
    bcb0:	febe1ce3          	bne	t3,a1,bca8 <ee_printf+0x6f8>
    bcb4:	00a60633          	add	a2,a2,a0
    bcb8:	40a787b3          	sub	a5,a5,a0
    bcbc:	04a88263          	beq	a7,a0,bd00 <ee_printf+0x750>
    bcc0:	02000593          	li	a1,32
    bcc4:	00b60023          	sb	a1,0(a2)
    bcc8:	fff78513          	add	a0,a5,-1
    bccc:	02f75a63          	bge	a4,a5,bd00 <ee_printf+0x750>
    bcd0:	00b600a3          	sb	a1,1(a2)
    bcd4:	ffe78813          	add	a6,a5,-2
    bcd8:	02a75463          	bge	a4,a0,bd00 <ee_printf+0x750>
    bcdc:	00b60123          	sb	a1,2(a2)
    bce0:	ffd78513          	add	a0,a5,-3
    bce4:	01075e63          	bge	a4,a6,bd00 <ee_printf+0x750>
    bce8:	00b601a3          	sb	a1,3(a2)
    bcec:	ffc78793          	add	a5,a5,-4
    bcf0:	00a75863          	bge	a4,a0,bd00 <ee_printf+0x750>
    bcf4:	00b60223          	sb	a1,4(a2)
    bcf8:	00f75463          	bge	a4,a5,bd00 <ee_printf+0x750>
    bcfc:	00b602a3          	sb	a1,5(a2)
    bd00:	00640433          	add	s0,s0,t1
    bd04:	fff70493          	add	s1,a4,-1
    bd08:	c15ff06f          	j	b91c <ee_printf+0x36c>
    bd0c:	000106b7          	lui	a3,0x10
    bd10:	75868693          	add	a3,a3,1880 # 10758 <errpat+0x728>
    bd14:	bd9ff06f          	j	b8ec <ee_printf+0x33c>
    bd18:	00100793          	li	a5,1
    bd1c:	4e97d6e3          	bge	a5,s1,ca08 <ee_printf+0x1458>
    bd20:	fff48613          	add	a2,s1,-1
    bd24:	408008b3          	neg	a7,s0
    bd28:	ffe48593          	add	a1,s1,-2
    bd2c:	00500793          	li	a5,5
    bd30:	00060693          	mv	a3,a2
    bd34:	0038f713          	and	a4,a7,3
    bd38:	40b7dee3          	bge	a5,a1,c954 <ee_printf+0x13a4>
    bd3c:	00040793          	mv	a5,s0
    bd40:	02070a63          	beqz	a4,bd74 <ee_printf+0x7c4>
    bd44:	02000693          	li	a3,32
    bd48:	00d40023          	sb	a3,0(s0)
    bd4c:	0028f893          	and	a7,a7,2
    bd50:	00140793          	add	a5,s0,1
    bd54:	00088e63          	beqz	a7,bd70 <ee_printf+0x7c0>
    bd58:	00d400a3          	sb	a3,1(s0)
    bd5c:	00300793          	li	a5,3
    bd60:	40f712e3          	bne	a4,a5,c964 <ee_printf+0x13b4>
    bd64:	00340793          	add	a5,s0,3
    bd68:	00d40123          	sb	a3,2(s0)
    bd6c:	ffc48593          	add	a1,s1,-4
    bd70:	00058693          	mv	a3,a1
    bd74:	40e60333          	sub	t1,a2,a4
    bd78:	ffc37593          	and	a1,t1,-4
    bd7c:	00e40733          	add	a4,s0,a4
    bd80:	202028b7          	lui	a7,0x20202
    bd84:	00b70e33          	add	t3,a4,a1
    bd88:	02088893          	add	a7,a7,32 # 20202020 <stack_top+0x201e2020>
    bd8c:	01172023          	sw	a7,0(a4)
    bd90:	00470713          	add	a4,a4,4
    bd94:	feee1ce3          	bne	t3,a4,bd8c <ee_printf+0x7dc>
    bd98:	00b787b3          	add	a5,a5,a1
    bd9c:	40b686b3          	sub	a3,a3,a1
    bda0:	04b30463          	beq	t1,a1,bde8 <ee_printf+0x838>
    bda4:	02000713          	li	a4,32
    bda8:	00e78023          	sb	a4,0(a5)
    bdac:	00100593          	li	a1,1
    bdb0:	02d5dc63          	bge	a1,a3,bde8 <ee_printf+0x838>
    bdb4:	00e780a3          	sb	a4,1(a5)
    bdb8:	00200593          	li	a1,2
    bdbc:	02b68663          	beq	a3,a1,bde8 <ee_printf+0x838>
    bdc0:	00e78123          	sb	a4,2(a5)
    bdc4:	00300593          	li	a1,3
    bdc8:	02b68063          	beq	a3,a1,bde8 <ee_printf+0x838>
    bdcc:	00e781a3          	sb	a4,3(a5)
    bdd0:	00400593          	li	a1,4
    bdd4:	00b68a63          	beq	a3,a1,bde8 <ee_printf+0x838>
    bdd8:	00e78223          	sb	a4,4(a5)
    bddc:	00500593          	li	a1,5
    bde0:	00b68463          	beq	a3,a1,bde8 <ee_printf+0x838>
    bde4:	00e782a3          	sb	a4,5(a5)
    bde8:	000c2783          	lw	a5,0(s8)
    bdec:	00c40633          	add	a2,s0,a2
    bdf0:	00940733          	add	a4,s0,s1
    bdf4:	00f60023          	sb	a5,0(a2)
    bdf8:	001d4783          	lbu	a5,1(s10)
    bdfc:	00080c13          	mv	s8,a6
    be00:	00070413          	mv	s0,a4
    be04:	82079ae3          	bnez	a5,b638 <ee_printf+0x88>
    be08:	849ff06f          	j	b650 <ee_printf+0xa0>
    be0c:	00196913          	or	s2,s2,1
    be10:	00800493          	li	s1,8
    be14:	c75ff06f          	j	ba88 <ee_printf+0x4d8>
    be18:	04096913          	or	s2,s2,64
    be1c:	01000613          	li	a2,16
    be20:	a79ff06f          	j	b898 <ee_printf+0x2e8>
    be24:	13b12e23          	sw	s11,316(sp)
    be28:	06c00713          	li	a4,108
    be2c:	5ae58463          	beq	a1,a4,c3d4 <ee_printf+0xe24>
    be30:	000c2d03          	lw	s10,0(s8)
    be34:	004c0793          	add	a5,s8,4
    be38:	00f12223          	sw	a5,4(sp)
    be3c:	000d4d83          	lbu	s11,0(s10)
    be40:	580d8063          	beqz	s11,c3c0 <ee_printf+0xe10>
    be44:	06300713          	li	a4,99
    be48:	1bb75ae3          	bge	a4,s11,c7fc <ee_printf+0x124c>
    be4c:	06400593          	li	a1,100
    be50:	000d8513          	mv	a0,s11
    be54:	599000ef          	jal	cbec <__modsi3>
    be58:	00050713          	mv	a4,a0
    be5c:	06400593          	li	a1,100
    be60:	000d8513          	mv	a0,s11
    be64:	00010a37          	lui	s4,0x10
    be68:	00070d93          	mv	s11,a4
    be6c:	708a0a13          	add	s4,s4,1800 # 10708 <errpat+0x6d8>
    be70:	4f9000ef          	jal	cb68 <__divsi3>
    be74:	00aa0733          	add	a4,s4,a0
    be78:	00a00593          	li	a1,10
    be7c:	000d8513          	mv	a0,s11
    be80:	00074c03          	lbu	s8,0(a4)
    be84:	4e5000ef          	jal	cb68 <__divsi3>
    be88:	00aa06b3          	add	a3,s4,a0
    be8c:	0006c683          	lbu	a3,0(a3)
    be90:	00a00593          	li	a1,10
    be94:	000d8513          	mv	a0,s11
    be98:	00869693          	sll	a3,a3,0x8
    be9c:	00dc6733          	or	a4,s8,a3
    bea0:	00e11c23          	sh	a4,24(sp)
    bea4:	549000ef          	jal	cbec <__modsi3>
    bea8:	00050d93          	mv	s11,a0
    beac:	00400693          	li	a3,4
    beb0:	00300c13          	li	s8,3
    beb4:	00200593          	li	a1,2
    beb8:	01ba0633          	add	a2,s4,s11
    bebc:	00064603          	lbu	a2,0(a2)
    bec0:	12058793          	add	a5,a1,288
    bec4:	01010713          	add	a4,sp,16
    bec8:	00e785b3          	add	a1,a5,a4
    becc:	eec58423          	sb	a2,-280(a1)
    bed0:	120c0793          	add	a5,s8,288
    bed4:	01010713          	add	a4,sp,16
    bed8:	001d4d83          	lbu	s11,1(s10)
    bedc:	00e78833          	add	a6,a5,a4
    bee0:	02e00613          	li	a2,46
    bee4:	eec80423          	sb	a2,-280(a6)
    bee8:	4a0d8e63          	beqz	s11,c3a4 <ee_printf+0xdf4>
    beec:	06300613          	li	a2,99
    bef0:	0bb65ae3          	bge	a2,s11,c7a4 <ee_printf+0x11f4>
    bef4:	12068793          	add	a5,a3,288
    bef8:	01010713          	add	a4,sp,16
    befc:	00e786b3          	add	a3,a5,a4
    bf00:	06400593          	li	a1,100
    bf04:	000d8513          	mv	a0,s11
    bf08:	00010a37          	lui	s4,0x10
    bf0c:	01012623          	sw	a6,12(sp)
    bf10:	00d12423          	sw	a3,8(sp)
    bf14:	708a0a13          	add	s4,s4,1800 # 10708 <errpat+0x6d8>
    bf18:	451000ef          	jal	cb68 <__divsi3>
    bf1c:	00aa0633          	add	a2,s4,a0
    bf20:	00064603          	lbu	a2,0(a2)
    bf24:	00812683          	lw	a3,8(sp)
    bf28:	06400593          	li	a1,100
    bf2c:	000d8513          	mv	a0,s11
    bf30:	eec68423          	sb	a2,-280(a3)
    bf34:	4b9000ef          	jal	cbec <__modsi3>
    bf38:	003c0693          	add	a3,s8,3
    bf3c:	00a00593          	li	a1,10
    bf40:	00050d93          	mv	s11,a0
    bf44:	00d12423          	sw	a3,8(sp)
    bf48:	421000ef          	jal	cb68 <__divsi3>
    bf4c:	00aa0733          	add	a4,s4,a0
    bf50:	00074703          	lbu	a4,0(a4)
    bf54:	00c12803          	lw	a6,12(sp)
    bf58:	000d8513          	mv	a0,s11
    bf5c:	00a00593          	li	a1,10
    bf60:	eee80523          	sb	a4,-278(a6)
    bf64:	489000ef          	jal	cbec <__modsi3>
    bf68:	00812683          	lw	a3,8(sp)
    bf6c:	00050d93          	mv	s11,a0
    bf70:	01ba0db3          	add	s11,s4,s11
    bf74:	000dc583          	lbu	a1,0(s11)
    bf78:	12068793          	add	a5,a3,288
    bf7c:	01010713          	add	a4,sp,16
    bf80:	00e78633          	add	a2,a5,a4
    bf84:	00168c13          	add	s8,a3,1
    bf88:	eeb60423          	sb	a1,-280(a2)
    bf8c:	120c0793          	add	a5,s8,288
    bf90:	01010713          	add	a4,sp,16
    bf94:	002d4883          	lbu	a7,2(s10)
    bf98:	02e00693          	li	a3,46
    bf9c:	00e78833          	add	a6,a5,a4
    bfa0:	eed80423          	sb	a3,-280(a6)
    bfa4:	001c0693          	add	a3,s8,1
    bfa8:	3e088063          	beqz	a7,c388 <ee_printf+0xdd8>
    bfac:	06300613          	li	a2,99
    bfb0:	0b1650e3          	bge	a2,a7,c850 <ee_printf+0x12a0>
    bfb4:	12068793          	add	a5,a3,288
    bfb8:	01010713          	add	a4,sp,16
    bfbc:	06400593          	li	a1,100
    bfc0:	00088513          	mv	a0,a7
    bfc4:	00010a37          	lui	s4,0x10
    bfc8:	00e78db3          	add	s11,a5,a4
    bfcc:	01012623          	sw	a6,12(sp)
    bfd0:	01112423          	sw	a7,8(sp)
    bfd4:	708a0a13          	add	s4,s4,1800 # 10708 <errpat+0x6d8>
    bfd8:	391000ef          	jal	cb68 <__divsi3>
    bfdc:	00aa0633          	add	a2,s4,a0
    bfe0:	00812883          	lw	a7,8(sp)
    bfe4:	00064683          	lbu	a3,0(a2)
    bfe8:	06400593          	li	a1,100
    bfec:	00088513          	mv	a0,a7
    bff0:	eedd8423          	sb	a3,-280(s11)
    bff4:	3f9000ef          	jal	cbec <__modsi3>
    bff8:	003c0693          	add	a3,s8,3
    bffc:	00a00593          	li	a1,10
    c000:	00d12423          	sw	a3,8(sp)
    c004:	00050d93          	mv	s11,a0
    c008:	361000ef          	jal	cb68 <__divsi3>
    c00c:	00aa0733          	add	a4,s4,a0
    c010:	00074703          	lbu	a4,0(a4)
    c014:	00c12803          	lw	a6,12(sp)
    c018:	00a00593          	li	a1,10
    c01c:	000d8513          	mv	a0,s11
    c020:	eee80523          	sb	a4,-278(a6)
    c024:	3c9000ef          	jal	cbec <__modsi3>
    c028:	00812683          	lw	a3,8(sp)
    c02c:	00050893          	mv	a7,a0
    c030:	011a0533          	add	a0,s4,a7
    c034:	00054603          	lbu	a2,0(a0)
    c038:	12068793          	add	a5,a3,288
    c03c:	01010713          	add	a4,sp,16
    c040:	00e78733          	add	a4,a5,a4
    c044:	00168d93          	add	s11,a3,1
    c048:	eec70423          	sb	a2,-280(a4)
    c04c:	01010713          	add	a4,sp,16
    c050:	003d4c03          	lbu	s8,3(s10)
    c054:	120d8793          	add	a5,s11,288
    c058:	00e78633          	add	a2,a5,a4
    c05c:	02e00713          	li	a4,46
    c060:	eee60423          	sb	a4,-280(a2)
    c064:	001d8d13          	add	s10,s11,1
    c068:	300c0263          	beqz	s8,c36c <ee_printf+0xdbc>
    c06c:	06300693          	li	a3,99
    c070:	6f86d263          	bge	a3,s8,c754 <ee_printf+0x11a4>
    c074:	120d0793          	add	a5,s10,288
    c078:	01010713          	add	a4,sp,16
    c07c:	06400593          	li	a1,100
    c080:	000c0513          	mv	a0,s8
    c084:	00010a37          	lui	s4,0x10
    c088:	00e78d33          	add	s10,a5,a4
    c08c:	00c12423          	sw	a2,8(sp)
    c090:	708a0a13          	add	s4,s4,1800 # 10708 <errpat+0x6d8>
    c094:	2d5000ef          	jal	cb68 <__divsi3>
    c098:	00aa06b3          	add	a3,s4,a0
    c09c:	0006c703          	lbu	a4,0(a3)
    c0a0:	06400593          	li	a1,100
    c0a4:	000c0513          	mv	a0,s8
    c0a8:	eeed0423          	sb	a4,-280(s10)
    c0ac:	341000ef          	jal	cbec <__modsi3>
    c0b0:	00a00593          	li	a1,10
    c0b4:	00050c13          	mv	s8,a0
    c0b8:	2b1000ef          	jal	cb68 <__divsi3>
    c0bc:	00aa06b3          	add	a3,s4,a0
    c0c0:	0006c683          	lbu	a3,0(a3)
    c0c4:	00812603          	lw	a2,8(sp)
    c0c8:	000c0513          	mv	a0,s8
    c0cc:	00a00593          	li	a1,10
    c0d0:	eed60523          	sb	a3,-278(a2)
    c0d4:	319000ef          	jal	cbec <__modsi3>
    c0d8:	003d8d13          	add	s10,s11,3
    c0dc:	00050c13          	mv	s8,a0
    c0e0:	018a0533          	add	a0,s4,s8
    c0e4:	00054603          	lbu	a2,0(a0)
    c0e8:	120d0793          	add	a5,s10,288
    c0ec:	01010713          	add	a4,sp,16
    c0f0:	00e786b3          	add	a3,a5,a4
    c0f4:	001d0d93          	add	s11,s10,1
    c0f8:	eec68423          	sb	a2,-280(a3)
    c0fc:	01097793          	and	a5,s2,16
    c100:	0c079663          	bnez	a5,c1cc <ee_printf+0xc1c>
    c104:	fff48793          	add	a5,s1,-1
    c108:	089dd2e3          	bge	s11,s1,c98c <ee_printf+0x13dc>
    c10c:	41b485b3          	sub	a1,s1,s11
    c110:	40800633          	neg	a2,s0
    c114:	fff58513          	add	a0,a1,-1
    c118:	00500713          	li	a4,5
    c11c:	00367693          	and	a3,a2,3
    c120:	16a776e3          	bgeu	a4,a0,ca8c <ee_printf+0x14dc>
    c124:	00040713          	mv	a4,s0
    c128:	02068663          	beqz	a3,c154 <ee_printf+0xba4>
    c12c:	02000793          	li	a5,32
    c130:	00f40023          	sb	a5,0(s0)
    c134:	00267613          	and	a2,a2,2
    c138:	140604e3          	beqz	a2,ca80 <ee_printf+0x14d0>
    c13c:	00f400a3          	sb	a5,1(s0)
    c140:	00300713          	li	a4,3
    c144:	12e698e3          	bne	a3,a4,ca74 <ee_printf+0x14c4>
    c148:	00f40123          	sb	a5,2(s0)
    c14c:	00340713          	add	a4,s0,3
    c150:	ffc48793          	add	a5,s1,-4
    c154:	40d58833          	sub	a6,a1,a3
    c158:	ffc87613          	and	a2,a6,-4
    c15c:	00d406b3          	add	a3,s0,a3
    c160:	20202537          	lui	a0,0x20202
    c164:	00d608b3          	add	a7,a2,a3
    c168:	02050513          	add	a0,a0,32 # 20202020 <stack_top+0x201e2020>
    c16c:	00a6a023          	sw	a0,0(a3)
    c170:	00468693          	add	a3,a3,4
    c174:	fed89ce3          	bne	a7,a3,c16c <ee_printf+0xbbc>
    c178:	04c80663          	beq	a6,a2,c1c4 <ee_printf+0xc14>
    c17c:	00c70733          	add	a4,a4,a2
    c180:	40c787b3          	sub	a5,a5,a2
    c184:	02000693          	li	a3,32
    c188:	00d70023          	sb	a3,0(a4)
    c18c:	fff78613          	add	a2,a5,-1
    c190:	02fdda63          	bge	s11,a5,c1c4 <ee_printf+0xc14>
    c194:	00d700a3          	sb	a3,1(a4)
    c198:	ffe78513          	add	a0,a5,-2
    c19c:	02cdd463          	bge	s11,a2,c1c4 <ee_printf+0xc14>
    c1a0:	00d70123          	sb	a3,2(a4)
    c1a4:	ffd78613          	add	a2,a5,-3
    c1a8:	00adde63          	bge	s11,a0,c1c4 <ee_printf+0xc14>
    c1ac:	00d701a3          	sb	a3,3(a4)
    c1b0:	ffc78793          	add	a5,a5,-4
    c1b4:	00cdd863          	bge	s11,a2,c1c4 <ee_printf+0xc14>
    c1b8:	00d70223          	sb	a3,4(a4)
    c1bc:	00fdd463          	bge	s11,a5,c1c4 <ee_printf+0xc14>
    c1c0:	00d702a3          	sb	a3,5(a4)
    c1c4:	00b40433          	add	s0,s0,a1
    c1c8:	fffd8493          	add	s1,s11,-1
    c1cc:	00347793          	and	a5,s0,3
    c1d0:	4e078a63          	beqz	a5,c6c4 <ee_printf+0x1114>
    c1d4:	01e14783          	lbu	a5,30(sp)
    c1d8:	01814803          	lbu	a6,24(sp)
    c1dc:	01914503          	lbu	a0,25(sp)
    c1e0:	01a14583          	lbu	a1,26(sp)
    c1e4:	01b14603          	lbu	a2,27(sp)
    c1e8:	01c14683          	lbu	a3,28(sp)
    c1ec:	01d14703          	lbu	a4,29(sp)
    c1f0:	00f40323          	sb	a5,6(s0)
    c1f4:	01040023          	sb	a6,0(s0)
    c1f8:	00a400a3          	sb	a0,1(s0)
    c1fc:	00b40123          	sb	a1,2(s0)
    c200:	00c401a3          	sb	a2,3(s0)
    c204:	00d40223          	sb	a3,4(s0)
    c208:	00e402a3          	sb	a4,5(s0)
    c20c:	00700793          	li	a5,7
    c210:	06fd8e63          	beq	s11,a5,c28c <ee_printf+0xcdc>
    c214:	01f14703          	lbu	a4,31(sp)
    c218:	00800793          	li	a5,8
    c21c:	00e403a3          	sb	a4,7(s0)
    c220:	06fd8663          	beq	s11,a5,c28c <ee_printf+0xcdc>
    c224:	02014703          	lbu	a4,32(sp)
    c228:	00900793          	li	a5,9
    c22c:	00e40423          	sb	a4,8(s0)
    c230:	04fd8e63          	beq	s11,a5,c28c <ee_printf+0xcdc>
    c234:	02114703          	lbu	a4,33(sp)
    c238:	00a00793          	li	a5,10
    c23c:	00e404a3          	sb	a4,9(s0)
    c240:	04fd8663          	beq	s11,a5,c28c <ee_printf+0xcdc>
    c244:	02214703          	lbu	a4,34(sp)
    c248:	00b00793          	li	a5,11
    c24c:	00e40523          	sb	a4,10(s0)
    c250:	02fd8e63          	beq	s11,a5,c28c <ee_printf+0xcdc>
    c254:	02314703          	lbu	a4,35(sp)
    c258:	00c00793          	li	a5,12
    c25c:	00e405a3          	sb	a4,11(s0)
    c260:	02fd8663          	beq	s11,a5,c28c <ee_printf+0xcdc>
    c264:	02414703          	lbu	a4,36(sp)
    c268:	00d00793          	li	a5,13
    c26c:	00e40623          	sb	a4,12(s0)
    c270:	00fd8e63          	beq	s11,a5,c28c <ee_printf+0xcdc>
    c274:	02514703          	lbu	a4,37(sp)
    c278:	00f00793          	li	a5,15
    c27c:	00e406a3          	sb	a4,13(s0)
    c280:	00fd9663          	bne	s11,a5,c28c <ee_printf+0xcdc>
    c284:	02614783          	lbu	a5,38(sp)
    c288:	00f40723          	sb	a5,14(s0)
    c28c:	01b407b3          	add	a5,s0,s11
    c290:	fff48713          	add	a4,s1,-1
    c294:	749dde63          	bge	s11,s1,c9f0 <ee_printf+0x1440>
    c298:	41b48633          	sub	a2,s1,s11
    c29c:	40f005b3          	neg	a1,a5
    c2a0:	fff60813          	add	a6,a2,-1
    c2a4:	00500513          	li	a0,5
    c2a8:	0035f693          	and	a3,a1,3
    c2ac:	07057263          	bgeu	a0,a6,c310 <ee_printf+0xd60>
    c2b0:	02068663          	beqz	a3,c2dc <ee_printf+0xd2c>
    c2b4:	02000713          	li	a4,32
    c2b8:	00e78023          	sb	a4,0(a5)
    c2bc:	0025f593          	and	a1,a1,2
    c2c0:	58058263          	beqz	a1,c844 <ee_printf+0x1294>
    c2c4:	00e780a3          	sb	a4,1(a5)
    c2c8:	00300593          	li	a1,3
    c2cc:	7cb69863          	bne	a3,a1,ca9c <ee_printf+0x14ec>
    c2d0:	00e78123          	sb	a4,2(a5)
    c2d4:	ffc48713          	add	a4,s1,-4
    c2d8:	00378793          	add	a5,a5,3
    c2dc:	40d60633          	sub	a2,a2,a3
    c2e0:	01b686b3          	add	a3,a3,s11
    c2e4:	00d406b3          	add	a3,s0,a3
    c2e8:	ffc67593          	and	a1,a2,-4
    c2ec:	20202537          	lui	a0,0x20202
    c2f0:	00d58833          	add	a6,a1,a3
    c2f4:	02050513          	add	a0,a0,32 # 20202020 <stack_top+0x201e2020>
    c2f8:	00a6a023          	sw	a0,0(a3)
    c2fc:	00468693          	add	a3,a3,4
    c300:	ff069ce3          	bne	a3,a6,c2f8 <ee_printf+0xd48>
    c304:	04b60663          	beq	a2,a1,c350 <ee_printf+0xda0>
    c308:	00b787b3          	add	a5,a5,a1
    c30c:	40b70733          	sub	a4,a4,a1
    c310:	02000693          	li	a3,32
    c314:	00d78023          	sb	a3,0(a5)
    c318:	fff70613          	add	a2,a4,-1
    c31c:	02edda63          	bge	s11,a4,c350 <ee_printf+0xda0>
    c320:	00d780a3          	sb	a3,1(a5)
    c324:	ffe70593          	add	a1,a4,-2
    c328:	02cdd463          	bge	s11,a2,c350 <ee_printf+0xda0>
    c32c:	00d78123          	sb	a3,2(a5)
    c330:	ffd70613          	add	a2,a4,-3
    c334:	00bdde63          	bge	s11,a1,c350 <ee_printf+0xda0>
    c338:	00d781a3          	sb	a3,3(a5)
    c33c:	ffc70713          	add	a4,a4,-4
    c340:	00cdd863          	bge	s11,a2,c350 <ee_printf+0xda0>
    c344:	00d78223          	sb	a3,4(a5)
    c348:	00edd463          	bge	s11,a4,c350 <ee_printf+0xda0>
    c34c:	00d782a3          	sb	a3,5(a5)
    c350:	00940433          	add	s0,s0,s1
    c354:	0019c783          	lbu	a5,1(s3)
    c358:	00412c03          	lw	s8,4(sp)
    c35c:	13c12d83          	lw	s11,316(sp)
    c360:	00198513          	add	a0,s3,1
    c364:	ac079a63          	bnez	a5,b638 <ee_printf+0x88>
    c368:	ae8ff06f          	j	b650 <ee_printf+0xa0>
    c36c:	120d0793          	add	a5,s10,288
    c370:	01010713          	add	a4,sp,16
    c374:	00e78733          	add	a4,a5,a4
    c378:	03000693          	li	a3,48
    c37c:	002d8d93          	add	s11,s11,2
    c380:	eed70423          	sb	a3,-280(a4)
    c384:	d79ff06f          	j	c0fc <ee_printf+0xb4c>
    c388:	01010713          	add	a4,sp,16
    c38c:	12068793          	add	a5,a3,288
    c390:	00e786b3          	add	a3,a5,a4
    c394:	03000713          	li	a4,48
    c398:	002c0d93          	add	s11,s8,2
    c39c:	eee68423          	sb	a4,-280(a3)
    c3a0:	cadff06f          	j	c04c <ee_printf+0xa9c>
    c3a4:	12068793          	add	a5,a3,288
    c3a8:	01010713          	add	a4,sp,16
    c3ac:	00e786b3          	add	a3,a5,a4
    c3b0:	03000613          	li	a2,48
    c3b4:	002c0c13          	add	s8,s8,2
    c3b8:	eec68423          	sb	a2,-280(a3)
    c3bc:	bd1ff06f          	j	bf8c <ee_printf+0x9dc>
    c3c0:	03000713          	li	a4,48
    c3c4:	00e10c23          	sb	a4,24(sp)
    c3c8:	00200693          	li	a3,2
    c3cc:	00100c13          	li	s8,1
    c3d0:	b01ff06f          	j	bed0 <ee_printf+0x920>
    c3d4:	00010a37          	lui	s4,0x10
    c3d8:	000c2683          	lw	a3,0(s8)
    c3dc:	708a0a13          	add	s4,s4,1800 # 10708 <errpat+0x6d8>
    c3e0:	004c0c13          	add	s8,s8,4
    c3e4:	0006c603          	lbu	a2,0(a3)
    c3e8:	0026ce03          	lbu	t3,2(a3)
    c3ec:	0016c583          	lbu	a1,1(a3)
    c3f0:	0036c503          	lbu	a0,3(a3)
    c3f4:	0046c703          	lbu	a4,4(a3)
    c3f8:	0056c283          	lbu	t0,5(a3)
    c3fc:	00f67813          	and	a6,a2,15
    c400:	00465693          	srl	a3,a2,0x4
    c404:	010a0833          	add	a6,s4,a6
    c408:	00084383          	lbu	t2,0(a6)
    c40c:	00da06b3          	add	a3,s4,a3
    c410:	0045d313          	srl	t1,a1,0x4
    c414:	004e5893          	srl	a7,t3,0x4
    c418:	00fe7613          	and	a2,t3,15
    c41c:	00455813          	srl	a6,a0,0x4
    c420:	00475e13          	srl	t3,a4,0x4
    c424:	00f57513          	and	a0,a0,15
    c428:	0042dd93          	srl	s11,t0,0x4
    c42c:	00f5f593          	and	a1,a1,15
    c430:	00f77713          	and	a4,a4,15
    c434:	0006c983          	lbu	s3,0(a3)
    c438:	006a0333          	add	t1,s4,t1
    c43c:	00aa06b3          	add	a3,s4,a0
    c440:	00ba05b3          	add	a1,s4,a1
    c444:	01ca0533          	add	a0,s4,t3
    c448:	011a08b3          	add	a7,s4,a7
    c44c:	00ca0633          	add	a2,s4,a2
    c450:	010a0833          	add	a6,s4,a6
    c454:	00ea0733          	add	a4,s4,a4
    c458:	01ba0db3          	add	s11,s4,s11
    c45c:	00034f83          	lbu	t6,0(t1)
    c460:	0005cf03          	lbu	t5,0(a1)
    c464:	0008ce83          	lbu	t4,0(a7)
    c468:	00064e03          	lbu	t3,0(a2)
    c46c:	00084303          	lbu	t1,0(a6)
    c470:	0006c883          	lbu	a7,0(a3)
    c474:	00054803          	lbu	a6,0(a0)
    c478:	000dc583          	lbu	a1,0(s11)
    c47c:	00074503          	lbu	a0,0(a4)
    c480:	00f2f293          	and	t0,t0,15
    c484:	00839393          	sll	t2,t2,0x8
    c488:	03a00693          	li	a3,58
    c48c:	0079e9b3          	or	s3,s3,t2
    c490:	005a0733          	add	a4,s4,t0
    c494:	01097793          	and	a5,s2,16
    c498:	01311c23          	sh	s3,24(sp)
    c49c:	00d10d23          	sb	a3,26(sp)
    c4a0:	01f10da3          	sb	t6,27(sp)
    c4a4:	01e10e23          	sb	t5,28(sp)
    c4a8:	00d10ea3          	sb	a3,29(sp)
    c4ac:	01d10f23          	sb	t4,30(sp)
    c4b0:	01c10fa3          	sb	t3,31(sp)
    c4b4:	02d10023          	sb	a3,32(sp)
    c4b8:	026100a3          	sb	t1,33(sp)
    c4bc:	03110123          	sb	a7,34(sp)
    c4c0:	02d101a3          	sb	a3,35(sp)
    c4c4:	03010223          	sb	a6,36(sp)
    c4c8:	02a102a3          	sb	a0,37(sp)
    c4cc:	02d10323          	sb	a3,38(sp)
    c4d0:	02b103a3          	sb	a1,39(sp)
    c4d4:	00048613          	mv	a2,s1
    c4d8:	00074283          	lbu	t0,0(a4)
    c4dc:	0c079a63          	bnez	a5,c5b0 <ee_printf+0x1000>
    c4e0:	01100793          	li	a5,17
    c4e4:	fff48613          	add	a2,s1,-1
    c4e8:	0c97d463          	bge	a5,s1,c5b0 <ee_printf+0x1000>
    c4ec:	408006b3          	neg	a3,s0
    c4f0:	fee48713          	add	a4,s1,-18
    c4f4:	00500993          	li	s3,5
    c4f8:	fef48393          	add	t2,s1,-17
    c4fc:	0036f793          	and	a5,a3,3
    c500:	58e9fa63          	bgeu	s3,a4,ca94 <ee_printf+0x14e4>
    c504:	00040713          	mv	a4,s0
    c508:	02078663          	beqz	a5,c534 <ee_printf+0xf84>
    c50c:	02000613          	li	a2,32
    c510:	00c40023          	sb	a2,0(s0)
    c514:	0026f693          	and	a3,a3,2
    c518:	58068e63          	beqz	a3,cab4 <ee_printf+0x1504>
    c51c:	00c400a3          	sb	a2,1(s0)
    c520:	00300713          	li	a4,3
    c524:	58e79263          	bne	a5,a4,caa8 <ee_printf+0x14f8>
    c528:	00c40123          	sb	a2,2(s0)
    c52c:	00340713          	add	a4,s0,3
    c530:	ffc48613          	add	a2,s1,-4
    c534:	40f389b3          	sub	s3,t2,a5
    c538:	ffc9f693          	and	a3,s3,-4
    c53c:	00f407b3          	add	a5,s0,a5
    c540:	202024b7          	lui	s1,0x20202
    c544:	00f68a33          	add	s4,a3,a5
    c548:	02048493          	add	s1,s1,32 # 20202020 <stack_top+0x201e2020>
    c54c:	0097a023          	sw	s1,0(a5)
    c550:	00478793          	add	a5,a5,4
    c554:	fefa1ce3          	bne	s4,a5,c54c <ee_printf+0xf9c>
    c558:	04d98863          	beq	s3,a3,c5a8 <ee_printf+0xff8>
    c55c:	00d707b3          	add	a5,a4,a3
    c560:	40d60633          	sub	a2,a2,a3
    c564:	02000713          	li	a4,32
    c568:	00e78023          	sb	a4,0(a5)
    c56c:	01100693          	li	a3,17
    c570:	02c6dc63          	bge	a3,a2,c5a8 <ee_printf+0xff8>
    c574:	00e780a3          	sb	a4,1(a5)
    c578:	01200693          	li	a3,18
    c57c:	02d60663          	beq	a2,a3,c5a8 <ee_printf+0xff8>
    c580:	00e78123          	sb	a4,2(a5)
    c584:	01300693          	li	a3,19
    c588:	02d60063          	beq	a2,a3,c5a8 <ee_printf+0xff8>
    c58c:	00e781a3          	sb	a4,3(a5)
    c590:	01400693          	li	a3,20
    c594:	00d60a63          	beq	a2,a3,c5a8 <ee_printf+0xff8>
    c598:	00e78223          	sb	a4,4(a5)
    c59c:	01500693          	li	a3,21
    c5a0:	00d60463          	beq	a2,a3,c5a8 <ee_printf+0xff8>
    c5a4:	00e782a3          	sb	a4,5(a5)
    c5a8:	00740433          	add	s0,s0,t2
    c5ac:	01000613          	li	a2,16
    c5b0:	00347793          	and	a5,s0,3
    c5b4:	3e079663          	bnez	a5,c9a0 <ee_printf+0x13f0>
    c5b8:	01c12783          	lw	a5,28(sp)
    c5bc:	00f42223          	sw	a5,4(s0)
    c5c0:	02012783          	lw	a5,32(sp)
    c5c4:	00f42423          	sw	a5,8(s0)
    c5c8:	01812783          	lw	a5,24(sp)
    c5cc:	00f42023          	sw	a5,0(s0)
    c5d0:	02412783          	lw	a5,36(sp)
    c5d4:	00f42623          	sw	a5,12(s0)
    c5d8:	00540823          	sb	t0,16(s0)
    c5dc:	01100713          	li	a4,17
    c5e0:	01140793          	add	a5,s0,17
    c5e4:	fff60693          	add	a3,a2,-1
    c5e8:	48c75263          	bge	a4,a2,ca6c <ee_printf+0x14bc>
    c5ec:	40f005b3          	neg	a1,a5
    c5f0:	fee60813          	add	a6,a2,-18
    c5f4:	00500893          	li	a7,5
    c5f8:	fef60513          	add	a0,a2,-17
    c5fc:	0035f713          	and	a4,a1,3
    c600:	0708f263          	bgeu	a7,a6,c664 <ee_printf+0x10b4>
    c604:	02070663          	beqz	a4,c630 <ee_printf+0x1080>
    c608:	02000693          	li	a3,32
    c60c:	00d408a3          	sb	a3,17(s0)
    c610:	0025f593          	and	a1,a1,2
    c614:	44058663          	beqz	a1,ca60 <ee_printf+0x14b0>
    c618:	00d40923          	sb	a3,18(s0)
    c61c:	00300793          	li	a5,3
    c620:	42f71a63          	bne	a4,a5,ca54 <ee_printf+0x14a4>
    c624:	00d409a3          	sb	a3,19(s0)
    c628:	01440793          	add	a5,s0,20
    c62c:	ffc60693          	add	a3,a2,-4
    c630:	40e50533          	sub	a0,a0,a4
    c634:	01170713          	add	a4,a4,17
    c638:	00e40733          	add	a4,s0,a4
    c63c:	ffc57593          	and	a1,a0,-4
    c640:	20202837          	lui	a6,0x20202
    c644:	00b708b3          	add	a7,a4,a1
    c648:	02080813          	add	a6,a6,32 # 20202020 <stack_top+0x201e2020>
    c64c:	01072023          	sw	a6,0(a4)
    c650:	00470713          	add	a4,a4,4
    c654:	ff171ce3          	bne	a4,a7,c64c <ee_printf+0x109c>
    c658:	00b787b3          	add	a5,a5,a1
    c65c:	40b686b3          	sub	a3,a3,a1
    c660:	04b50463          	beq	a0,a1,c6a8 <ee_printf+0x10f8>
    c664:	02000713          	li	a4,32
    c668:	00e78023          	sb	a4,0(a5)
    c66c:	01100593          	li	a1,17
    c670:	02d5dc63          	bge	a1,a3,c6a8 <ee_printf+0x10f8>
    c674:	00e780a3          	sb	a4,1(a5)
    c678:	01200593          	li	a1,18
    c67c:	02b68663          	beq	a3,a1,c6a8 <ee_printf+0x10f8>
    c680:	00e78123          	sb	a4,2(a5)
    c684:	01300593          	li	a1,19
    c688:	02b68063          	beq	a3,a1,c6a8 <ee_printf+0x10f8>
    c68c:	00e781a3          	sb	a4,3(a5)
    c690:	01400593          	li	a1,20
    c694:	00b68a63          	beq	a3,a1,c6a8 <ee_printf+0x10f8>
    c698:	00e78223          	sb	a4,4(a5)
    c69c:	01500593          	li	a1,21
    c6a0:	00b68463          	beq	a3,a1,c6a8 <ee_printf+0x10f8>
    c6a4:	00e782a3          	sb	a4,5(a5)
    c6a8:	00c40433          	add	s0,s0,a2
    c6ac:	002d4783          	lbu	a5,2(s10)
    c6b0:	13c12d83          	lw	s11,316(sp)
    c6b4:	002d0513          	add	a0,s10,2
    c6b8:	00078463          	beqz	a5,c6c0 <ee_printf+0x1110>
    c6bc:	f7dfe06f          	j	b638 <ee_printf+0x88>
    c6c0:	f91fe06f          	j	b650 <ee_printf+0xa0>
    c6c4:	01812683          	lw	a3,24(sp)
    c6c8:	002dd793          	srl	a5,s11,0x2
    c6cc:	00100713          	li	a4,1
    c6d0:	00d42023          	sw	a3,0(s0)
    c6d4:	44e78a63          	beq	a5,a4,cb28 <ee_printf+0x1578>
    c6d8:	01c12683          	lw	a3,28(sp)
    c6dc:	00300713          	li	a4,3
    c6e0:	00d42223          	sw	a3,4(s0)
    c6e4:	00e79663          	bne	a5,a4,c6f0 <ee_printf+0x1140>
    c6e8:	02012783          	lw	a5,32(sp)
    c6ec:	00f42423          	sw	a5,8(s0)
    c6f0:	003df793          	and	a5,s11,3
    c6f4:	b8078ce3          	beqz	a5,c28c <ee_printf+0xcdc>
    c6f8:	ffcdf713          	and	a4,s11,-4
    c6fc:	12070693          	add	a3,a4,288
    c700:	01010613          	add	a2,sp,16
    c704:	00c686b3          	add	a3,a3,a2
    c708:	ee86c603          	lbu	a2,-280(a3)
    c70c:	00070793          	mv	a5,a4
    c710:	00e40733          	add	a4,s0,a4
    c714:	00c70023          	sb	a2,0(a4)
    c718:	00178693          	add	a3,a5,1
    c71c:	00170613          	add	a2,a4,1
    c720:	b7b6d6e3          	bge	a3,s11,c28c <ee_printf+0xcdc>
    c724:	12068693          	add	a3,a3,288
    c728:	01010593          	add	a1,sp,16
    c72c:	00b686b3          	add	a3,a3,a1
    c730:	ee86c683          	lbu	a3,-280(a3)
    c734:	00278793          	add	a5,a5,2
    c738:	00d60023          	sb	a3,0(a2)
    c73c:	b5b7d8e3          	bge	a5,s11,c28c <ee_printf+0xcdc>
    c740:	12078793          	add	a5,a5,288
    c744:	00b787b3          	add	a5,a5,a1
    c748:	ee87c783          	lbu	a5,-280(a5)
    c74c:	00f70123          	sb	a5,2(a4)
    c750:	b3dff06f          	j	c28c <ee_printf+0xcdc>
    c754:	00900693          	li	a3,9
    c758:	3d86d263          	bge	a3,s8,cb1c <ee_printf+0x156c>
    c75c:	120d0793          	add	a5,s10,288
    c760:	01010713          	add	a4,sp,16
    c764:	00a00593          	li	a1,10
    c768:	000c0513          	mv	a0,s8
    c76c:	00010a37          	lui	s4,0x10
    c770:	00e78d33          	add	s10,a5,a4
    c774:	708a0a13          	add	s4,s4,1800 # 10708 <errpat+0x6d8>
    c778:	3f0000ef          	jal	cb68 <__divsi3>
    c77c:	00aa06b3          	add	a3,s4,a0
    c780:	0006c703          	lbu	a4,0(a3)
    c784:	000c0513          	mv	a0,s8
    c788:	00a00593          	li	a1,10
    c78c:	eeed0423          	sb	a4,-280(s10)
    c790:	002d8d93          	add	s11,s11,2
    c794:	458000ef          	jal	cbec <__modsi3>
    c798:	00050c13          	mv	s8,a0
    c79c:	000d8d13          	mv	s10,s11
    c7a0:	941ff06f          	j	c0e0 <ee_printf+0xb30>
    c7a4:	00900613          	li	a2,9
    c7a8:	37b65463          	bge	a2,s11,cb10 <ee_printf+0x1560>
    c7ac:	12068793          	add	a5,a3,288
    c7b0:	01010713          	add	a4,sp,16
    c7b4:	00e786b3          	add	a3,a5,a4
    c7b8:	00a00593          	li	a1,10
    c7bc:	000d8513          	mv	a0,s11
    c7c0:	00010a37          	lui	s4,0x10
    c7c4:	00d12423          	sw	a3,8(sp)
    c7c8:	708a0a13          	add	s4,s4,1800 # 10708 <errpat+0x6d8>
    c7cc:	39c000ef          	jal	cb68 <__divsi3>
    c7d0:	00aa0733          	add	a4,s4,a0
    c7d4:	00812683          	lw	a3,8(sp)
    c7d8:	00074703          	lbu	a4,0(a4)
    c7dc:	000d8513          	mv	a0,s11
    c7e0:	00a00593          	li	a1,10
    c7e4:	eee68423          	sb	a4,-280(a3)
    c7e8:	404000ef          	jal	cbec <__modsi3>
    c7ec:	002c0c13          	add	s8,s8,2
    c7f0:	00050d93          	mv	s11,a0
    c7f4:	000c0693          	mv	a3,s8
    c7f8:	f78ff06f          	j	bf70 <ee_printf+0x9c0>
    c7fc:	00900713          	li	a4,9
    c800:	2fb75c63          	bge	a4,s11,caf8 <ee_printf+0x1548>
    c804:	00a00593          	li	a1,10
    c808:	000d8513          	mv	a0,s11
    c80c:	00010a37          	lui	s4,0x10
    c810:	358000ef          	jal	cb68 <__divsi3>
    c814:	708a0a13          	add	s4,s4,1800 # 10708 <errpat+0x6d8>
    c818:	00aa0733          	add	a4,s4,a0
    c81c:	00074703          	lbu	a4,0(a4)
    c820:	00a00593          	li	a1,10
    c824:	000d8513          	mv	a0,s11
    c828:	00e10c23          	sb	a4,24(sp)
    c82c:	3c0000ef          	jal	cbec <__modsi3>
    c830:	00050d93          	mv	s11,a0
    c834:	00300693          	li	a3,3
    c838:	00200c13          	li	s8,2
    c83c:	00100593          	li	a1,1
    c840:	e78ff06f          	j	beb8 <ee_printf+0x908>
    c844:	00178793          	add	a5,a5,1
    c848:	ffe48713          	add	a4,s1,-2
    c84c:	a91ff06f          	j	c2dc <ee_printf+0xd2c>
    c850:	00900613          	li	a2,9
    c854:	29165c63          	bge	a2,a7,caec <ee_printf+0x153c>
    c858:	12068793          	add	a5,a3,288
    c85c:	01010713          	add	a4,sp,16
    c860:	00a00593          	li	a1,10
    c864:	00088513          	mv	a0,a7
    c868:	00010a37          	lui	s4,0x10
    c86c:	00e78db3          	add	s11,a5,a4
    c870:	01112423          	sw	a7,8(sp)
    c874:	708a0a13          	add	s4,s4,1800 # 10708 <errpat+0x6d8>
    c878:	2f0000ef          	jal	cb68 <__divsi3>
    c87c:	00aa0633          	add	a2,s4,a0
    c880:	00812883          	lw	a7,8(sp)
    c884:	00064703          	lbu	a4,0(a2)
    c888:	00a00593          	li	a1,10
    c88c:	00088513          	mv	a0,a7
    c890:	eeed8423          	sb	a4,-280(s11)
    c894:	358000ef          	jal	cbec <__modsi3>
    c898:	002c0c13          	add	s8,s8,2
    c89c:	00050893          	mv	a7,a0
    c8a0:	000c0693          	mv	a3,s8
    c8a4:	f8cff06f          	j	c030 <ee_printf+0xa80>
    c8a8:	00168793          	add	a5,a3,1
    c8ac:	00e686b3          	add	a3,a3,a4
    c8b0:	00040613          	mv	a2,s0
    c8b4:	0080006f          	j	c8bc <ee_printf+0x130c>
    c8b8:	00178793          	add	a5,a5,1
    c8bc:	fff7c583          	lbu	a1,-1(a5)
    c8c0:	00160613          	add	a2,a2,1
    c8c4:	feb60fa3          	sb	a1,-1(a2)
    c8c8:	fef698e3          	bne	a3,a5,c8b8 <ee_printf+0x1308>
    c8cc:	00e40433          	add	s0,s0,a4
    c8d0:	8ccff06f          	j	b99c <ee_printf+0x3ec>
    c8d4:	03010913          	add	s2,sp,48
    c8d8:	00090413          	mv	s0,s2
    c8dc:	00040023          	sb	zero,0(s0)
    c8e0:	03014583          	lbu	a1,48(sp)
    c8e4:	00058463          	beqz	a1,c8ec <ee_printf+0x133c>
    c8e8:	d9dfe06f          	j	b684 <ee_printf+0xd4>
    c8ec:	16c12083          	lw	ra,364(sp)
    c8f0:	16812403          	lw	s0,360(sp)
    c8f4:	16012903          	lw	s2,352(sp)
    c8f8:	15812a03          	lw	s4,344(sp)
    c8fc:	00000513          	li	a0,0
    c900:	19010113          	add	sp,sp,400
    c904:	00008067          	ret
    c908:	13b12e23          	sw	s11,316(sp)
    c90c:	06c00713          	li	a4,108
    c910:	04096913          	or	s2,s2,64
    c914:	d0e59e63          	bne	a1,a4,be30 <ee_printf+0x880>
    c918:	00010a37          	lui	s4,0x10
    c91c:	000c2683          	lw	a3,0(s8)
    c920:	730a0a13          	add	s4,s4,1840 # 10730 <errpat+0x700>
    c924:	004c0c13          	add	s8,s8,4
    c928:	abdff06f          	j	c3e4 <ee_printf+0xe34>
    c92c:	13b12e23          	sw	s11,316(sp)
    c930:	04096913          	or	s2,s2,64
    c934:	000d0993          	mv	s3,s10
    c938:	cf8ff06f          	j	be30 <ee_printf+0x880>
    c93c:	00140793          	add	a5,s0,1
    c940:	ffe48693          	add	a3,s1,-2
    c944:	8b8ff06f          	j	b9fc <ee_printf+0x44c>
    c948:	00240713          	add	a4,s0,2
    c94c:	00088793          	mv	a5,a7
    c950:	a24ff06f          	j	bb74 <ee_printf+0x5c4>
    c954:	00040793          	mv	a5,s0
    c958:	c4cff06f          	j	bda4 <ee_printf+0x7f4>
    c95c:	00040793          	mv	a5,s0
    c960:	8ccff06f          	j	ba2c <ee_printf+0x47c>
    c964:	ffd48593          	add	a1,s1,-3
    c968:	00240793          	add	a5,s0,2
    c96c:	00058693          	mv	a3,a1
    c970:	c04ff06f          	j	bd74 <ee_printf+0x7c4>
    c974:	00240613          	add	a2,s0,2
    c978:	ffd48793          	add	a5,s1,-3
    c97c:	b14ff06f          	j	bc90 <ee_printf+0x6e0>
    c980:	00140613          	add	a2,s0,1
    c984:	ffe48793          	add	a5,s1,-2
    c988:	b08ff06f          	j	bc90 <ee_printf+0x6e0>
    c98c:	00078493          	mv	s1,a5
    c990:	83dff06f          	j	c1cc <ee_printf+0xc1c>
    c994:	00240793          	add	a5,s0,2
    c998:	ffd48693          	add	a3,s1,-3
    c99c:	860ff06f          	j	b9fc <ee_printf+0x44c>
    c9a0:	01814683          	lbu	a3,24(sp)
    c9a4:	01914703          	lbu	a4,25(sp)
    c9a8:	03a00793          	li	a5,58
    c9ac:	00d40023          	sb	a3,0(s0)
    c9b0:	00e400a3          	sb	a4,1(s0)
    c9b4:	00f40123          	sb	a5,2(s0)
    c9b8:	01f401a3          	sb	t6,3(s0)
    c9bc:	01e40223          	sb	t5,4(s0)
    c9c0:	00f402a3          	sb	a5,5(s0)
    c9c4:	01d40323          	sb	t4,6(s0)
    c9c8:	01c403a3          	sb	t3,7(s0)
    c9cc:	00f40423          	sb	a5,8(s0)
    c9d0:	006404a3          	sb	t1,9(s0)
    c9d4:	01140523          	sb	a7,10(s0)
    c9d8:	00f405a3          	sb	a5,11(s0)
    c9dc:	01040623          	sb	a6,12(s0)
    c9e0:	00a406a3          	sb	a0,13(s0)
    c9e4:	00f40723          	sb	a5,14(s0)
    c9e8:	00b407a3          	sb	a1,15(s0)
    c9ec:	bedff06f          	j	c5d8 <ee_printf+0x1028>
    c9f0:	00078413          	mv	s0,a5
    c9f4:	961ff06f          	j	c354 <ee_printf+0xda4>
    c9f8:	001d4783          	lbu	a5,1(s10)
    c9fc:	00078463          	beqz	a5,ca04 <ee_printf+0x1454>
    ca00:	c39fe06f          	j	b638 <ee_printf+0x88>
    ca04:	c4dfe06f          	j	b650 <ee_printf+0xa0>
    ca08:	000c2783          	lw	a5,0(s8)
    ca0c:	00140413          	add	s0,s0,1
    ca10:	00080c13          	mv	s8,a6
    ca14:	fef40fa3          	sb	a5,-1(s0)
    ca18:	001d4783          	lbu	a5,1(s10)
    ca1c:	00078463          	beqz	a5,ca24 <ee_printf+0x1474>
    ca20:	c19fe06f          	j	b638 <ee_printf+0x88>
    ca24:	c2dfe06f          	j	b650 <ee_printf+0xa0>
    ca28:	00040613          	mv	a2,s0
    ca2c:	a94ff06f          	j	bcc0 <ee_printf+0x710>
    ca30:	00078493          	mv	s1,a5
    ca34:	ee9fe06f          	j	b91c <ee_printf+0x36c>
    ca38:	01097713          	and	a4,s2,16
    ca3c:	a0070263          	beqz	a4,bc40 <ee_printf+0x690>
    ca40:	00000713          	li	a4,0
    ca44:	f59fe06f          	j	b99c <ee_printf+0x3ec>
    ca48:	00340713          	add	a4,s0,3
    ca4c:	ffd48793          	add	a5,s1,-3
    ca50:	924ff06f          	j	bb74 <ee_printf+0x5c4>
    ca54:	01340793          	add	a5,s0,19
    ca58:	ffd60693          	add	a3,a2,-3
    ca5c:	bd5ff06f          	j	c630 <ee_printf+0x1080>
    ca60:	01240793          	add	a5,s0,18
    ca64:	ffe60693          	add	a3,a2,-2
    ca68:	bc9ff06f          	j	c630 <ee_printf+0x1080>
    ca6c:	00078413          	mv	s0,a5
    ca70:	c3dff06f          	j	c6ac <ee_printf+0x10fc>
    ca74:	00240713          	add	a4,s0,2
    ca78:	ffd48793          	add	a5,s1,-3
    ca7c:	ed8ff06f          	j	c154 <ee_printf+0xba4>
    ca80:	00140713          	add	a4,s0,1
    ca84:	ffe48793          	add	a5,s1,-2
    ca88:	eccff06f          	j	c154 <ee_printf+0xba4>
    ca8c:	00040713          	mv	a4,s0
    ca90:	ef4ff06f          	j	c184 <ee_printf+0xbd4>
    ca94:	00040793          	mv	a5,s0
    ca98:	acdff06f          	j	c564 <ee_printf+0xfb4>
    ca9c:	00278793          	add	a5,a5,2
    caa0:	ffd48713          	add	a4,s1,-3
    caa4:	839ff06f          	j	c2dc <ee_printf+0xd2c>
    caa8:	00240713          	add	a4,s0,2
    caac:	ffd48613          	add	a2,s1,-3
    cab0:	a85ff06f          	j	c534 <ee_printf+0xf84>
    cab4:	00140713          	add	a4,s0,1
    cab8:	ffe48613          	add	a2,s1,-2
    cabc:	a79ff06f          	j	c534 <ee_printf+0xf84>
    cac0:	04096913          	or	s2,s2,64
    cac4:	000d0993          	mv	s3,s10
    cac8:	01000613          	li	a2,16
    cacc:	dcdfe06f          	j	b898 <ee_printf+0x2e8>
    cad0:	00296913          	or	s2,s2,2
    cad4:	004c0693          	add	a3,s8,4
    cad8:	000d0993          	mv	s3,s10
    cadc:	954ff06f          	j	bc30 <ee_printf+0x680>
    cae0:	13b12e23          	sw	s11,316(sp)
    cae4:	000d0993          	mv	s3,s10
    cae8:	b48ff06f          	j	be30 <ee_printf+0x880>
    caec:	00010a37          	lui	s4,0x10
    caf0:	708a0a13          	add	s4,s4,1800 # 10708 <errpat+0x6d8>
    caf4:	d3cff06f          	j	c030 <ee_printf+0xa80>
    caf8:	00010a37          	lui	s4,0x10
    cafc:	00200693          	li	a3,2
    cb00:	00100c13          	li	s8,1
    cb04:	00000593          	li	a1,0
    cb08:	708a0a13          	add	s4,s4,1800 # 10708 <errpat+0x6d8>
    cb0c:	bacff06f          	j	beb8 <ee_printf+0x908>
    cb10:	00010a37          	lui	s4,0x10
    cb14:	708a0a13          	add	s4,s4,1800 # 10708 <errpat+0x6d8>
    cb18:	c58ff06f          	j	bf70 <ee_printf+0x9c0>
    cb1c:	00010a37          	lui	s4,0x10
    cb20:	708a0a13          	add	s4,s4,1800 # 10708 <errpat+0x6d8>
    cb24:	dbcff06f          	j	c0e0 <ee_printf+0xb30>
    cb28:	01c14783          	lbu	a5,28(sp)
    cb2c:	00440713          	add	a4,s0,4
    cb30:	00540613          	add	a2,s0,5
    cb34:	00f40223          	sb	a5,4(s0)
    cb38:	00500693          	li	a3,5
    cb3c:	00400793          	li	a5,4
    cb40:	be5ff06f          	j	c724 <ee_printf+0x1174>

0000cb44 <__mulsi3>:
    cb44:	00050613          	mv	a2,a0
    cb48:	00000513          	li	a0,0
    cb4c:	0015f693          	and	a3,a1,1
    cb50:	00068463          	beqz	a3,cb58 <__mulsi3+0x14>
    cb54:	00c50533          	add	a0,a0,a2
    cb58:	0015d593          	srl	a1,a1,0x1
    cb5c:	00161613          	sll	a2,a2,0x1
    cb60:	fe0596e3          	bnez	a1,cb4c <__mulsi3+0x8>
    cb64:	00008067          	ret

0000cb68 <__divsi3>:
    cb68:	06054063          	bltz	a0,cbc8 <__umodsi3+0x10>
    cb6c:	0605c663          	bltz	a1,cbd8 <__umodsi3+0x20>

0000cb70 <__hidden___udivsi3>:
    cb70:	00058613          	mv	a2,a1
    cb74:	00050593          	mv	a1,a0
    cb78:	fff00513          	li	a0,-1
    cb7c:	02060c63          	beqz	a2,cbb4 <__hidden___udivsi3+0x44>
    cb80:	00100693          	li	a3,1
    cb84:	00b67a63          	bgeu	a2,a1,cb98 <__hidden___udivsi3+0x28>
    cb88:	00c05863          	blez	a2,cb98 <__hidden___udivsi3+0x28>
    cb8c:	00161613          	sll	a2,a2,0x1
    cb90:	00169693          	sll	a3,a3,0x1
    cb94:	feb66ae3          	bltu	a2,a1,cb88 <__hidden___udivsi3+0x18>
    cb98:	00000513          	li	a0,0
    cb9c:	00c5e663          	bltu	a1,a2,cba8 <__hidden___udivsi3+0x38>
    cba0:	40c585b3          	sub	a1,a1,a2
    cba4:	00d56533          	or	a0,a0,a3
    cba8:	0016d693          	srl	a3,a3,0x1
    cbac:	00165613          	srl	a2,a2,0x1
    cbb0:	fe0696e3          	bnez	a3,cb9c <__hidden___udivsi3+0x2c>
    cbb4:	00008067          	ret

0000cbb8 <__umodsi3>:
    cbb8:	00008293          	mv	t0,ra
    cbbc:	fb5ff0ef          	jal	cb70 <__hidden___udivsi3>
    cbc0:	00058513          	mv	a0,a1
    cbc4:	00028067          	jr	t0
    cbc8:	40a00533          	neg	a0,a0
    cbcc:	00b04863          	bgtz	a1,cbdc <__umodsi3+0x24>
    cbd0:	40b005b3          	neg	a1,a1
    cbd4:	f9dff06f          	j	cb70 <__hidden___udivsi3>
    cbd8:	40b005b3          	neg	a1,a1
    cbdc:	00008293          	mv	t0,ra
    cbe0:	f91ff0ef          	jal	cb70 <__hidden___udivsi3>
    cbe4:	40a00533          	neg	a0,a0
    cbe8:	00028067          	jr	t0

0000cbec <__modsi3>:
    cbec:	00008293          	mv	t0,ra
    cbf0:	0005ca63          	bltz	a1,cc04 <__modsi3+0x18>
    cbf4:	00054c63          	bltz	a0,cc0c <__modsi3+0x20>
    cbf8:	f79ff0ef          	jal	cb70 <__hidden___udivsi3>
    cbfc:	00058513          	mv	a0,a1
    cc00:	00028067          	jr	t0
    cc04:	40b005b3          	neg	a1,a1
    cc08:	fe0558e3          	bgez	a0,cbf8 <__modsi3+0xc>
    cc0c:	40a00533          	neg	a0,a0
    cc10:	f61ff0ef          	jal	cb70 <__hidden___udivsi3>
    cc14:	40b00533          	neg	a0,a1
    cc18:	00028067          	jr	t0

セクション .text.startup の逆アセンブル:

0000cc1c <main>:
    cc1c:	81010113          	add	sp,sp,-2032
    cc20:	00001737          	lui	a4,0x1
    cc24:	7e112623          	sw	ra,2028(sp)
    cc28:	7e812423          	sw	s0,2024(sp)
    cc2c:	7e912223          	sw	s1,2020(sp)
    cc30:	7f212023          	sw	s2,2016(sp)
    cc34:	7d312e23          	sw	s3,2012(sp)
    cc38:	7d412c23          	sw	s4,2008(sp)
    cc3c:	7d512a23          	sw	s5,2004(sp)
    cc40:	7d612823          	sw	s6,2000(sp)
    cc44:	7d712623          	sw	s7,1996(sp)
    cc48:	7d812423          	sw	s8,1992(sp)
    cc4c:	7d912223          	sw	s9,1988(sp)
    cc50:	7da12023          	sw	s10,1984(sp)
    cc54:	7bb12e23          	sw	s11,1980(sp)
    cc58:	82070693          	add	a3,a4,-2016 # 820 <_start-0x77e0>
    cc5c:	f8010113          	add	sp,sp,-128
    cc60:	fffff7b7          	lui	a5,0xfffff
    cc64:	00f686b3          	add	a3,a3,a5
    cc68:	01010793          	add	a5,sp,16
    cc6c:	00f687b3          	add	a5,a3,a5
    cc70:	fffff637          	lui	a2,0xfffff
    cc74:	00f12223          	sw	a5,4(sp)
    cc78:	7e860613          	add	a2,a2,2024 # fffff7e8 <stack_top+0xfffdf7e8>
    cc7c:	82070793          	add	a5,a4,-2016
    cc80:	01010693          	add	a3,sp,16
    cc84:	00c787b3          	add	a5,a5,a2
    cc88:	fffff5b7          	lui	a1,0xfffff
    cc8c:	00d78633          	add	a2,a5,a3
    cc90:	7e458593          	add	a1,a1,2020 # fffff7e4 <stack_top+0xfffdf7e4>
    cc94:	82070793          	add	a5,a4,-2016
    cc98:	00b787b3          	add	a5,a5,a1
    cc9c:	00d785b3          	add	a1,a5,a3
    cca0:	00412783          	lw	a5,4(sp)
    cca4:	05e10513          	add	a0,sp,94
    cca8:	7e07a223          	sw	zero,2020(a5) # fffff7e4 <stack_top+0xfffdf7e4>
    ccac:	ab4fe0ef          	jal	af60 <portable_init>
    ccb0:	00100513          	li	a0,1
    ccb4:	e00fd0ef          	jal	a2b4 <get_seed_32>
    ccb8:	00412703          	lw	a4,4(sp)
    ccbc:	00050793          	mv	a5,a0
    ccc0:	00200513          	li	a0,2
    ccc4:	7ef71623          	sh	a5,2028(a4)
    ccc8:	decfd0ef          	jal	a2b4 <get_seed_32>
    cccc:	00412703          	lw	a4,4(sp)
    ccd0:	00050793          	mv	a5,a0
    ccd4:	00300513          	li	a0,3
    ccd8:	7ef71723          	sh	a5,2030(a4)
    ccdc:	dd8fd0ef          	jal	a2b4 <get_seed_32>
    cce0:	00412703          	lw	a4,4(sp)
    cce4:	00050793          	mv	a5,a0
    cce8:	00400513          	li	a0,4
    ccec:	7ef71823          	sh	a5,2032(a4)
    ccf0:	dc4fd0ef          	jal	a2b4 <get_seed_32>
    ccf4:	00050793          	mv	a5,a0
    ccf8:	00500513          	li	a0,5
    ccfc:	02f12c23          	sw	a5,56(sp)
    cd00:	db4fd0ef          	jal	a2b4 <get_seed_32>
    cd04:	00051463          	bnez	a0,cd0c <main+0xf0>
    cd08:	00700513          	li	a0,7
    cd0c:	00001737          	lui	a4,0x1
    cd10:	fffff7b7          	lui	a5,0xfffff
    cd14:	82070713          	add	a4,a4,-2016 # 820 <_start-0x77e0>
    cd18:	00f70733          	add	a4,a4,a5
    cd1c:	01010793          	add	a5,sp,16
    cd20:	00f707b3          	add	a5,a4,a5
    cd24:	00f12223          	sw	a5,4(sp)
    cd28:	7ec7a783          	lw	a5,2028(a5) # fffff7ec <stack_top+0xfffdf7ec>
    cd2c:	02a12e23          	sw	a0,60(sp)
    cd30:	32079863          	bnez	a5,d060 <main+0x444>
    cd34:	00412783          	lw	a5,4(sp)
    cd38:	7f079783          	lh	a5,2032(a5)
    cd3c:	4e078863          	beqz	a5,d22c <main+0x610>
    cd40:	00001737          	lui	a4,0x1
    cd44:	fffff7b7          	lui	a5,0xfffff
    cd48:	82070713          	add	a4,a4,-2016 # 820 <_start-0x77e0>
    cd4c:	00f70733          	add	a4,a4,a5
    cd50:	01010793          	add	a5,sp,16
    cd54:	00f707b3          	add	a5,a4,a5
    cd58:	00257993          	and	s3,a0,2
    cd5c:	06010713          	add	a4,sp,96
    cd60:	00157913          	and	s2,a0,1
    cd64:	013035b3          	snez	a1,s3
    cd68:	00f12223          	sw	a5,4(sp)
    cd6c:	7ee7aa23          	sw	a4,2036(a5) # fffff7f4 <stack_top+0xfffdf7f4>
    cd70:	04011e23          	sh	zero,92(sp)
    cd74:	00457a13          	and	s4,a0,4
    cd78:	00b904b3          	add	s1,s2,a1
    cd7c:	2a0a1863          	bnez	s4,d02c <main+0x410>
    cd80:	00048593          	mv	a1,s1
    cd84:	7d000513          	li	a0,2000
    cd88:	de9ff0ef          	jal	cb70 <__hidden___udivsi3>
    cd8c:	02a12a23          	sw	a0,52(sp)
    cd90:	00050593          	mv	a1,a0
    cd94:	fffff737          	lui	a4,0xfffff
    cd98:	4c091863          	bnez	s2,d268 <main+0x64c>
    cd9c:	4a099063          	bnez	s3,d23c <main+0x620>
    cda0:	000016b7          	lui	a3,0x1
    cda4:	fffff737          	lui	a4,0xfffff
    cda8:	03c12783          	lw	a5,60(sp)
    cdac:	82068693          	add	a3,a3,-2016 # 820 <_start-0x77e0>
    cdb0:	00e686b3          	add	a3,a3,a4
    cdb4:	01010713          	add	a4,sp,16
    cdb8:	00e68733          	add	a4,a3,a4
    cdbc:	00e12223          	sw	a4,4(sp)
    cdc0:	0017f713          	and	a4,a5,1
    cdc4:	02070063          	beqz	a4,cde4 <main+0x1c8>
    cdc8:	00412783          	lw	a5,4(sp)
    cdcc:	03412503          	lw	a0,52(sp)
    cdd0:	7ec79603          	lh	a2,2028(a5)
    cdd4:	7f87a583          	lw	a1,2040(a5)
    cdd8:	ae1fb0ef          	jal	88b8 <core_list_init>
    cddc:	03c12783          	lw	a5,60(sp)
    cde0:	04a12023          	sw	a0,64(sp)
    cde4:	0027f713          	and	a4,a5,2
    cde8:	1e071a63          	bnez	a4,cfdc <main+0x3c0>
    cdec:	0047f793          	and	a5,a5,4
    cdf0:	02078863          	beqz	a5,ce20 <main+0x204>
    cdf4:	00001737          	lui	a4,0x1
    cdf8:	fffff7b7          	lui	a5,0xfffff
    cdfc:	82070713          	add	a4,a4,-2016 # 820 <_start-0x77e0>
    ce00:	00f70733          	add	a4,a4,a5
    ce04:	01010793          	add	a5,sp,16
    ce08:	00f707b3          	add	a5,a4,a5
    ce0c:	03012603          	lw	a2,48(sp)
    ce10:	7ec79583          	lh	a1,2028(a5) # fffff7ec <stack_top+0xfffdf7ec>
    ce14:	03412503          	lw	a0,52(sp)
    ce18:	00f12223          	sw	a5,4(sp)
    ce1c:	cf9fc0ef          	jal	9b14 <core_init_state>
    ce20:	03812783          	lw	a5,56(sp)
    ce24:	0c079063          	bnez	a5,cee4 <main+0x2c8>
    ce28:	00100793          	li	a5,1
    ce2c:	fffff4b7          	lui	s1,0xfffff
    ce30:	02f12c23          	sw	a5,56(sp)
    ce34:	000017b7          	lui	a5,0x1
    ce38:	7ec48493          	add	s1,s1,2028 # fffff7ec <stack_top+0xfffdf7ec>
    ce3c:	82078793          	add	a5,a5,-2016 # 820 <_start-0x77e0>
    ce40:	009787b3          	add	a5,a5,s1
    ce44:	01010713          	add	a4,sp,16
    ce48:	00e784b3          	add	s1,a5,a4
    ce4c:	03812703          	lw	a4,56(sp)
    ce50:	00000413          	li	s0,0
    ce54:	00271793          	sll	a5,a4,0x2
    ce58:	00e787b3          	add	a5,a5,a4
    ce5c:	00179793          	sll	a5,a5,0x1
    ce60:	02f12c23          	sw	a5,56(sp)
    ce64:	fa5fd0ef          	jal	ae08 <start_time>
    ce68:	03812903          	lw	s2,56(sp)
    ce6c:	04012a23          	sw	zero,84(sp)
    ce70:	04012c23          	sw	zero,88(sp)
    ce74:	04090263          	beqz	s2,ceb8 <main+0x29c>
    ce78:	00100593          	li	a1,1
    ce7c:	00048513          	mv	a0,s1
    ce80:	d98fb0ef          	jal	8418 <core_bench_list>
    ce84:	05415583          	lhu	a1,84(sp)
    ce88:	db8fd0ef          	jal	a440 <crcu16>
    ce8c:	00050793          	mv	a5,a0
    ce90:	fff00593          	li	a1,-1
    ce94:	00048513          	mv	a0,s1
    ce98:	04f11a23          	sh	a5,84(sp)
    ce9c:	d7cfb0ef          	jal	8418 <core_bench_list>
    cea0:	05415583          	lhu	a1,84(sp)
    cea4:	d9cfd0ef          	jal	a440 <crcu16>
    cea8:	04a11a23          	sh	a0,84(sp)
    ceac:	10040e63          	beqz	s0,cfc8 <main+0x3ac>
    ceb0:	00140413          	add	s0,s0,1
    ceb4:	fc8912e3          	bne	s2,s0,ce78 <main+0x25c>
    ceb8:	fe1fd0ef          	jal	ae98 <stop_time>
    cebc:	86cfe0ef          	jal	af28 <get_time>
    cec0:	880fe0ef          	jal	af40 <time_in_secs>
    cec4:	f80504e3          	beqz	a0,ce4c <main+0x230>
    cec8:	00050593          	mv	a1,a0
    cecc:	00a00513          	li	a0,10
    ced0:	ca1ff0ef          	jal	cb70 <__hidden___udivsi3>
    ced4:	03812583          	lw	a1,56(sp)
    ced8:	00150513          	add	a0,a0,1
    cedc:	c69ff0ef          	jal	cb44 <__mulsi3>
    cee0:	02a12c23          	sw	a0,56(sp)
    cee4:	f25fd0ef          	jal	ae08 <start_time>
    cee8:	00001437          	lui	s0,0x1
    ceec:	fffff537          	lui	a0,0xfffff
    cef0:	7ec50513          	add	a0,a0,2028 # fffff7ec <stack_top+0xfffdf7ec>
    cef4:	82040793          	add	a5,s0,-2016 # 820 <_start-0x77e0>
    cef8:	00a787b3          	add	a5,a5,a0
    cefc:	01010713          	add	a4,sp,16
    cf00:	00e78533          	add	a0,a5,a4
    cf04:	f19fb0ef          	jal	8e1c <iterate>
    cf08:	f91fd0ef          	jal	ae98 <stop_time>
    cf0c:	81cfe0ef          	jal	af28 <get_time>
    cf10:	fffff7b7          	lui	a5,0xfffff
    cf14:	82040713          	add	a4,s0,-2016
    cf18:	00f70733          	add	a4,a4,a5
    cf1c:	01010793          	add	a5,sp,16
    cf20:	00f707b3          	add	a5,a4,a5
    cf24:	00050493          	mv	s1,a0
    cf28:	7ec79503          	lh	a0,2028(a5) # fffff7ec <stack_top+0xfffdf7ec>
    cf2c:	00000593          	li	a1,0
    cf30:	00f12223          	sw	a5,4(sp)
    cf34:	bf1fd0ef          	jal	ab24 <crc16>
    cf38:	00412783          	lw	a5,4(sp)
    cf3c:	00050593          	mv	a1,a0
    cf40:	7ee79503          	lh	a0,2030(a5)
    cf44:	be1fd0ef          	jal	ab24 <crc16>
    cf48:	00412783          	lw	a5,4(sp)
    cf4c:	00050593          	mv	a1,a0
    cf50:	7f079503          	lh	a0,2032(a5)
    cf54:	bd1fd0ef          	jal	ab24 <crc16>
    cf58:	00050593          	mv	a1,a0
    cf5c:	03411503          	lh	a0,52(sp)
    cf60:	bc5fd0ef          	jal	ab24 <crc16>
    cf64:	000087b7          	lui	a5,0x8
    cf68:	b0578793          	add	a5,a5,-1275 # 7b05 <_start-0x4fb>
    cf6c:	00050913          	mv	s2,a0
    cf70:	74f50063          	beq	a0,a5,d6b0 <main+0xa94>
    cf74:	10a7fe63          	bgeu	a5,a0,d090 <main+0x474>
    cf78:	000097b7          	lui	a5,0x9
    cf7c:	a0278793          	add	a5,a5,-1534 # 8a02 <core_list_init+0x14a>
    cf80:	6ef50c63          	beq	a0,a5,d678 <main+0xa5c>
    cf84:	0000f7b7          	lui	a5,0xf
    cf88:	9f578793          	add	a5,a5,-1547 # e9f5 <main+0x1dd9>
    cf8c:	30f51663          	bne	a0,a5,d298 <main+0x67c>
    cf90:	00010537          	lui	a0,0x10
    cf94:	2ec50513          	add	a0,a0,748 # 102ec <errpat+0x2bc>
    cf98:	e18fe0ef          	jal	b5b0 <ee_printf>
    cf9c:	00009a37          	lui	s4,0x9
    cfa0:	000027b7          	lui	a5,0x2
    cfa4:	0000e9b7          	lui	s3,0xe
    cfa8:	fd778793          	add	a5,a5,-41 # 1fd7 <_start-0x6029>
    cfac:	e3aa0a13          	add	s4,s4,-454 # 8e3a <iterate+0x1e>
    cfb0:	71498993          	add	s3,s3,1812 # e714 <main+0x1af8>
    cfb4:	00f12623          	sw	a5,12(sp)
    cfb8:	000a0c13          	mv	s8,s4
    cfbc:	00078b93          	mv	s7,a5
    cfc0:	00098b13          	mv	s6,s3
    cfc4:	1180006f          	j	d0dc <main+0x4c0>
    cfc8:	04a11b23          	sh	a0,86(sp)
    cfcc:	00100793          	li	a5,1
    cfd0:	eef904e3          	beq	s2,a5,ceb8 <main+0x29c>
    cfd4:	00100413          	li	s0,1
    cfd8:	ea1ff06f          	j	ce78 <main+0x25c>
    cfdc:	00001737          	lui	a4,0x1
    cfe0:	fffff7b7          	lui	a5,0xfffff
    cfe4:	82070713          	add	a4,a4,-2016 # 820 <_start-0x77e0>
    cfe8:	00f70733          	add	a4,a4,a5
    cfec:	01010793          	add	a5,sp,16
    cff0:	00f707b3          	add	a5,a4,a5
    cff4:	00f12223          	sw	a5,4(sp)
    cff8:	00412703          	lw	a4,4(sp)
    cffc:	7ee79783          	lh	a5,2030(a5) # fffff7ee <stack_top+0xfffdf7ee>
    d000:	03412503          	lw	a0,52(sp)
    d004:	7ec71603          	lh	a2,2028(a4)
    d008:	7fc72583          	lw	a1,2044(a4)
    d00c:	01079793          	sll	a5,a5,0x10
    d010:	00c7e633          	or	a2,a5,a2
    d014:	04410693          	add	a3,sp,68
    d018:	c50fc0ef          	jal	9468 <core_init_matrix>
    d01c:	03c12783          	lw	a5,60(sp)
    d020:	0047f793          	and	a5,a5,4
    d024:	dc0798e3          	bnez	a5,cdf4 <main+0x1d8>
    d028:	df9ff06f          	j	ce20 <main+0x204>
    d02c:	00148593          	add	a1,s1,1
    d030:	7d000513          	li	a0,2000
    d034:	b3dff0ef          	jal	cb70 <__hidden___udivsi3>
    d038:	02a12a23          	sw	a0,52(sp)
    d03c:	00050593          	mv	a1,a0
    d040:	22091463          	bnez	s2,d268 <main+0x64c>
    d044:	6a099c63          	bnez	s3,d6fc <main+0xae0>
    d048:	00048513          	mv	a0,s1
    d04c:	af9ff0ef          	jal	cb44 <__mulsi3>
    d050:	06010793          	add	a5,sp,96
    d054:	00a787b3          	add	a5,a5,a0
    d058:	02f12823          	sw	a5,48(sp)
    d05c:	d45ff06f          	j	cda0 <main+0x184>
    d060:	00100713          	li	a4,1
    d064:	cce79ee3          	bne	a5,a4,cd40 <main+0x124>
    d068:	00412783          	lw	a5,4(sp)
    d06c:	7f079783          	lh	a5,2032(a5)
    d070:	cc0798e3          	bnez	a5,cd40 <main+0x124>
    d074:	00412703          	lw	a4,4(sp)
    d078:	341537b7          	lui	a5,0x34153
    d07c:	41578793          	add	a5,a5,1045 # 34153415 <stack_top+0x34133415>
    d080:	7ef72623          	sw	a5,2028(a4)
    d084:	06600793          	li	a5,102
    d088:	7ef71823          	sh	a5,2032(a4)
    d08c:	cb5ff06f          	j	cd40 <main+0x124>
    d090:	000027b7          	lui	a5,0x2
    d094:	8f278793          	add	a5,a5,-1806 # 18f2 <_start-0x670e>
    d098:	5af50663          	beq	a0,a5,d644 <main+0xa28>
    d09c:	000057b7          	lui	a5,0x5
    d0a0:	eaf78793          	add	a5,a5,-337 # 4eaf <_start-0x3151>
    d0a4:	1ef51a63          	bne	a0,a5,d298 <main+0x67c>
    d0a8:	00010537          	lui	a0,0x10
    d0ac:	2b850513          	add	a0,a0,696 # 102b8 <errpat+0x288>
    d0b0:	d00fe0ef          	jal	b5b0 <ee_printf>
    d0b4:	0000ea37          	lui	s4,0xe
    d0b8:	000057b7          	lui	a5,0x5
    d0bc:	000079b7          	lui	s3,0x7
    d0c0:	60878793          	add	a5,a5,1544 # 5608 <_start-0x29f8>
    d0c4:	5a4a0a13          	add	s4,s4,1444 # e5a4 <main+0x1988>
    d0c8:	a7998993          	add	s3,s3,-1415 # 6a79 <_start-0x1587>
    d0cc:	00f12623          	sw	a5,12(sp)
    d0d0:	000a0c13          	mv	s8,s4
    d0d4:	00078b93          	mv	s7,a5
    d0d8:	00098b13          	mv	s6,s3
    d0dc:	00010cb7          	lui	s9,0x10
    d0e0:	76cca783          	lw	a5,1900(s9) # 1076c <default_num_contexts>
    d0e4:	60078263          	beqz	a5,d6e8 <main+0xacc>
    d0e8:	00001737          	lui	a4,0x1
    d0ec:	fffff7b7          	lui	a5,0xfffff
    d0f0:	82070713          	add	a4,a4,-2016 # 820 <_start-0x77e0>
    d0f4:	00f70733          	add	a4,a4,a5
    d0f8:	01010793          	add	a5,sp,16
    d0fc:	00f707b3          	add	a5,a4,a5
    d100:	00000a93          	li	s5,0
    d104:	00000d93          	li	s11,0
    d108:	00f12223          	sw	a5,4(sp)
    d10c:	00001d37          	lui	s10,0x1
    d110:	0440006f          	j	d154 <main+0x538>
    d114:	00412703          	lw	a4,4(sp)
    d118:	01b407b3          	add	a5,s0,s11
    d11c:	00279793          	sll	a5,a5,0x2
    d120:	00f707b3          	add	a5,a4,a5
    d124:	00fd07b3          	add	a5,s10,a5
    d128:	82c7d783          	lhu	a5,-2004(a5) # ffffe82c <stack_top+0xfffde82c>
    d12c:	001d8593          	add	a1,s11,1
    d130:	76cca683          	lw	a3,1900(s9)
    d134:	015787b3          	add	a5,a5,s5
    d138:	01059d93          	sll	s11,a1,0x10
    d13c:	01079413          	sll	s0,a5,0x10
    d140:	01079a93          	sll	s5,a5,0x10
    d144:	010ddd93          	srl	s11,s11,0x10
    d148:	01045413          	srl	s0,s0,0x10
    d14c:	410ada93          	sra	s5,s5,0x10
    d150:	14ddfa63          	bgeu	s11,a3,d2a4 <main+0x688>
    d154:	00412703          	lw	a4,4(sp)
    d158:	004d9413          	sll	s0,s11,0x4
    d15c:	01b407b3          	add	a5,s0,s11
    d160:	00279793          	sll	a5,a5,0x2
    d164:	00f707b3          	add	a5,a4,a5
    d168:	00fd07b3          	add	a5,s10,a5
    d16c:	80c7a683          	lw	a3,-2036(a5)
    d170:	82079623          	sh	zero,-2004(a5)
    d174:	0016f613          	and	a2,a3,1
    d178:	02060c63          	beqz	a2,d1b0 <main+0x594>
    d17c:	8267d603          	lhu	a2,-2010(a5)
    d180:	00f12423          	sw	a5,8(sp)
    d184:	03660663          	beq	a2,s6,d1b0 <main+0x594>
    d188:	000107b7          	lui	a5,0x10
    d18c:	00098693          	mv	a3,s3
    d190:	34878513          	add	a0,a5,840 # 10348 <errpat+0x318>
    d194:	000d8593          	mv	a1,s11
    d198:	c18fe0ef          	jal	b5b0 <ee_printf>
    d19c:	00812783          	lw	a5,8(sp)
    d1a0:	82c7d603          	lhu	a2,-2004(a5)
    d1a4:	80c7a683          	lw	a3,-2036(a5)
    d1a8:	00160613          	add	a2,a2,1
    d1ac:	82c79623          	sh	a2,-2004(a5)
    d1b0:	0026f793          	and	a5,a3,2
    d1b4:	04078663          	beqz	a5,d200 <main+0x5e4>
    d1b8:	00412703          	lw	a4,4(sp)
    d1bc:	01b407b3          	add	a5,s0,s11
    d1c0:	00279793          	sll	a5,a5,0x2
    d1c4:	00f707b3          	add	a5,a4,a5
    d1c8:	00fd07b3          	add	a5,s10,a5
    d1cc:	8287d603          	lhu	a2,-2008(a5)
    d1d0:	00f12423          	sw	a5,8(sp)
    d1d4:	03760663          	beq	a2,s7,d200 <main+0x5e4>
    d1d8:	00c12683          	lw	a3,12(sp)
    d1dc:	000107b7          	lui	a5,0x10
    d1e0:	37878513          	add	a0,a5,888 # 10378 <errpat+0x348>
    d1e4:	000d8593          	mv	a1,s11
    d1e8:	bc8fe0ef          	jal	b5b0 <ee_printf>
    d1ec:	00812783          	lw	a5,8(sp)
    d1f0:	82c7d603          	lhu	a2,-2004(a5)
    d1f4:	80c7a683          	lw	a3,-2036(a5)
    d1f8:	00160613          	add	a2,a2,1
    d1fc:	82c79623          	sh	a2,-2004(a5)
    d200:	0046f693          	and	a3,a3,4
    d204:	f00688e3          	beqz	a3,d114 <main+0x4f8>
    d208:	00412783          	lw	a5,4(sp)
    d20c:	01b40433          	add	s0,s0,s11
    d210:	00241413          	sll	s0,s0,0x2
    d214:	00878433          	add	s0,a5,s0
    d218:	008d0433          	add	s0,s10,s0
    d21c:	82a45603          	lhu	a2,-2006(s0)
    d220:	39861263          	bne	a2,s8,d5a4 <main+0x988>
    d224:	82c45783          	lhu	a5,-2004(s0)
    d228:	f05ff06f          	j	d12c <main+0x510>
    d22c:	00412703          	lw	a4,4(sp)
    d230:	06600793          	li	a5,102
    d234:	7ef71823          	sh	a5,2032(a4)
    d238:	b09ff06f          	j	cd40 <main+0x124>
    d23c:	412007b3          	neg	a5,s2
    d240:	06010693          	add	a3,sp,96
    d244:	00a7f7b3          	and	a5,a5,a0
    d248:	00f687b3          	add	a5,a3,a5
    d24c:	000016b7          	lui	a3,0x1
    d250:	82068693          	add	a3,a3,-2016 # 820 <_start-0x77e0>
    d254:	00e686b3          	add	a3,a3,a4
    d258:	01010713          	add	a4,sp,16
    d25c:	00e68733          	add	a4,a3,a4
    d260:	7ef72e23          	sw	a5,2044(a4)
    d264:	b3dff06f          	j	cda0 <main+0x184>
    d268:	00001737          	lui	a4,0x1
    d26c:	fffff7b7          	lui	a5,0xfffff
    d270:	82070713          	add	a4,a4,-2016 # 820 <_start-0x77e0>
    d274:	00f70733          	add	a4,a4,a5
    d278:	01010793          	add	a5,sp,16
    d27c:	00f707b3          	add	a5,a4,a5
    d280:	06010713          	add	a4,sp,96
    d284:	00f12223          	sw	a5,4(sp)
    d288:	7ee7ac23          	sw	a4,2040(a5) # fffff7f8 <stack_top+0xfffdf7f8>
    d28c:	46099863          	bnez	s3,d6fc <main+0xae0>
    d290:	da0a1ce3          	bnez	s4,d048 <main+0x42c>
    d294:	b0dff06f          	j	cda0 <main+0x184>
    d298:	00010437          	lui	s0,0x10
    d29c:	fff40413          	add	s0,s0,-1 # ffff <main+0x33e3>
    d2a0:	00010cb7          	lui	s9,0x10
    d2a4:	ad5fd0ef          	jal	ad78 <check_data_types>
    d2a8:	03412583          	lw	a1,52(sp)
    d2ac:	00850433          	add	s0,a0,s0
    d2b0:	00010537          	lui	a0,0x10
    d2b4:	3dc50513          	add	a0,a0,988 # 103dc <errpat+0x3ac>
    d2b8:	af8fe0ef          	jal	b5b0 <ee_printf>
    d2bc:	00010537          	lui	a0,0x10
    d2c0:	00048593          	mv	a1,s1
    d2c4:	3f450513          	add	a0,a0,1012 # 103f4 <errpat+0x3c4>
    d2c8:	ae8fe0ef          	jal	b5b0 <ee_printf>
    d2cc:	00048513          	mv	a0,s1
    d2d0:	c71fd0ef          	jal	af40 <time_in_secs>
    d2d4:	00050593          	mv	a1,a0
    d2d8:	00010537          	lui	a0,0x10
    d2dc:	40c50513          	add	a0,a0,1036 # 1040c <errpat+0x3dc>
    d2e0:	ad0fe0ef          	jal	b5b0 <ee_printf>
    d2e4:	01041413          	sll	s0,s0,0x10
    d2e8:	00048513          	mv	a0,s1
    d2ec:	01045413          	srl	s0,s0,0x10
    d2f0:	c51fd0ef          	jal	af40 <time_in_secs>
    d2f4:	30051c63          	bnez	a0,d60c <main+0x9f0>
    d2f8:	00048513          	mv	a0,s1
    d2fc:	c45fd0ef          	jal	af40 <time_in_secs>
    d300:	00900793          	li	a5,9
    d304:	2ea7f663          	bgeu	a5,a0,d5f0 <main+0x9d4>
    d308:	01041493          	sll	s1,s0,0x10
    d30c:	4104d493          	sra	s1,s1,0x10
    d310:	76cca583          	lw	a1,1900(s9) # 1076c <default_num_contexts>
    d314:	03812503          	lw	a0,56(sp)
    d318:	82dff0ef          	jal	cb44 <__mulsi3>
    d31c:	00050593          	mv	a1,a0
    d320:	00010537          	lui	a0,0x10
    d324:	47c50513          	add	a0,a0,1148 # 1047c <errpat+0x44c>
    d328:	a88fe0ef          	jal	b5b0 <ee_printf>
    d32c:	000105b7          	lui	a1,0x10
    d330:	00010537          	lui	a0,0x10
    d334:	49458593          	add	a1,a1,1172 # 10494 <errpat+0x464>
    d338:	4a050513          	add	a0,a0,1184 # 104a0 <errpat+0x470>
    d33c:	a74fe0ef          	jal	b5b0 <ee_printf>
    d340:	000105b7          	lui	a1,0x10
    d344:	00010537          	lui	a0,0x10
    d348:	31858593          	add	a1,a1,792 # 10318 <errpat+0x2e8>
    d34c:	4b850513          	add	a0,a0,1208 # 104b8 <errpat+0x488>
    d350:	a60fe0ef          	jal	b5b0 <ee_printf>
    d354:	000105b7          	lui	a1,0x10
    d358:	00010537          	lui	a0,0x10
    d35c:	4d058593          	add	a1,a1,1232 # 104d0 <errpat+0x4a0>
    d360:	4d850513          	add	a0,a0,1240 # 104d8 <errpat+0x4a8>
    d364:	a4cfe0ef          	jal	b5b0 <ee_printf>
    d368:	00010537          	lui	a0,0x10
    d36c:	00090593          	mv	a1,s2
    d370:	4f050513          	add	a0,a0,1264 # 104f0 <errpat+0x4c0>
    d374:	a3cfe0ef          	jal	b5b0 <ee_printf>
    d378:	03c12783          	lw	a5,60(sp)
    d37c:	0017f693          	and	a3,a5,1
    d380:	06068a63          	beqz	a3,d3f4 <main+0x7d8>
    d384:	76cca683          	lw	a3,1900(s9)
    d388:	06068663          	beqz	a3,d3f4 <main+0x7d8>
    d38c:	00001737          	lui	a4,0x1
    d390:	fffff7b7          	lui	a5,0xfffff
    d394:	82070713          	add	a4,a4,-2016 # 820 <_start-0x77e0>
    d398:	00f70733          	add	a4,a4,a5
    d39c:	01010793          	add	a5,sp,16
    d3a0:	00f707b3          	add	a5,a4,a5
    d3a4:	00000413          	li	s0,0
    d3a8:	000109b7          	lui	s3,0x10
    d3ac:	00f12223          	sw	a5,4(sp)
    d3b0:	00001937          	lui	s2,0x1
    d3b4:	00412703          	lw	a4,4(sp)
    d3b8:	00441793          	sll	a5,s0,0x4
    d3bc:	008787b3          	add	a5,a5,s0
    d3c0:	00279793          	sll	a5,a5,0x2
    d3c4:	00f707b3          	add	a5,a4,a5
    d3c8:	00f907b3          	add	a5,s2,a5
    d3cc:	8267d603          	lhu	a2,-2010(a5) # ffffe826 <stack_top+0xfffde826>
    d3d0:	00040593          	mv	a1,s0
    d3d4:	50c98513          	add	a0,s3,1292 # 1050c <errpat+0x4dc>
    d3d8:	9d8fe0ef          	jal	b5b0 <ee_printf>
    d3dc:	00140413          	add	s0,s0,1
    d3e0:	76cca783          	lw	a5,1900(s9)
    d3e4:	01041413          	sll	s0,s0,0x10
    d3e8:	01045413          	srl	s0,s0,0x10
    d3ec:	fcf464e3          	bltu	s0,a5,d3b4 <main+0x798>
    d3f0:	03c12783          	lw	a5,60(sp)
    d3f4:	0027f693          	and	a3,a5,2
    d3f8:	06068a63          	beqz	a3,d46c <main+0x850>
    d3fc:	76cca683          	lw	a3,1900(s9)
    d400:	2e068863          	beqz	a3,d6f0 <main+0xad4>
    d404:	00001737          	lui	a4,0x1
    d408:	fffff7b7          	lui	a5,0xfffff
    d40c:	82070713          	add	a4,a4,-2016 # 820 <_start-0x77e0>
    d410:	00f70733          	add	a4,a4,a5
    d414:	01010793          	add	a5,sp,16
    d418:	00f707b3          	add	a5,a4,a5
    d41c:	00000413          	li	s0,0
    d420:	000109b7          	lui	s3,0x10
    d424:	00f12223          	sw	a5,4(sp)
    d428:	00001937          	lui	s2,0x1
    d42c:	00412703          	lw	a4,4(sp)
    d430:	00441793          	sll	a5,s0,0x4
    d434:	008787b3          	add	a5,a5,s0
    d438:	00279793          	sll	a5,a5,0x2
    d43c:	00f707b3          	add	a5,a4,a5
    d440:	00f907b3          	add	a5,s2,a5
    d444:	8287d603          	lhu	a2,-2008(a5) # ffffe828 <stack_top+0xfffde828>
    d448:	00040593          	mv	a1,s0
    d44c:	52898513          	add	a0,s3,1320 # 10528 <errpat+0x4f8>
    d450:	960fe0ef          	jal	b5b0 <ee_printf>
    d454:	00140413          	add	s0,s0,1
    d458:	76cca783          	lw	a5,1900(s9)
    d45c:	01041413          	sll	s0,s0,0x10
    d460:	01045413          	srl	s0,s0,0x10
    d464:	fcf464e3          	bltu	s0,a5,d42c <main+0x810>
    d468:	03c12783          	lw	a5,60(sp)
    d46c:	0047f793          	and	a5,a5,4
    d470:	76cca683          	lw	a3,1900(s9)
    d474:	06078663          	beqz	a5,d4e0 <main+0x8c4>
    d478:	0c068663          	beqz	a3,d544 <main+0x928>
    d47c:	00001737          	lui	a4,0x1
    d480:	fffff7b7          	lui	a5,0xfffff
    d484:	82070713          	add	a4,a4,-2016 # 820 <_start-0x77e0>
    d488:	00f70733          	add	a4,a4,a5
    d48c:	01010793          	add	a5,sp,16
    d490:	00f707b3          	add	a5,a4,a5
    d494:	00000413          	li	s0,0
    d498:	000109b7          	lui	s3,0x10
    d49c:	00f12223          	sw	a5,4(sp)
    d4a0:	00001937          	lui	s2,0x1
    d4a4:	00412703          	lw	a4,4(sp)
    d4a8:	00441793          	sll	a5,s0,0x4
    d4ac:	008787b3          	add	a5,a5,s0
    d4b0:	00279793          	sll	a5,a5,0x2
    d4b4:	00f707b3          	add	a5,a4,a5
    d4b8:	00f907b3          	add	a5,s2,a5
    d4bc:	82a7d603          	lhu	a2,-2006(a5) # ffffe82a <stack_top+0xfffde82a>
    d4c0:	00040593          	mv	a1,s0
    d4c4:	54498513          	add	a0,s3,1348 # 10544 <errpat+0x514>
    d4c8:	8e8fe0ef          	jal	b5b0 <ee_printf>
    d4cc:	00140413          	add	s0,s0,1
    d4d0:	76cca783          	lw	a5,1900(s9)
    d4d4:	01041413          	sll	s0,s0,0x10
    d4d8:	01045413          	srl	s0,s0,0x10
    d4dc:	fcf464e3          	bltu	s0,a5,d4a4 <main+0x888>
    d4e0:	00001737          	lui	a4,0x1
    d4e4:	76cca783          	lw	a5,1900(s9)
    d4e8:	fffff937          	lui	s2,0xfffff
    d4ec:	82070713          	add	a4,a4,-2016 # 820 <_start-0x77e0>
    d4f0:	01270733          	add	a4,a4,s2
    d4f4:	01010693          	add	a3,sp,16
    d4f8:	00000413          	li	s0,0
    d4fc:	00010a37          	lui	s4,0x10
    d500:	00d70933          	add	s2,a4,a3
    d504:	000019b7          	lui	s3,0x1
    d508:	02078e63          	beqz	a5,d544 <main+0x928>
    d50c:	00441793          	sll	a5,s0,0x4
    d510:	008787b3          	add	a5,a5,s0
    d514:	00279793          	sll	a5,a5,0x2
    d518:	00f907b3          	add	a5,s2,a5
    d51c:	00f987b3          	add	a5,s3,a5
    d520:	8247d603          	lhu	a2,-2012(a5)
    d524:	00040593          	mv	a1,s0
    d528:	560a0513          	add	a0,s4,1376 # 10560 <errpat+0x530>
    d52c:	884fe0ef          	jal	b5b0 <ee_printf>
    d530:	00140413          	add	s0,s0,1
    d534:	76cca783          	lw	a5,1900(s9)
    d538:	01041413          	sll	s0,s0,0x10
    d53c:	01045413          	srl	s0,s0,0x10
    d540:	fcf466e3          	bltu	s0,a5,d50c <main+0x8f0>
    d544:	08048e63          	beqz	s1,d5e0 <main+0x9c4>
    d548:	08904463          	bgtz	s1,d5d0 <main+0x9b4>
    d54c:	00010537          	lui	a0,0x10
    d550:	5c850513          	add	a0,a0,1480 # 105c8 <errpat+0x598>
    d554:	85cfe0ef          	jal	b5b0 <ee_printf>
    d558:	05e10513          	add	a0,sp,94
    d55c:	a11fd0ef          	jal	af6c <portable_fini>
    d560:	08010113          	add	sp,sp,128
    d564:	7ec12083          	lw	ra,2028(sp)
    d568:	7e812403          	lw	s0,2024(sp)
    d56c:	7e412483          	lw	s1,2020(sp)
    d570:	7e012903          	lw	s2,2016(sp)
    d574:	7dc12983          	lw	s3,2012(sp)
    d578:	7d812a03          	lw	s4,2008(sp)
    d57c:	7d412a83          	lw	s5,2004(sp)
    d580:	7d012b03          	lw	s6,2000(sp)
    d584:	7cc12b83          	lw	s7,1996(sp)
    d588:	7c812c03          	lw	s8,1992(sp)
    d58c:	7c412c83          	lw	s9,1988(sp)
    d590:	7c012d03          	lw	s10,1984(sp)
    d594:	7bc12d83          	lw	s11,1980(sp)
    d598:	00000513          	li	a0,0
    d59c:	7f010113          	add	sp,sp,2032
    d5a0:	00008067          	ret
    d5a4:	000107b7          	lui	a5,0x10
    d5a8:	3ac78513          	add	a0,a5,940 # 103ac <errpat+0x37c>
    d5ac:	000a0693          	mv	a3,s4
    d5b0:	000d8593          	mv	a1,s11
    d5b4:	ffdfd0ef          	jal	b5b0 <ee_printf>
    d5b8:	82c45783          	lhu	a5,-2004(s0)
    d5bc:	00178793          	add	a5,a5,1
    d5c0:	01079793          	sll	a5,a5,0x10
    d5c4:	0107d793          	srl	a5,a5,0x10
    d5c8:	82f41623          	sh	a5,-2004(s0)
    d5cc:	b61ff06f          	j	d12c <main+0x510>
    d5d0:	00010537          	lui	a0,0x10
    d5d4:	62c50513          	add	a0,a0,1580 # 1062c <errpat+0x5fc>
    d5d8:	fd9fd0ef          	jal	b5b0 <ee_printf>
    d5dc:	f7dff06f          	j	d558 <main+0x93c>
    d5e0:	00010537          	lui	a0,0x10
    d5e4:	57c50513          	add	a0,a0,1404 # 1057c <errpat+0x54c>
    d5e8:	fc9fd0ef          	jal	b5b0 <ee_printf>
    d5ec:	f6dff06f          	j	d558 <main+0x93c>
    d5f0:	00010537          	lui	a0,0x10
    d5f4:	00140493          	add	s1,s0,1
    d5f8:	43c50513          	add	a0,a0,1084 # 1043c <errpat+0x40c>
    d5fc:	01049493          	sll	s1,s1,0x10
    d600:	fb1fd0ef          	jal	b5b0 <ee_printf>
    d604:	4104d493          	sra	s1,s1,0x10
    d608:	d09ff06f          	j	d310 <main+0x6f4>
    d60c:	76cca583          	lw	a1,1900(s9)
    d610:	03812503          	lw	a0,56(sp)
    d614:	d30ff0ef          	jal	cb44 <__mulsi3>
    d618:	00050993          	mv	s3,a0
    d61c:	00048513          	mv	a0,s1
    d620:	921fd0ef          	jal	af40 <time_in_secs>
    d624:	00050593          	mv	a1,a0
    d628:	00098513          	mv	a0,s3
    d62c:	d44ff0ef          	jal	cb70 <__hidden___udivsi3>
    d630:	00050593          	mv	a1,a0
    d634:	00010537          	lui	a0,0x10
    d638:	42450513          	add	a0,a0,1060 # 10424 <errpat+0x3f4>
    d63c:	f75fd0ef          	jal	b5b0 <ee_printf>
    d640:	cb9ff06f          	j	d2f8 <main+0x6dc>
    d644:	00010537          	lui	a0,0x10
    d648:	31c50513          	add	a0,a0,796 # 1031c <errpat+0x2ec>
    d64c:	f65fd0ef          	jal	b5b0 <ee_printf>
    d650:	00009a37          	lui	s4,0x9
    d654:	0000e9b7          	lui	s3,0xe
    d658:	d84a0a13          	add	s4,s4,-636 # 8d84 <core_list_mergesort+0xb8>
    d65c:	3c198993          	add	s3,s3,961 # e3c1 <main+0x17a5>
    d660:	74700793          	li	a5,1863
    d664:	000a0c13          	mv	s8,s4
    d668:	00f12623          	sw	a5,12(sp)
    d66c:	74700b93          	li	s7,1863
    d670:	00098b13          	mv	s6,s3
